 modbus

 Timestamp is 680b3576 (Fri Apr 25 10:10:46 2025)

 Preferred load address is 10000000

 Start         Length     Name                   Class
 0001:00000000 000924e0H .text$mn                CODE
 0001:000924e0 00000c87H .text$x                 CODE
 0002:00000000 000001c8H .idata$5                DATA
 0002:000001c8 0000000cH .00cfg                  DATA
 0002:000001d4 00000004H .CRT$XCA                DATA
 0002:000001d8 00000004H .CRT$XCZ                DATA
 0002:000001dc 00000004H .CRT$XIA                DATA
 0002:000001e0 0000000cH .CRT$XIC                DATA
 0002:000001ec 00000004H .CRT$XIZ                DATA
 0002:000001f0 00000004H .CRT$XPA                DATA
 0002:000001f4 00000008H .CRT$XPX                DATA
 0002:000001fc 00000004H .CRT$XPXA               DATA
 0002:00000200 00000004H .CRT$XPZ                DATA
 0002:00000204 00000004H .CRT$XTA                DATA
 0002:00000208 00000008H .CRT$XTZ                DATA
 0002:0000020c 00000000H .gfids$y                DATA
 0002:00000210 0001ea70H .rdata                  DATA
 0002:0001ec80 00000040H .rdata$CastGuardVftablesA DATA
 0002:0001ecc0 00000040H .rdata$CastGuardVftablesC DATA
 0002:0001ed00 000002a0H .rdata$r                DATA
 0002:0001efa0 0000019cH .rdata$sxdata           DATA
 0002:0001f13c 00000190H .rdata$voltmd           DATA
 0002:0001f2cc 000003acH .rdata$zzzdbg           DATA
 0002:0001f678 00000004H .rtc$IAA                DATA
 0002:0001f67c 00000010H .rtc$IMZ                DATA
 0002:0001f68c 00000004H .rtc$IZZ                DATA
 0002:0001f690 00000004H .rtc$TAA                DATA
 0002:0001f694 00000010H .rtc$TMZ                DATA
 0002:0001f6a4 00000004H .rtc$TZZ                DATA
 0002:0001f6a8 000018b8H .xdata$x                DATA
 0002:00020f60 00000880H .edata                  DATA
 0002:000217e0 00000028H .idata$2                DATA
 0002:00021808 00000014H .idata$3                DATA
 0002:0002181c 000001c8H .idata$4                DATA
 0002:000219e4 000006daH .idata$6                DATA
 0003:00000000 00001940H .data                   DATA
 0003:00001940 00000058H .data$r                 DATA
 0003:00001998 000000b8H .data$rs                DATA
 0003:00001a50 00001300H .bss                    DATA
 0004:00000000 000000a0H .rsrc$01                DATA
 0004:000000a0 000003f0H .rsrc$02                DATA

  Address         Publics by Value              Rva+Base       Lib:Object

 0000:00000000       ___AbsoluteZero            00000000     <absolute>
 0000:00000000       ___arm64x_extra_rfe_table  00000000     <absolute>
 0000:00000000       ___arm64x_extra_rfe_table_size 00000000     <absolute>
 0000:00000000       ___arm64x_native_entrypoint 00000000     <absolute>
 0000:00000000       ___arm64x_redirection_metadata 00000000     <absolute>
 0000:00000000       ___arm64x_redirection_metadata_count 00000000     <absolute>
 0000:00000000       ___dynamic_value_reloc_table 00000000     <absolute>
 0000:00000000       ___enclave_config          00000000     <absolute>
 0000:00000000       ___guard_check_icall_a64n_fptr 00000000     <absolute>
 0000:00000000       ___guard_eh_cont_count     00000000     <absolute>
 0000:00000000       ___guard_eh_cont_table     00000000     <absolute>
 0000:00000000       ___guard_fids_count        00000000     <absolute>
 0000:00000000       ___guard_fids_table        00000000     <absolute>
 0000:00000000       ___guard_iat_count         00000000     <absolute>
 0000:00000000       ___guard_iat_table         00000000     <absolute>
 0000:00000000       ___guard_longjmp_count     00000000     <absolute>
 0000:00000000       ___guard_longjmp_table     00000000     <absolute>
 0000:00000000       ___hybrid_auxiliary_delayload_iat 00000000     <absolute>
 0000:00000000       ___hybrid_auxiliary_delayload_iat_copy 00000000     <absolute>
 0000:00000000       ___hybrid_auxiliary_iat    00000000     <absolute>
 0000:00000000       ___hybrid_auxiliary_iat_copy 00000000     <absolute>
 0000:00000000       ___hybrid_code_map         00000000     <absolute>
 0000:00000000       ___hybrid_code_map_count   00000000     <absolute>
 0000:00000000       ___hybrid_image_info_bitfield 00000000     <absolute>
 0000:00000000       ___x64_code_ranges_to_entry_points 00000000     <absolute>
 0000:00000000       ___x64_code_ranges_to_entry_points_count 00000000     <absolute>
 0000:00000000       __except_list              00000000     <absolute>
 0000:00000067       ___safe_se_handler_count   00000067     <absolute>
 0000:00000100       ___guard_flags             00000100     <absolute>
 0000:00000000       ___ImageBase               10000000     <linker-defined>
 0001:00000000       _modbus_set_bits_from_byte 10001000 f   modbus-data.obj
 0001:00000060       _modbus_set_bits_from_bytes 10001060 f   modbus-data.obj
 0001:000000f0       _modbus_get_byte_from_bits 100010f0 f   modbus-data.obj
 0001:00000160       _modbus_get_float          10001160 f   modbus-data.obj
 0001:00000180       _modbus_get_float_abcd     10001180 f   modbus-data.obj
 0001:00000220       _modbus_get_float_dcba     10001220 f   modbus-data.obj
 0001:000002c0       _modbus_get_float_badc     100012c0 f   modbus-data.obj
 0001:00000360       _modbus_get_float_cdab     10001360 f   modbus-data.obj
 0001:00000400       _modbus_set_float          10001400 f   modbus-data.obj
 0001:00000420       _modbus_set_float_abcd     10001420 f   modbus-data.obj
 0001:000004b0       _modbus_set_float_dcba     100014b0 f   modbus-data.obj
 0001:00000540       _modbus_set_float_badc     10001540 f   modbus-data.obj
 0001:000005d0       _modbus_set_float_cdab     100015d0 f   modbus-data.obj
 0001:00000660       _modbus_new_rtu            10001660 f   modbus-rtu.obj
 0001:00000860       _modbus_rtu_set_serial_mode 10001860 f   modbus-rtu.obj
 0001:000008d0       _modbus_rtu_get_serial_mode 100018d0 f   modbus-rtu.obj
 0001:00000940       _modbus_rtu_set_rts        10001940 f   modbus-rtu.obj
 0001:000009b0       _modbus_rtu_get_rts        100019b0 f   modbus-rtu.obj
 0001:00000a20       _modbus_rtu_set_custom_rts 10001a20 f   modbus-rtu.obj
 0001:00000a90       _modbus_rtu_set_rts_delay  10001a90 f   modbus-rtu.obj
 0001:00000b00       _modbus_rtu_get_rts_delay  10001b00 f   modbus-rtu.obj
 0001:00001600       ___local_stdio_printf_options 10002600 f i modbus-rtu.obj
 0001:00001610       __vfprintf_l               10002610 f i modbus-rtu.obj
 0001:00001640       _fprintf                   10002640 f i modbus-rtu.obj
 0001:00001680       _printf                    10002680 f i modbus-rtu.obj
 0001:000016c0       _modbus_new_tcp            100026c0 f   modbus-tcp.obj
 0001:00001810       _modbus_tcp_listen         10002810 f   modbus-tcp.obj
 0001:000019b0       _modbus_tcp_accept         100029b0 f   modbus-tcp.obj
 0001:00001a70       _modbus_new_tcp_pi         10002a70 f   modbus-tcp.obj
 0001:00001bd0       _modbus_tcp_pi_listen      10002bd0 f   modbus-tcp.obj
 0001:00001e70       _modbus_tcp_pi_accept      10002e70 f   modbus-tcp.obj
 0001:00002ca0       _modbus_set_slave          10003ca0 f   modbus.obj
 0001:00002ce0       _modbus_get_slave          10003ce0 f   modbus.obj
 0001:00002d00       _modbus_set_error_recovery 10003d00 f   modbus.obj
 0001:00002d30       _modbus_set_socket         10003d30 f   modbus.obj
 0001:00002d60       _modbus_get_socket         10003d60 f   modbus.obj
 0001:00002d90       _modbus_get_response_timeout 10003d90 f   modbus.obj
 0001:00002dd0       _modbus_set_response_timeout 10003dd0 f   modbus.obj
 0001:00002e20       _modbus_get_byte_timeout   10003e20 f   modbus.obj
 0001:00002e60       _modbus_set_byte_timeout   10003e60 f   modbus.obj
 0001:00002ea0       _modbus_get_indication_timeout 10003ea0 f   modbus.obj
 0001:00002ee0       _modbus_set_indication_timeout 10003ee0 f   modbus.obj
 0001:00002f20       _modbus_get_header_length  10003f20 f   modbus.obj
 0001:00002f50       _modbus_connect            10003f50 f   modbus.obj
 0001:00002f80       _modbus_close              10003f80 f   modbus.obj
 0001:00002fa0       _modbus_free               10003fa0 f   modbus.obj
 0001:00002fc0       _modbus_flush              10003fc0 f   modbus.obj
 0001:00003020       _modbus_set_debug          10004020 f   modbus.obj
 0001:00003050       _modbus_strerror           10004050 f   modbus.obj
 0001:00003140       _modbus_read_bits          10004140 f   modbus.obj
 0001:000031d0       _modbus_read_input_bits    100041d0 f   modbus.obj
 0001:00003260       _modbus_read_registers     10004260 f   modbus.obj
 0001:000032e0       _modbus_read_input_registers 100042e0 f   modbus.obj
 0001:00003360       _modbus_write_bit          10004360 f   modbus.obj
 0001:000033b0       _modbus_write_register     100043b0 f   modbus.obj
 0001:000033f0       _modbus_write_bits         100043f0 f   modbus.obj
 0001:00003700       _modbus_write_registers    10004700 f   modbus.obj
 0001:000038e0       _modbus_mask_write_register 100048e0 f   modbus.obj
 0001:00003a40       _modbus_write_and_read_registers 10004a40 f   modbus.obj
 0001:00003d80       _modbus_report_slave_id    10004d80 f   modbus.obj
 0001:00003ef0       _modbus_mapping_new_start_address 10004ef0 f   modbus.obj
 0001:00004110       _modbus_mapping_new        10005110 f   modbus.obj
 0001:00004140       _modbus_mapping_free       10005140 f   modbus.obj
 0001:000041a0       _modbus_send_raw_request   100051a0 f   modbus.obj
 0001:000041c0       _modbus_send_raw_request_tid 100051c0 f   modbus.obj
 0001:000042d0       _modbus_receive            100052d0 f   modbus.obj
 0001:00004310       _modbus_receive_confirmation 10005310 f   modbus.obj
 0001:00004340       _modbus_reply              10005340 f   modbus.obj
 0001:000056a0       _modbus_reply_exception    100066a0 f   modbus.obj
 0001:000057c0       _modbus_enable_quirks      100067c0 f   modbus.obj
 0001:000057f0       _modbus_disable_quirks     100067f0 f   modbus.obj
 0001:00005820       __modbus_init_common       10006820 f   modbus.obj
 0001:000058a0       __error_print              100068a0 f   modbus.obj
 0001:00005920       __modbus_receive_msg       10006920 f   modbus.obj
 0001:00005e10       _strlcpy                   10006e10 f   modbus.obj
 0001:00006d70       _vfprintf                  10007d70 f i modbus.obj
 0001:00006d8b       _accept@12                 10007d8b f   ws2_32:WS2_32.dll
 0001:00006d91       _bind@12                   10007d91 f   ws2_32:WS2_32.dll
 0001:00006d97       _closesocket@4             10007d97 f   ws2_32:WS2_32.dll
 0001:00006d9d       _connect@12                10007d9d f   ws2_32:WS2_32.dll
 0001:00006da3       _ioctlsocket@12            10007da3 f   ws2_32:WS2_32.dll
 0001:00006da9       _getsockopt@20             10007da9 f   ws2_32:WS2_32.dll
 0001:00006daf       _htonl@4                   10007daf f   ws2_32:WS2_32.dll
 0001:00006db5       _htons@4                   10007db5 f   ws2_32:WS2_32.dll
 0001:00006dbb       _listen@8                  10007dbb f   ws2_32:WS2_32.dll
 0001:00006dc1       _recv@16                   10007dc1 f   ws2_32:WS2_32.dll
 0001:00006dc7       _select@20                 10007dc7 f   ws2_32:WS2_32.dll
 0001:00006dcd       _send@16                   10007dcd f   ws2_32:WS2_32.dll
 0001:00006dd3       _setsockopt@20             10007dd3 f   ws2_32:WS2_32.dll
 0001:00006dd9       _shutdown@8                10007dd9 f   ws2_32:WS2_32.dll
 0001:00006ddf       _socket@12                 10007ddf f   ws2_32:WS2_32.dll
 0001:00006de5       _WSAStartup@8              10007de5 f   ws2_32:WS2_32.dll
 0001:00006deb       _WSAGetLastError@0         10007deb f   ws2_32:WS2_32.dll
 0001:00006df1       _getaddrinfo@16            10007df1 f   ws2_32:WS2_32.dll
 0001:00006df7       _freeaddrinfo@4            10007df7 f   ws2_32:WS2_32.dll
 0001:00006dfd       _inet_pton@12              10007dfd f   ws2_32:WS2_32.dll
 0001:00006e03       _inet_ntop@16              10007e03 f   ws2_32:WS2_32.dll
 0001:00006e09       _CreateFileA@28            10007e09 f   kernel32:KERNEL32.dll
 0001:00006e0f       _ReadFile@20               10007e0f f   kernel32:KERNEL32.dll
 0001:00006e15       _WriteFile@20              10007e15 f   kernel32:KERNEL32.dll
 0001:00006e1b       _CloseHandle@4             10007e1b f   kernel32:KERNEL32.dll
 0001:00006e21       _GetLastError@0            10007e21 f   kernel32:KERNEL32.dll
 0001:00006e27       _GetCommState@8            10007e27 f   kernel32:KERNEL32.dll
 0001:00006e2d       _PurgeComm@8               10007e2d f   kernel32:KERNEL32.dll
 0001:00006e33       _SetCommState@8            10007e33 f   kernel32:KERNEL32.dll
 0001:00006e39       _SetCommTimeouts@8         10007e39 f   kernel32:KERNEL32.dll
 0001:00006e3f       _Sleep@4                   10007e3f f   kernel32:KERNEL32.dll
 0001:00006e50       __CRT_RTC_INIT             10007e50 f   LIBCMTD:init.obj
 0001:00006e60       __CRT_RTC_INITW            10007e60 f   LIBCMTD:init.obj
 0001:00006e70       __RTC_InitBase             10007e70 f   LIBCMTD:init.obj
 0001:00006ea0       __RTC_Shutdown             10007ea0 f   LIBCMTD:init.obj
 0001:00006ec0       @__security_check_cookie@4 10007ec0 f   LIBCMTD:secchk.obj
 0001:00006ed0       ___raise_securityfailure   10007ed0 f   LIBCMTD:gs_report.obj
 0001:00006f00       ___report_gsfailure        10007f00 f   LIBCMTD:gs_report.obj
 0001:00007010       ___report_rangecheckfailure 10008010 f   LIBCMTD:gs_report.obj
 0001:00007020       ___report_securityfailure  10008020 f   LIBCMTD:gs_report.obj
 0001:00007100       ___report_securityfailureEx 10008100 f   LIBCMTD:gs_report.obj
 0001:00007700       __CRT_INIT@12              10008700 f   LIBCMTD:dll_dllmain.obj
 0001:00007720       __DllMainCRTStartup@12     10008720 f   LIBCMTD:dll_dllmain.obj
 0001:00007750       ?_RTC_GetErrorFunc@@YAP6AHHPBDH00ZZPBX@Z 10008750 f   LIBCMTD:userapi.obj
 0001:00007760       ?_RTC_GetErrorFuncW@@YAP6AHHPB_WH00ZZPBX@Z 10008760 f   LIBCMTD:userapi.obj
 0001:00007770       __RTC_GetErrDesc           10008770 f   LIBCMTD:userapi.obj
 0001:00007790       __RTC_NumErrors            10008790 f   LIBCMTD:userapi.obj
 0001:000077a0       __RTC_SetErrorFunc         100087a0 f   LIBCMTD:userapi.obj
 0001:000077c0       __RTC_SetErrorFuncW        100087c0 f   LIBCMTD:userapi.obj
 0001:000077e0       __RTC_SetErrorType         100087e0 f   LIBCMTD:userapi.obj
 0001:00007880       ___security_init_cookie    10008880 f   LIBCMTD:gs_support.obj
 0001:00007900       _DllMain@12                10008900 f   LIBCMTD:dll_dllmain_stub.obj
 0001:00007910       ?__scrt_initialize_type_info@@YAXXZ 10008910 f   LIBCMTD:tncleanup.obj
 0001:00007930       ?__scrt_uninitialize_type_info@@YAXXZ 10008930 f   LIBCMTD:tncleanup.obj
 0001:00007950       ___local_stdio_scanf_options 10008950 f i LIBCMTD:default_local_stdio_options.obj
 0001:00007960       ___scrt_initialize_default_local_stdio_options 10008960 f   LIBCMTD:default_local_stdio_options.obj
 0001:000079a0       ?configure_argv@__scrt_narrow_argv_policy@@SAHXZ 100089a0 f i LIBCMTD:utility.obj
 0001:00007a50       ?initialize_environment@__scrt_narrow_environment_policy@@SAHXZ 10008a50 f i LIBCMTD:utility.obj
 0001:00007ad0       _NtCurrentTeb              10008ad0 f i LIBCMTD:utility.obj
 0001:00007ae0       ___scrt_acquire_startup_lock 10008ae0 f   LIBCMTD:utility.obj
 0001:00007b30       ___scrt_dllmain_after_initialize_c 10008b30 f   LIBCMTD:utility.obj
 0001:00007b60       ___scrt_dllmain_before_initialize_c 10008b60 f   LIBCMTD:utility.obj
 0001:00007b80       ___scrt_dllmain_crt_thread_attach 10008b80 f   LIBCMTD:utility.obj
 0001:00007bb0       ___scrt_dllmain_crt_thread_detach 10008bb0 f   LIBCMTD:utility.obj
 0001:00007bd0       ___scrt_dllmain_exception_filter 10008bd0 f   LIBCMTD:utility.obj
 0001:00007c20       ___scrt_dllmain_uninitialize_c 10008c20 f   LIBCMTD:utility.obj
 0001:00007c50       ___scrt_dllmain_uninitialize_critical 10008c50 f   LIBCMTD:utility.obj
 0001:00007c70       ___scrt_initialize_crt     10008c70 f   LIBCMTD:utility.obj
 0001:00007cc0       ___scrt_initialize_onexit_tables 10008cc0 f   LIBCMTD:utility.obj
 0001:00007da0       ___scrt_is_nonwritable_in_current_image 10008da0 f   LIBCMTD:utility.obj
 0001:00007ed0       ___scrt_release_startup_lock 10008ed0 f   LIBCMTD:utility.obj
 0001:00007f00       ___scrt_uninitialize_crt   10008f00 f   LIBCMTD:utility.obj
 0001:00007f40       __onexit                   10008f40 f   LIBCMTD:utility.obj
 0001:00007fb0       _at_quick_exit             10008fb0 f   LIBCMTD:utility.obj
 0001:00007ff0       _atexit                    10008ff0 f   LIBCMTD:utility.obj
 0001:00008020       ___scrt_get_dyn_tls_init_callback 10009020 f   LIBCMTD:dyn_tls_init.obj
 0001:00008030       ___scrt_fastfail           10009030 f   LIBCMTD:utility_desktop.obj
 0001:00008170       ___scrt_get_show_window_mode 10009170 f   LIBCMTD:utility_desktop.obj
 0001:000081b0       ___scrt_initialize_mta     100091b0 f   LIBCMTD:utility_desktop.obj
 0001:000081c0       ___scrt_initialize_winrt   100091c0 f   LIBCMTD:utility_desktop.obj
 0001:000081d0       ___scrt_is_managed_app     100091d0 f   LIBCMTD:utility_desktop.obj
 0001:00008260       ___scrt_set_unhandled_exception_filter 10009260 f   LIBCMTD:utility_desktop.obj
 0001:00008280       ___scrt_exe_initialize_mta 10009280 f   LIBCMTD:utility_desktop.obj
 0001:00008280       ___scrt_stub_for_initialize_mta 10009280 f   LIBCMTD:utility_desktop.obj
 0001:00008290       ___scrt_unhandled_exception_filter@4 10009290 f   LIBCMTD:utility_desktop.obj
 0001:00008310       __crt_debugger_hook        10009310 f   LIBCMTD:utility_desktop.obj
 0001:00008320       __RTC_Initialize           10009320 f   LIBCMTD:initsect.obj
 0001:00008350       __RTC_Terminate            10009350 f   LIBCMTD:initsect.obj
 0001:00008380       @_guard_check_icall_nop@4  10009380 f i LIBCMTD:guard_support.obj
 0001:00008390       _ReadNoFence               10009390 f i LIBCMTD:guard_support.obj
 0001:000083b0       _ReadPointerNoFence        100093b0 f i LIBCMTD:guard_support.obj
 0001:000083d0       __InlineInterlockedExchangePointer 100093d0 f i LIBCMTD:guard_support.obj
 0001:000083e0       ___castguard_check_failure_debugbreak 100093e0 f i LIBCMTD:guard_support.obj
 0001:00008400       ___castguard_check_failure_fastfail 10009400 f i LIBCMTD:guard_support.obj
 0001:00008420       ___castguard_check_failure_nop 10009420 f i LIBCMTD:guard_support.obj
 0001:00008430       ___castguard_check_failure_os_handled 10009430 f i LIBCMTD:guard_support.obj
 0001:00008490       ___castguard_check_failure_user_handled 10009490 f i LIBCMTD:guard_support.obj
 0001:00008540       ___castguard_set_user_handler 10009540 f i LIBCMTD:guard_support.obj
 0001:00008560       ___castguard_slow_path_check_debugbreak 10009560 f i LIBCMTD:guard_support.obj
 0001:00008590       ___castguard_slow_path_check_fastfail 10009590 f i LIBCMTD:guard_support.obj
 0001:000085d0       ___castguard_slow_path_check_nop 100095d0 f i LIBCMTD:guard_support.obj
 0001:000085e0       ___castguard_slow_path_check_os_handled 100095e0 f i LIBCMTD:guard_support.obj
 0001:00008620       ___castguard_slow_path_check_user_handled 10009620 f i LIBCMTD:guard_support.obj
 0001:000086a0       __guard_icall_checks_enforced 100096a0 f i LIBCMTD:guard_support.obj
 0001:00008760       ?_RTC_AllocaFailure@@YAXPAXPAU_RTC_ALLOCA_NODE@@H@Z 10009760 f   LIBCMTD:error.obj
 0001:00008850       ?_RTC_Failure@@YAXPAXH@Z   10009850 f   LIBCMTD:error.obj
 0001:000088a0       ?_RTC_StackFailure@@YAXPAXPBD@Z 100098a0 f   LIBCMTD:error.obj
 0001:00008c90       __RTC_UninitUse            10009c90 f   LIBCMTD:error.obj
 0001:00008d40       __vsprintf_s_l             10009d40 f i LIBCMTD:error.obj
 0001:00008d70       _sprintf_s                 10009d70 f i LIBCMTD:error.obj
 0001:00008d90       ___isa_available_init      10009d90 f   LIBCMTD:cpu_disp.obj
 0001:00009220       __get_startup_argv_mode    1000a220 f   LIBCMTD:argv_mode.obj
 0001:00009230       ___scrt_is_ucrt_dll_in_use 1000a230 f   LIBCMTD:ucrt_detection.obj
 0001:000096b0       ?_RTC_GetSrcLine@@YAHPAEPA_WKPAH1K@Z 1000a6b0 f   LIBCMTD:pdblkup.obj
 0001:00009a30       __except_handler4_noexcept 1000aa30 f   LIBCMTD:chandler4_noexcept.obj
 0001:00009a90       _memcpy                    1000aa90 f   libvcruntimed:memcpy.obj
 0001:0000a010       _memset                    1000b010 f   libvcruntimed:memset.obj
 0001:0000a1d0       __except_handler4          1000b1d0 f   libvcruntimed:chandler4.obj
 0001:0000a400       ??$?RD@__crt_internal_free_policy@@QBEXQBD@Z 1000b400 f i libvcruntimed:std_type_info.obj
 0001:0000a420       ??$?RX@__crt_internal_free_policy@@QBEXQBX@Z 1000b420 f i libvcruntimed:std_type_info.obj
 0001:0000a440       ??$__crt_interlocked_compare_exchange_pointer@$$CBDPAD$$T@@YAPBDPDSBDQAD$$T@Z 1000b440 f i libvcruntimed:std_type_info.obj
 0001:0000a460       ??$__crt_interlocked_read_pointer@$$CBD@@YAPBDPDSBD@Z 1000b460 f i libvcruntimed:std_type_info.obj
 0001:0000a480       ??0?$__crt_unique_heap_ptr@DU__crt_internal_free_policy@@@@QAE@QAD@Z 1000b480 f i libvcruntimed:std_type_info.obj
 0001:0000a4a0       ??0?$__crt_unique_heap_ptr@XU__crt_internal_free_policy@@@@QAE@QAX@Z 1000b4a0 f i libvcruntimed:std_type_info.obj
 0001:0000a4c0       ??1?$__crt_unique_heap_ptr@DU__crt_internal_free_policy@@@@QAE@XZ 1000b4c0 f i libvcruntimed:std_type_info.obj
 0001:0000a4e0       ??1?$__crt_unique_heap_ptr@XU__crt_internal_free_policy@@@@QAE@XZ 1000b4e0 f i libvcruntimed:std_type_info.obj
 0001:0000a500       ??B?$__crt_unique_heap_ptr@DU__crt_internal_free_policy@@@@QBE_NXZ 1000b500 f i libvcruntimed:std_type_info.obj
 0001:0000a520       ??B?$__crt_unique_heap_ptr@XU__crt_internal_free_policy@@@@QBE_NXZ 1000b520 f i libvcruntimed:std_type_info.obj
 0001:0000a590       ?__crt_interlocked_read_32@@YAHPDH@Z 1000b590 f i libvcruntimed:std_type_info.obj
 0001:0000a5b0       ?detach@?$__crt_unique_heap_ptr@XU__crt_internal_free_policy@@@@QAEPAXXZ 1000b5b0 f i libvcruntimed:std_type_info.obj
 0001:0000a5e0       ?get@?$__crt_unique_heap_ptr@DU__crt_internal_free_policy@@@@QBEPADXZ 1000b5e0 f i libvcruntimed:std_type_info.obj
 0001:0000a5f0       ?get@?$__crt_unique_heap_ptr@XU__crt_internal_free_policy@@@@QBEPAXXZ 1000b5f0 f i libvcruntimed:std_type_info.obj
 0001:0000a600       ?is_valid@?$__crt_unique_heap_ptr@DU__crt_internal_free_policy@@@@QBE_NXZ 1000b600 f i libvcruntimed:std_type_info.obj
 0001:0000a630       ?is_valid@?$__crt_unique_heap_ptr@XU__crt_internal_free_policy@@@@QBE_NXZ 1000b630 f i libvcruntimed:std_type_info.obj
 0001:0000a660       ?release@?$__crt_unique_heap_ptr@DU__crt_internal_free_policy@@@@QAEXXZ 1000b660 f i libvcruntimed:std_type_info.obj
 0001:0000a690       ?release@?$__crt_unique_heap_ptr@XU__crt_internal_free_policy@@@@QAEXXZ 1000b690 f i libvcruntimed:std_type_info.obj
 0001:0000a6c0       ___std_type_info_compare   1000b6c0 f   libvcruntimed:std_type_info.obj
 0001:0000a6f0       ___std_type_info_destroy_list 1000b6f0 f   libvcruntimed:std_type_info.obj
 0001:0000a730       ___std_type_info_hash      1000b730 f   libvcruntimed:std_type_info.obj
 0001:0000a790       ___std_type_info_name      1000b790 f   libvcruntimed:std_type_info.obj
 0001:0000a960       ___vcrt_initialize         1000b960 f   libvcruntimed:initialization.obj
 0001:0000a9a0       ___vcrt_thread_attach      1000b9a0 f   libvcruntimed:initialization.obj
 0001:0000a9c0       ___vcrt_thread_detach      1000b9c0 f   libvcruntimed:initialization.obj
 0001:0000a9d0       ___vcrt_uninitialize       1000b9d0 f   libvcruntimed:initialization.obj
 0001:0000a9f0       ___vcrt_uninitialize_critical 1000b9f0 f   libvcruntimed:initialization.obj
 0001:0000aa10       ___DestructExceptionObject 1000ba10 f   libvcruntimed:ehhelpers.obj
 0001:0000ab30       ?_CallMemberFunction0@@YGXQAX0@Z 1000bb30 f i libvcruntimed:ehhelpers.obj
 0001:0000abd0       ?raw_name@type_info@@QBEPBDXZ 1000bbd0 f i libvcruntimed:ehhelpers.obj
 0001:0000abf0       __IsExceptionObjectToBeDestroyed 1000bbf0 f   libvcruntimed:ehhelpers.obj
 0001:0000ac30       __SetWinRTOutOfMemoryExceptionCallback 1000bc30 f   libvcruntimed:ehhelpers.obj
 0001:0000ac40       ___AdjustPointer           1000bc40 f   libvcruntimed:ehhelpers.obj
 0001:0000ac90       ___FrameUnwindFilter       1000bc90 f   libvcruntimed:ehhelpers.obj
 0001:0000ad20       ___GetPlatformExceptionInfo 1000bd20 f   libvcruntimed:ehhelpers.obj
 0001:0000ada0       ___current_exception       1000bda0 f   libvcruntimed:ehhelpers.obj
 0001:0000adb0       ___current_exception_context 1000bdb0 f   libvcruntimed:ehhelpers.obj
 0001:0000adc0       ___processing_throw        1000bdc0 f   libvcruntimed:ehhelpers.obj
 0001:0000add0       ___std_terminate           1000bdd0 f   libvcruntimed:ehhelpers.obj
 0001:0000ade0       __is_exception_typeof      1000bde0 f   libvcruntimed:ehhelpers.obj
 0001:0000aec0       ___vcrt_GetModuleFileNameW 1000bec0 f   libvcruntimed:winapi_thunks.obj
 0001:0000aee0       ___vcrt_GetModuleHandleW   1000bee0 f   libvcruntimed:winapi_thunks.obj
 0001:0000aef0       ___vcrt_LoadLibraryExW     1000bef0 f   libvcruntimed:winapi_thunks.obj
 0001:0000af10       __local_unwind4            1000bf10 f   libvcruntimed:exsup4.obj
 0001:0000b000       __seh_longjmp_unwind4@4    1000c000 f   libvcruntimed:exsup4.obj
 0001:0000b030       @_EH4_CallFilterFunc@8     1000c030 f   libvcruntimed:exsup4.obj
 0001:0000b050       @_EH4_TransferToHandler@8  1000c050 f   libvcruntimed:exsup4.obj
 0001:0000b070       @_EH4_GlobalUnwind2@8      1000c070 f   libvcruntimed:exsup4.obj
 0001:0000b090       @_EH4_LocalUnwind@16       1000c090 f   libvcruntimed:exsup4.obj
 0001:0000b0c0       ___except_validate_context_record 1000c0c0 f   libvcruntimed:jbcxrval.obj
 0001:0000b110       ___except_validate_jump_buffer 1000c110 f   libvcruntimed:jbcxrval.obj
 0001:0000b130       ___except_validate_jump_buffer_common 1000c130 f i libvcruntimed:jbcxrval.obj
 0001:0000b190       ??$?0$00@DName@@QAE@PBDU?$StringLifeSelector@$00@@@Z 1000c190 f i libvcruntimed:undname.obj
 0001:0000b1f0       ??$?0$00@pcharNode@@QAE@PBDHU?$StringLifeSelector@$00@@@Z 1000c1f0 f i libvcruntimed:undname.obj
 0001:0000b230       ??$?0$01@DName@@QAE@PBDU?$StringLifeSelector@$01@@@Z 1000c230 f i libvcruntimed:undname.obj
 0001:0000b290       ??$?0$01@pcharNode@@QAE@PBDHU?$StringLifeSelector@$01@@@Z 1000c290 f i libvcruntimed:undname.obj
 0001:0000b310       ??$?0$0A@@DName@@QAE@PBDU?$StringLifeSelector@$0A@@@@Z 1000c310 f i libvcruntimed:undname.obj
 0001:0000b370       ??$?0$0A@@pcharNode@@QAE@PBDHU?$StringLifeSelector@$0A@@@@Z 1000c370 f i libvcruntimed:undname.obj
 0001:0000b3f0       ??$?0_K$0A@@?$optional@_K@std@@QAE@$$QA_K@Z 1000c3f0 f i libvcruntimed:undname.obj
 0001:0000b420       ??$?0_K@?$_Optional_construct_base@_K@std@@QAE@Uin_place_t@1@$$QA_K@Z 1000c420 f i libvcruntimed:undname.obj
 0001:0000b450       ??$?0_K@?$_Optional_destruct_base@_K$00@std@@QAE@Uin_place_t@1@$$QA_K@Z 1000c450 f i libvcruntimed:undname.obj
 0001:0000b480       ??$append@VDNameNode@@@DName@@AAEXPBVDNameNode@@@Z 1000c480 f i libvcruntimed:undname.obj
 0001:0000b510       ??$append@VDNameStatusNode@@@DName@@AAEXPBVDNameStatusNode@@@Z 1000c510 f i libvcruntimed:undname.obj
 0001:0000b5a0       ??$append@VcharNode@@@DName@@AAEXPBVcharNode@@@Z 1000c5a0 f i libvcruntimed:undname.obj
 0001:0000b630       ??$append@VpDNameNode@@@DName@@AAEXPBVpDNameNode@@@Z 1000c630 f i libvcruntimed:undname.obj
 0001:0000b6c0       ??$append@VpcharNode@@@DName@@AAEXPBVpcharNode@@@Z 1000c6c0 f i libvcruntimed:undname.obj
 0001:0000b750       ??$doPchar@$00@DName@@AAEXPBDH@Z 1000c750 f i libvcruntimed:undname.obj
 0001:0000b860       ??$doPchar@$01@DName@@AAEXPBDH@Z 1000c860 f i libvcruntimed:undname.obj
 0001:0000b970       ??$doPchar@$0A@@DName@@AAEXPBDH@Z 1000c970 f i libvcruntimed:undname.obj
 0001:0000bba0       ??0?$_Optional_construct_base@_K@std@@QAE@XZ 1000cba0 f i libvcruntimed:undname.obj
 0001:0000bbc0       ??0?$_Optional_destruct_base@_K$00@std@@QAE@XZ 1000cbc0 f i libvcruntimed:undname.obj
 0001:0000bbe0       ??0?$optional@_K@std@@QAE@XZ 1000cbe0 f i libvcruntimed:undname.obj
 0001:0000bc00       ??0Block@_HeapManager@@QAE@XZ 1000cc00 f i libvcruntimed:undname.obj
 0001:0000bc20       ??0DName@@QAE@AAPBDD@Z     1000cc20 f   libvcruntimed:undname.obj
 0001:0000bd90       ??0DName@@QAE@ABUStringLiteral@@@Z 1000cd90 f   libvcruntimed:undname.obj
 0001:0000bde0       ??0DName@@QAE@ABV0@@Z      1000cde0 f i libvcruntimed:undname.obj
 0001:0000be10       ??0DName@@QAE@D@Z          1000ce10 f   libvcruntimed:undname.obj
 0001:0000be50       ??0DName@@QAE@PAV0@@Z      1000ce50 f   libvcruntimed:undname.obj
 0001:0000bf00       ??0DName@@QAE@W4DNameStatus@@@Z 1000cf00 f   libvcruntimed:undname.obj
 0001:0000bfa0       ??0DName@@QAE@XZ           1000cfa0 f i libvcruntimed:undname.obj
 0001:0000bfd0       ??0DName@@QAE@_J@Z         1000cfd0 f   libvcruntimed:undname.obj
 0001:0000c0c0       ??0DName@@QAE@_K@Z         1000d0c0 f   libvcruntimed:undname.obj
 0001:0000c170       ??0DNameNode@@IAE@XZ       1000d170 f i libvcruntimed:undname.obj
 0001:0000c190       ??0Replicator@@QAE@XZ      1000d190 f i libvcruntimed:undname.obj
 0001:0000c1f0       ??0UnDecorator@@QAE@PBDP6APADJ@ZK@Z 1000d1f0 f i libvcruntimed:undname.obj
 0001:0000c270       ??0_Nontrivial_dummy_type@std@@QAE@XZ 1000d270 f i libvcruntimed:undname.obj
 0001:0000c280       ??0charNode@@QAE@D@Z       1000d280 f i libvcruntimed:undname.obj
 0001:0000c2b0       ??0pDNameNode@@QAE@PAVDName@@@Z 1000d2b0 f   libvcruntimed:undname.obj
 0001:0000c310       ??0pairNode@@QAE@PBVDNameNode@@0@Z 1000d310 f i libvcruntimed:undname.obj
 0001:0000c370       ??2@YAPAXIAAV_HeapManager@@H@Z 1000d370 f   libvcruntimed:undname.obj
 0001:0000c3b0       ??4DName@@QAEAAV0@ABUStringLiteral@@@Z 1000d3b0 f   libvcruntimed:undname.obj
 0001:0000c3f0       ??4DName@@QAEAAV0@ABV0@@Z  1000d3f0 f   libvcruntimed:undname.obj
 0001:0000c420       ??4DName@@QAEAAV0@D@Z      1000d420 f i libvcruntimed:undname.obj
 0001:0000c450       ??4DName@@QAEAAV0@PAV0@@Z  1000d450 f   libvcruntimed:undname.obj
 0001:0000c4f0       ??4DName@@QAEAAV0@W4DNameStatus@@@Z 1000d4f0 f   libvcruntimed:undname.obj
 0001:0000c570       ??AReplicator@@QBE?AVDName@@H@Z 1000d570 f   libvcruntimed:undname.obj
 0001:0000c5e0       ??B?$optional@_K@std@@QBE_NXZ 1000d5e0 f i libvcruntimed:undname.obj
 0001:0000c600       ??D?$_Optional_construct_base@_K@std@@QGAEAA_KXZ 1000d600 f i libvcruntimed:undname.obj
 0001:0000c670       ??H@YA?AVDName@@ABUStringLiteral@@ABV0@@Z 1000d670 f i libvcruntimed:undname.obj
 0001:0000c6a0       ??H@YA?AVDName@@DABV0@@Z   1000d6a0 f i libvcruntimed:undname.obj
 0001:0000c6d0       ??H@YA?AVDName@@W4DNameStatus@@ABV0@@Z 1000d6d0 f i libvcruntimed:undname.obj
 0001:0000c700       ??HDName@@QBE?AV0@ABUStringLiteral@@@Z 1000d700 f   libvcruntimed:undname.obj
 0001:0000c730       ??HDName@@QBE?AV0@ABV0@@Z  1000d730 f   libvcruntimed:undname.obj
 0001:0000c760       ??HDName@@QBE?AV0@D@Z      1000d760 f   libvcruntimed:undname.obj
 0001:0000c790       ??HDName@@QBE?AV0@PAV0@@Z  1000d790 f   libvcruntimed:undname.obj
 0001:0000c7c0       ??HDName@@QBE?AV0@W4DNameStatus@@@Z 1000d7c0 f   libvcruntimed:undname.obj
 0001:0000c7f0       ??HStringLiteral@@QBE?AU0@H@Z 1000d7f0 f i libvcruntimed:undname.obj
 0001:0000c820       ??YDName@@QAEAAV0@ABUStringLiteral@@@Z 1000d820 f   libvcruntimed:undname.obj
 0001:0000c8c0       ??YDName@@QAEAAV0@ABV0@@Z  1000d8c0 f   libvcruntimed:undname.obj
 0001:0000c960       ??YDName@@QAEAAV0@D@Z      1000d960 f   libvcruntimed:undname.obj
 0001:0000c9f0       ??YDName@@QAEAAV0@PAV0@@Z  1000d9f0 f   libvcruntimed:undname.obj
 0001:0000cab0       ??YDName@@QAEAAV0@W4DNameStatus@@@Z 1000dab0 f   libvcruntimed:undname.obj
 0001:0000cb20       ??YReplicator@@QAEAAV0@ABVDName@@@Z 1000db20 f   libvcruntimed:undname.obj
 0001:0000cbb0       ??_5DName@@QAEAAV0@ABV0@@Z 1000dbb0 f   libvcruntimed:undname.obj
 0001:0000cc10       ??__K_l@@YA?AUStringLiteral@@PBDI@Z 1000dc10 f i libvcruntimed:undname.obj
 0001:0000cc30       ?Constructor@_HeapManager@@QAEXP6APAXI@ZP6AXPAX@Z@Z 1000dc30 f i libvcruntimed:undname.obj
 0001:0000cc70       ?Destructor@_HeapManager@@QAEXXZ 1000dc70 f i libvcruntimed:undname.obj
 0001:0000cce0       ?UScore@UnDecorator@@SA?AUStringLiteral@@W4Tokens@@@Z 1000dce0 f   libvcruntimed:undname.obj
 0001:0000cd30       ?composeDeclaration@UnDecorator@@CA?AVDName@@ABV2@@Z 1000dd30 f i libvcruntimed:undname.obj
 0001:0000ed00       ?doAccessSpecifiers@UnDecorator@@SAHXZ 1000fd00 f i libvcruntimed:undname.obj
 0001:0000ed30       ?doAllocationLanguage@UnDecorator@@SAHXZ 1000fd30 f i libvcruntimed:undname.obj
 0001:0000ed60       ?doAllocationModel@UnDecorator@@SAHXZ 1000fd60 f i libvcruntimed:undname.obj
 0001:0000ed90       ?doEcsu@UnDecorator@@SAHXZ 1000fd90 f i libvcruntimed:undname.obj
 0001:0000edc0       ?doEllipsis@UnDecorator@@SAHXZ 1000fdc0 f i libvcruntimed:undname.obj
 0001:0000edf0       ?doFunctionReturns@UnDecorator@@SAHXZ 1000fdf0 f i libvcruntimed:undname.obj
 0001:0000ee20       ?doMSKeywords@UnDecorator@@SAHXZ 1000fe20 f i libvcruntimed:undname.obj
 0001:0000ee50       ?doMemberTypes@UnDecorator@@SAHXZ 1000fe50 f i libvcruntimed:undname.obj
 0001:0000ee80       ?doNameOnly@UnDecorator@@SAHXZ 1000fe80 f i libvcruntimed:undname.obj
 0001:0000ee90       ?doNoIdentCharCheck@UnDecorator@@SAHXZ 1000fe90 f i libvcruntimed:undname.obj
 0001:0000eea0       ?doPchar@DName@@AAEXD@Z    1000fea0 f   libvcruntimed:undname.obj
 0001:0000ef10       ?doPtr64@UnDecorator@@SAHXZ 1000ff10 f i libvcruntimed:undname.obj
 0001:0000ef40       ?doRestrictionSpec@UnDecorator@@SAHXZ 1000ff40 f i libvcruntimed:undname.obj
 0001:0000ef70       ?doThisTypes@UnDecorator@@SAHXZ 1000ff70 f i libvcruntimed:undname.obj
 0001:0000efa0       ?doThrowTypes@UnDecorator@@SAHXZ 1000ffa0 f i libvcruntimed:undname.obj
 0001:0000efd0       ?doTypeOnly@UnDecorator@@SAHXZ 1000ffd0 f i libvcruntimed:undname.obj
 0001:0000efe0       ?doUnderScore@UnDecorator@@SAHXZ 1000ffe0 f i libvcruntimed:undname.obj
 0001:0000f010       ?getAddressOf@UnDecorator@@CA?AVDName@@XZ 10010010 f   libvcruntimed:undname.obj
 0001:0000f090       ?getArgumentList@UnDecorator@@CA?AVDName@@XZ 10010090 f   libvcruntimed:undname.obj
 0001:0000f1d0       ?getArgumentTypes@UnDecorator@@CA?AVDName@@XZ 100101d0 f   libvcruntimed:undname.obj
 0001:0000f380       ?getArrayAccess@UnDecorator@@CA?AVDName@@XZ 10010380 f   libvcruntimed:undname.obj
 0001:0000f410       ?getArrayObject@UnDecorator@@CA?AVDName@@XZ 10010410 f   libvcruntimed:undname.obj
 0001:0000f510       ?getArrayType@UnDecorator@@CA?AVDName@@ABV2@@Z 10010510 f i libvcruntimed:undname.obj
 0001:0000f7b0       ?getBasedType@UnDecorator@@CA?AVDName@@XZ 100107b0 f   libvcruntimed:undname.obj
 0001:0000f8d0       ?getBasicDataType@UnDecorator@@CA?AVDName@@ABV2@@Z 100108d0 f   libvcruntimed:undname.obj
 0001:000102a0       ?getCHPEName@UnDecorator@@QAEPADPADH@Z 100112a0 f i libvcruntimed:undname.obj
 0001:00010400       ?getCallIndex@UnDecorator@@CA?AVDName@@XZ 10011400 f i libvcruntimed:undname.obj
 0001:00010420       ?getCallingConvention@UnDecorator@@CA?AVDName@@XZ 10011420 f   libvcruntimed:undname.obj
 0001:00010670       ?getDataIndirectType@UnDecorator@@CA?AVDName@@ABV2@W4IndirectionKind@@0H@Z 10011670 f   libvcruntimed:undname.obj
 0001:00010fa0       ?getDataIndirectType@UnDecorator@@CA?AVDName@@XZ 10011fa0 f i libvcruntimed:undname.obj
 0001:00010fe0       ?getDataType@UnDecorator@@CA?AVDName@@PAV2@@Z 10011fe0 f   libvcruntimed:undname.obj
 0001:00011100       ?getDecoratedName@UnDecorator@@CA?AVDName@@XZ 10012100 f   libvcruntimed:undname.obj
 0001:00011530       ?getDimension@UnDecorator@@CA?AVDName@@_N@Z 10012530 f   libvcruntimed:undname.obj
 0001:00011770       ?getDispatchTarget@UnDecorator@@CA?AVDName@@XZ 10012770 f   libvcruntimed:undname.obj
 0001:000117f0       ?getDisplacement@UnDecorator@@CA?AVDName@@XZ 100127f0 f i libvcruntimed:undname.obj
 0001:00011810       ?getECSUDataType@UnDecorator@@CA?AVDName@@XZ 10012810 f   libvcruntimed:undname.obj
 0001:00011af0       ?getECSUName@UnDecorator@@CA?AVDName@@XZ 10012af0 f i libvcruntimed:undname.obj
 0001:00011b10       ?getEnumType@UnDecorator@@CA?AVDName@@XZ 10012b10 f i libvcruntimed:undname.obj
 0001:00011cc0       ?getExtendedDataIndirectType@UnDecorator@@CA?AVDName@@AAW4IndirectionKind@@AA_NH@Z 10012cc0 f   libvcruntimed:undname.obj
 0001:00011f30       ?getExternalDataType@UnDecorator@@CA?AVDName@@ABV2@@Z 10012f30 f i libvcruntimed:undname.obj
 0001:00011fc0       ?getFloatingPoint@UnDecorator@@CA?AVDName@@H@Z 10012fc0 f   libvcruntimed:undname.obj
 0001:00012100       ?getFunctionIndirectType@UnDecorator@@CA?AVDName@@ABV2@@Z 10013100 f   libvcruntimed:undname.obj
 0001:000125d0       ?getGuardNumber@UnDecorator@@CA?AVDName@@XZ 100135d0 f i libvcruntimed:undname.obj
 0001:000125f0       ?getLastChar@DName@@QBEDXZ 100135f0 f i libvcruntimed:undname.obj
 0001:00012630       ?getLastChar@DNameStatusNode@@UBEDXZ 10013630 f i libvcruntimed:undname.obj
 0001:00012670       ?getLastChar@charNode@@UBEDXZ 10013670 f i libvcruntimed:undname.obj
 0001:00012690       ?getLastChar@pDNameNode@@UBEDXZ 10013690 f i libvcruntimed:undname.obj
 0001:000126c0       ?getLastChar@pairNode@@UBEDXZ 100136c0 f i libvcruntimed:undname.obj
 0001:00012730       ?getLastChar@pcharNode@@UBEDXZ 10013730 f i libvcruntimed:undname.obj
 0001:00012770       ?getLexicalFrame@UnDecorator@@CA?AVDName@@XZ 10013770 f i libvcruntimed:undname.obj
 0001:000127b0       ?getMemberAccess@UnDecorator@@CA?AVDName@@XZ 100137b0 f   libvcruntimed:undname.obj
 0001:00012840       ?getMemoryWithBuffer@_HeapManager@@QAEPAXI@Z 10013840 f   libvcruntimed:undname.obj
 0001:00012930       ?getMemoryWithoutBuffer@_HeapManager@@QAEPAXI@Z 10013930 f   libvcruntimed:undname.obj
 0001:00012970       ?getNoexcept@UnDecorator@@CA?AVDName@@XZ 10013970 f   libvcruntimed:undname.obj
 0001:000129e0       ?getNumberOfDimensions@UnDecorator@@CAHXZ 100139e0 f   libvcruntimed:undname.obj
 0001:00012a90       ?getOperatorName@UnDecorator@@CA?AVDName@@_NPA_N@Z 10013a90 f i libvcruntimed:undname.obj
 0001:000134c0       ?getPointerToMember@UnDecorator@@CA?AVDName@@XZ 100144c0 f   libvcruntimed:undname.obj
 0001:000135a0       ?getPointerType@UnDecorator@@CA?AVDName@@ABV2@0@Z 100145a0 f i libvcruntimed:undname.obj
 0001:000135c0       ?getPointerTypeArray@UnDecorator@@CA?AVDName@@ABV2@0@Z 100145c0 f i libvcruntimed:undname.obj
 0001:000135e0       ?getPrimaryDataType@UnDecorator@@CA?AVDName@@ABV2@@Z 100145e0 f   libvcruntimed:undname.obj
 0001:00013a20       ?getPtrRefDataType@UnDecorator@@CA?AVDName@@ABV2@H@Z 10014a20 f   libvcruntimed:undname.obj
 0001:00013cb0       ?getPtrRefType@UnDecorator@@CA?AVDName@@ABV2@0W4IndirectionKind@@@Z 10014cb0 f   libvcruntimed:undname.obj
 0001:00013e40       ?getReferenceType@UnDecorator@@CA?AVDName@@ABV2@0W4IndirectionKind@@@Z 10014e40 f i libvcruntimed:undname.obj
 0001:00013e60       ?getRestrictionSpec@UnDecorator@@CA?AVDName@@XZ 10014e60 f   libvcruntimed:undname.obj
 0001:00014000       ?getReturnType@UnDecorator@@CA?AVDName@@PAV2@@Z 10015000 f   libvcruntimed:undname.obj
 0001:00014040       ?getScope@UnDecorator@@CA?AVDName@@XZ 10015040 f   libvcruntimed:undname.obj
 0001:00014590       ?getScopedName@UnDecorator@@CA?AVDName@@XZ 10015590 f   libvcruntimed:undname.obj
 0001:000146e0       ?getSignedDimension@UnDecorator@@CA?AVDName@@XZ 100156e0 f   libvcruntimed:undname.obj
 0001:00014750       ?getStorageConvention@UnDecorator@@CA?AVDName@@XZ 10015750 f i libvcruntimed:undname.obj
 0001:00014770       ?getString@DName@@QBEPADPAD0@Z 10015770 f i libvcruntimed:undname.obj
 0001:000147d0       ?getString@DName@@QBEPADPADH@Z 100157d0 f i libvcruntimed:undname.obj
 0001:00014860       ?getString@DNameStatusNode@@UBEPADPAD0@Z 10015860 f i libvcruntimed:undname.obj
 0001:000148a0       ?getString@charNode@@UBEPADPAD0@Z 100158a0 f i libvcruntimed:undname.obj
 0001:000148d0       ?getString@pDNameNode@@UBEPADPAD0@Z 100158d0 f i libvcruntimed:undname.obj
 0001:00014910       ?getString@pairNode@@UBEPADPAD0@Z 10015910 f i libvcruntimed:undname.obj
 0001:000149a0       ?getString@pcharNode@@UBEPADPAD0@Z 100159a0 f i libvcruntimed:undname.obj
 0001:000149d0       ?getStringEncoding@UnDecorator@@CA?AVDName@@W4PrefixKind@@H@Z 100159d0 f   libvcruntimed:undname.obj
 0001:00014ac0       ?getStringHelper@@YAPADPADPBD1H@Z 10015ac0 f i libvcruntimed:undname.obj
 0001:00014b00       ?getStringObject@UnDecorator@@CA?AVDName@@XZ 10015b00 f   libvcruntimed:undname.obj
 0001:00014b90       ?getSymbolName@UnDecorator@@CA?AVDName@@XZ 10015b90 f i libvcruntimed:undname.obj
 0001:00014c10       ?getTemplateArgumentList@UnDecorator@@CA?AVDName@@XZ 10015c10 f   libvcruntimed:undname.obj
 0001:00014ee0       ?getTemplateName@UnDecorator@@CA?AVDName@@_N@Z 10015ee0 f   libvcruntimed:undname.obj
 0001:00015090       ?getTemplateNonTypeArgument@UnDecorator@@CA?AVDName@@XZ 10016090 f   libvcruntimed:undname.obj
 0001:000156c0       ?getTemplateTypeArgument@UnDecorator@@CA?AVDName@@XZ 100166c0 f   libvcruntimed:undname.obj
 0001:00015870       ?getThisType@UnDecorator@@CA?AVDName@@XZ 10016870 f i libvcruntimed:undname.obj
 0001:000158b0       ?getThrowTypes@UnDecorator@@CA?AVDName@@XZ 100168b0 f   libvcruntimed:undname.obj
 0001:000158e0       ?getTypeEncoding@UnDecorator@@CAHXZ 100168e0 f i libvcruntimed:undname.obj
 0001:00016350       ?getUndecoratedName@UnDecorator@@QAEPADPADH@Z 10017350 f i libvcruntimed:undname.obj
 0001:000164b0       ?getUnionObject@UnDecorator@@CA?AVDName@@XZ 100174b0 f   libvcruntimed:undname.obj
 0001:00016580       ?getVCallThunkType@UnDecorator@@CA?AVDName@@XZ 10017580 f i libvcruntimed:undname.obj
 0001:000165f0       ?getValue@UnDecorator@@CA?AV?$optional@_K@std@@XZ 100175f0 f   libvcruntimed:undname.obj
 0001:000166b0       ?getValueObject@UnDecorator@@CA?AVDName@@XZ 100176b0 f   libvcruntimed:undname.obj
 0001:000168b0       ?getVbTableType@UnDecorator@@CA?AVDName@@ABV2@@Z 100178b0 f i libvcruntimed:undname.obj
 0001:000168d0       ?getVdispMapType@UnDecorator@@CA?AVDName@@ABV2@@Z 100178d0 f i libvcruntimed:undname.obj
 0001:00016940       ?getVfTableType@UnDecorator@@CA?AVDName@@ABV2@@Z 10017940 f i libvcruntimed:undname.obj
 0001:00016b30       ?getZName@UnDecorator@@CA?AVDName@@_N0@Z 10017b30 f   libvcruntimed:undname.obj
 0001:00016e40       ?get_current_character_and_increment_buffer@UnDecorator@@CADXZ 10017e40 f i libvcruntimed:undname.obj
 0001:00016e70       ?haveTemplateParameters@UnDecorator@@SAHXZ 10017e70 f i libvcruntimed:undname.obj
 0001:00016e80       ?increment_buffer@UnDecorator@@CA_NI@Z 10017e80 f i libvcruntimed:undname.obj
 0001:00016ed0       ?increment_buffer_no_check@UnDecorator@@CAXI@Z 10017ed0 f i libvcruntimed:undname.obj
 0001:00016f10       ?increment_buffer_no_check@UnDecorator@@CAXXZ 10017f10 f i libvcruntimed:undname.obj
 0001:00016f30       ?isArray@DName@@QBEHXZ     10017f30 f i libvcruntimed:undname.obj
 0001:00016f50       ?isComArray@DName@@QBEHXZ  10017f50 f i libvcruntimed:undname.obj
 0001:00016f70       ?isEmpty@DName@@QBEHXZ     10017f70 f i libvcruntimed:undname.obj
 0001:00016fa0       ?isFull@Replicator@@QBEHXZ 10017fa0 f i libvcruntimed:undname.obj
 0001:00016fd0       ?isNoTE@DName@@QBEHXZ      10017fd0 f i libvcruntimed:undname.obj
 0001:00016ff0       ?isPinPtr@DName@@QBEHXZ    10017ff0 f i libvcruntimed:undname.obj
 0001:00017010       ?isPtrRef@DName@@QBEHXZ    10018010 f i libvcruntimed:undname.obj
 0001:00017030       ?isUDC@DName@@QBEHXZ       10018030 f i libvcruntimed:undname.obj
 0001:00017070       ?isUDTThunk@DName@@QBEHXZ  10018070 f i libvcruntimed:undname.obj
 0001:000170b0       ?isVCallThunk@DName@@QBEHXZ 100180b0 f i libvcruntimed:undname.obj
 0001:000170d0       ?isValid@DName@@QBEHXZ     100180d0 f i libvcruntimed:undname.obj
 0001:00017110       ?length@DName@@QBEHXZ      10018110 f i libvcruntimed:undname.obj
 0001:00017150       ?length@DNameStatusNode@@UBEHXZ 10018150 f i libvcruntimed:undname.obj
 0001:00017170       ?length@charNode@@UBEHXZ   10018170 f i libvcruntimed:undname.obj
 0001:00017180       ?length@pDNameNode@@UBEHXZ 10018180 f i libvcruntimed:undname.obj
 0001:000171b0       ?length@pairNode@@UBEHXZ   100181b0 f i libvcruntimed:undname.obj
 0001:00017220       ?length@pcharNode@@UBEHXZ  10018220 f i libvcruntimed:undname.obj
 0001:00017240       ?make@DNameStatusNode@@SAPBV1@W4DNameStatus@@@Z 10018240 f i libvcruntimed:undname.obj
 0001:00017270       ?parseDecoratedName@UnDecorator@@CA?AVDName@@XZ 10018270 f   libvcruntimed:undname.obj
 0001:00017400       ?raw_length@DNameStatusNode@@UBEHXZ 10018400 f i libvcruntimed:undname.obj
 0001:00017420       ?raw_length@charNode@@UBEHXZ 10018420 f i libvcruntimed:undname.obj
 0001:00017440       ?raw_length@pDNameNode@@UBEHXZ 10018440 f i libvcruntimed:undname.obj
 0001:00017450       ?raw_length@pairNode@@UBEHXZ 10018450 f i libvcruntimed:undname.obj
 0001:00017470       ?raw_length@pcharNode@@UBEHXZ 10018470 f i libvcruntimed:undname.obj
 0001:00017490       ?setIsArray@DName@@QAEXXZ  10018490 f i libvcruntimed:undname.obj
 0001:000174b0       ?setIsComArray@DName@@QAEXXZ 100184b0 f i libvcruntimed:undname.obj
 0001:000174d0       ?setIsNoTE@DName@@QAEXXZ   100184d0 f i libvcruntimed:undname.obj
 0001:000174f0       ?setIsPinPtr@DName@@QAEXXZ 100184f0 f i libvcruntimed:undname.obj
 0001:00017510       ?setIsUDC@DName@@QAEXXZ    10018510 f i libvcruntimed:undname.obj
 0001:00017540       ?setIsVCallThunk@DName@@QAEXXZ 10018540 f i libvcruntimed:undname.obj
 0001:00017560       ?setPtrRef@DName@@QAEAAV1@XZ 10018560 f i libvcruntimed:undname.obj
 0001:00017580       ?status@DName@@QBE?AW4DNameStatus@@XZ 10018580 f i libvcruntimed:undname.obj
 0001:00017680       ___unDName                 10018680 f   libvcruntimed:undname.obj
 0001:000176b0       ___unDNameEx               100186b0 f   libvcruntimed:undname.obj
 0001:00017780       _snprintf                  10018780 f i libvcruntimed:undname.obj
 0001:000177c0       _unDNameGenerateCHPE       100187c0 f   libvcruntimed:undname.obj
 0001:00017820       _vsnprintf                 10018820 f i libvcruntimed:undname.obj
 0001:00017870       ??$?RU__vcrt_ptd@@@__crt_internal_free_policy@@QBEXQBU__vcrt_ptd@@@Z 10018870 f i libvcruntimed:per_thread_data.obj
 0001:00017890       ??0?$__crt_unique_heap_ptr@U__vcrt_ptd@@U__crt_internal_free_policy@@@@QAE@QAU__vcrt_ptd@@@Z 10018890 f i libvcruntimed:per_thread_data.obj
 0001:000178d0       ??1?$__crt_unique_heap_ptr@U__vcrt_ptd@@U__crt_internal_free_policy@@@@QAE@XZ 100188d0 f i libvcruntimed:per_thread_data.obj
 0001:00017910       ??B?$__crt_unique_heap_ptr@U__vcrt_ptd@@U__crt_internal_free_policy@@@@QBE_NXZ 10018910 f i libvcruntimed:per_thread_data.obj
 0001:00017930       ?detach@?$__crt_unique_heap_ptr@U__vcrt_ptd@@U__crt_internal_free_policy@@@@QAEPAU__vcrt_ptd@@XZ 10018930 f i libvcruntimed:per_thread_data.obj
 0001:00017960       ?get@?$__crt_unique_heap_ptr@U__vcrt_ptd@@U__crt_internal_free_policy@@@@QBEPAU__vcrt_ptd@@XZ 10018960 f i libvcruntimed:per_thread_data.obj
 0001:00017970       ?is_valid@?$__crt_unique_heap_ptr@U__vcrt_ptd@@U__crt_internal_free_policy@@@@QBE_NXZ 10018970 f i libvcruntimed:per_thread_data.obj
 0001:000179a0       ?release@?$__crt_unique_heap_ptr@U__vcrt_ptd@@U__crt_internal_free_policy@@@@QAEXXZ 100189a0 f i libvcruntimed:per_thread_data.obj
 0001:00017a00       ___vcrt_freefls@4          10018a00 f   libvcruntimed:per_thread_data.obj
 0001:00017a30       ___vcrt_freeptd_for_this_thread 10018a30 f   libvcruntimed:per_thread_data.obj
 0001:00017a70       ___vcrt_getptd             10018a70 f   libvcruntimed:per_thread_data.obj
 0001:00017a90       ___vcrt_getptd_noexit      10018a90 f   libvcruntimed:per_thread_data.obj
 0001:00017bf0       ___vcrt_getptd_noinit      10018bf0 f   libvcruntimed:per_thread_data.obj
 0001:00017c50       ___vcrt_initialize_ptd     10018c50 f   libvcruntimed:per_thread_data.obj
 0001:00017ca0       ___vcrt_uninitialize_ptd   10018ca0 f   libvcruntimed:per_thread_data.obj
 0001:00017cd0       ___vcrt_initialize_locks   10018cd0 f   libvcruntimed:locks.obj
 0001:00017d30       ___vcrt_lock               10018d30 f   libvcruntimed:locks.obj
 0001:00017d50       ___vcrt_uninitialize_locks 10018d50 f   libvcruntimed:locks.obj
 0001:00017da0       ___vcrt_unlock             10018da0 f   libvcruntimed:locks.obj
 0001:00017dc0       __global_unwind2           10018dc0 f   libvcruntimed:exsup.obj
 0001:00017e40       __local_unwind2            10018e40 f   libvcruntimed:exsup.obj
 0001:00017ee0       __abnormal_termination     10018ee0 f   libvcruntimed:exsup.obj
 0001:00017f10       __NLG_Notify1              10018f10 f   libvcruntimed:exsup.obj
 0001:00017f20       __NLG_Notify               10018f20 f   libvcruntimed:exsup.obj
 0001:00017f37       __NLG_Dispatch             10018f37     libvcruntimed:exsup.obj
 0001:00017f37       __NLG_Dispatch2            10018f37     libvcruntimed:exsup.obj
 0001:00017f40       __NLG_Call                 10018f40 f   libvcruntimed:exsup.obj
 0001:00017f42       __NLG_Return2              10018f42     libvcruntimed:exsup.obj
 0001:00017f50       ??$__crt_interlocked_exchange_pointer@$$A6AXXZP6AXXZ@@YAP6AXXZPDS6AXXZQ6AXXZ@Z 10018f50 f i libvcruntimed:purevirt.obj
 0001:00017f60       ??$__crt_interlocked_read_pointer@$$A6AXXZ@@YAP6AXXZPDS6AXXZ@Z 10018f60 f i libvcruntimed:purevirt.obj
 0001:00017f80       __get_purecall_handler     10018f80 f   libvcruntimed:purevirt.obj
 0001:00017fa0       __purecall                 10018fa0 f   libvcruntimed:purevirt.obj
 0001:00017fe0       __set_purecall_handler     10018fe0 f   libvcruntimed:purevirt.obj
 0001:00018000       ??$?0AAViterator@TryBlockMap@__FrameHandler3@@AAV012@$0A@@?$pair@Viterator@TryBlockMap@__FrameHandler3@@V123@@std@@QAE@AAViterator@TryBlockMap@__FrameHandler3@@0@Z 10019000 f i libvcruntimed:trnsctrl.obj
 0001:00018040       ??0iterator@TryBlockMap@__FrameHandler3@@QAE@AAV12@I@Z 10019040 f i libvcruntimed:trnsctrl.obj
 0001:00018070       ?GetRangeOfTrysToCheck@__FrameHandler3@@SA?AU?$pair@Viterator@TryBlockMap@__FrameHandler3@@V123@@std@@AAVTryBlockMap@1@HPAXPBU_s_FuncInfo@@H@Z 10019070 f   libvcruntimed:trnsctrl.obj
 0001:00018160       ?_CallCatchBlock2@@YAPAXPAUEHRegistrationNode@@PBU_s_FuncInfo@@PAXHK@Z 10019160 f   libvcruntimed:trnsctrl.obj
 0001:000181d0       ?_CallSETranslator@@YAHPAUEHExceptionRecord@@PAUEHRegistrationNode@@PAX2PBU_s_FuncInfo@@H1@Z 100191d0 f   libvcruntimed:trnsctrl.obj
 0001:000182e0       ?_JumpToContinuation@@YGXPAXPAUEHRegistrationNode@@@Z 100192e0 f   libvcruntimed:trnsctrl.obj
 0001:00018320       ?_UnwindNestedFrames@@YGXPAUEHRegistrationNode@@PAUEHExceptionRecord@@@Z 10019320 f   libvcruntimed:trnsctrl.obj
 0001:00018380       __CatchGuardHandler        10019380 f   libvcruntimed:trnsctrl.obj
 0001:000183d0       __CreateFrameInfo          100193d0 f   libvcruntimed:trnsctrl.obj
 0001:00018400       __FindAndUnlinkFrame       10019400 f   libvcruntimed:trnsctrl.obj
 0001:00018470       __TranslatorGuardHandler   10019470 f   libvcruntimed:trnsctrl.obj
 0001:00018520       ___CxxFrameHandler         10019520 f   libvcruntimed:trnsctrl.obj
 0001:00018560       ___CxxFrameHandler2        10019560 f   libvcruntimed:trnsctrl.obj
 0001:000185a0       ___CxxFrameHandler3        100195a0 f   libvcruntimed:trnsctrl.obj
 0001:000185e0       ___CxxLongjmpUnwind@4      100195e0 f   libvcruntimed:trnsctrl.obj
 0001:00018620       ??$__crt_interlocked_exchange_pointer@UHINSTANCE__@@PAU1@@@YAPAUHINSTANCE__@@PDSAU0@QAU0@@Z 10019620 f i libvcruntimed:winapi_downlevel.obj
 0001:00018630       ??$__crt_interlocked_exchange_pointer@UHINSTANCE__@@PAX@@YAPAUHINSTANCE__@@PDSAU0@QAX@Z 10019630 f i libvcruntimed:winapi_downlevel.obj
 0001:00018640       ??$__crt_interlocked_exchange_pointer@XPAX@@YAPAXPDSAXQAX@Z 10019640 f i libvcruntimed:winapi_downlevel.obj
 0001:00018650       ??$__crt_interlocked_read_pointer@UHINSTANCE__@@@@YAPAUHINSTANCE__@@PDSAU0@@Z 10019650 f i libvcruntimed:winapi_downlevel.obj
 0001:00018670       ??$__crt_interlocked_read_pointer@X@@YAPAXPDSAX@Z 10019670 f i libvcruntimed:winapi_downlevel.obj
 0001:00018a50       ___vcrt_FlsAlloc           10019a50 f   libvcruntimed:winapi_downlevel.obj
 0001:00018a90       ___vcrt_FlsFree            10019a90 f   libvcruntimed:winapi_downlevel.obj
 0001:00018ad0       ___vcrt_FlsGetValue        10019ad0 f   libvcruntimed:winapi_downlevel.obj
 0001:00018b10       ___vcrt_FlsSetValue        10019b10 f   libvcruntimed:winapi_downlevel.obj
 0001:00018b60       ___vcrt_InitializeCriticalSectionEx 10019b60 f   libvcruntimed:winapi_downlevel.obj
 0001:00019720       ??$TypeMatchHelper@V__FrameHandler3@@@@YAHPBU_s_HandlerType@@PBU_s_CatchableType@@PBU_s_ThrowInfo@@@Z 1001a720 f i libvcruntimed:frame.obj
 0001:00019800       ??$__InternalCxxFrameHandler@V__FrameHandler3@@@@YA?AW4_EXCEPTION_DISPOSITION@@PAUEHExceptionRecord@@PAUEHRegistrationNode@@PAU_CONTEXT@@PAXPBU_s_FuncInfo@@H1E@Z 1001a800 f i libvcruntimed:frame.obj
 0001:000199c0       ??$__InternalCxxFrameHandlerWrapper@V__FrameHandler3@@@@YA?AW4_EXCEPTION_DISPOSITION@@PAUEHExceptionRecord@@PAUEHRegistrationNode@@PAU_CONTEXT@@PAXPBU_s_FuncInfo@@H1E@Z 1001a9c0 f i libvcruntimed:frame.obj
 0001:000199f0       ??0HandlerMap@__FrameHandler3@@QAE@PBU_s_TryBlockMapEntry@@II@Z 1001a9f0 f i libvcruntimed:frame.obj
 0001:00019a20       ??0TryBlockMap@__FrameHandler3@@QAE@PBU_s_FuncInfo@@I@Z 1001aa20 f i libvcruntimed:frame.obj
 0001:00019a50       ??0bad_exception@std@@QAE@ABV01@@Z 1001aa50 f i libvcruntimed:frame.obj
 0001:00019a80       ??0bad_exception@std@@QAE@XZ 1001aa80 f i libvcruntimed:frame.obj
 0001:00019ab0       ??0exception@std@@QAE@ABV01@@Z 1001aab0 f i libvcruntimed:frame.obj
 0001:00019af0       ??0exception@std@@QAE@QBDH@Z 1001aaf0 f i libvcruntimed:frame.obj
 0001:00019b20       ??0iterator@HandlerMap@__FrameHandler3@@QAE@AAV12@I@Z 1001ab20 f i libvcruntimed:frame.obj
 0001:00019b50       ??1bad_exception@std@@UAE@XZ 1001ab50 f i libvcruntimed:frame.obj
 0001:00019b70       ??1exception@std@@UAE@XZ   1001ab70 f i libvcruntimed:frame.obj
 0001:00019ba0       ??8iterator@HandlerMap@__FrameHandler3@@QBE_NABV012@@Z 1001aba0 f i libvcruntimed:frame.obj
 0001:00019be0       ??8type_info@@QBE_NABV0@@Z 1001abe0 f i libvcruntimed:frame.obj
 0001:00019c50       ??9iterator@HandlerMap@__FrameHandler3@@QBE_NABV012@@Z 1001ac50 f i libvcruntimed:frame.obj
 0001:00019c90       ??Diterator@HandlerMap@__FrameHandler3@@QAE?BU_s_HandlerType@@XZ 1001ac90 f i libvcruntimed:frame.obj
 0001:00019cd0       ??Diterator@TryBlockMap@__FrameHandler3@@QAE?BU_s_TryBlockMapEntry@@XZ 1001acd0 f i libvcruntimed:frame.obj
 0001:00019d20       ??Eiterator@HandlerMap@__FrameHandler3@@QAEAAV012@XZ 1001ad20 f i libvcruntimed:frame.obj
 0001:00019d40       ??Eiterator@TryBlockMap@__FrameHandler3@@QAEAAV012@XZ 1001ad40 f i libvcruntimed:frame.obj
 0001:00019d60       ??Miterator@TryBlockMap@__FrameHandler3@@QBE_NABV012@@Z 1001ad60 f i libvcruntimed:frame.obj
 0001:00019da0       ??_Ebad_exception@std@@UAEPAXI@Z 1001ada0 f i libvcruntimed:frame.obj
 0001:00019da0       ??_Gbad_exception@std@@UAEPAXI@Z 1001ada0 f i libvcruntimed:frame.obj
 0001:00019dd0       ??_Eexception@std@@UAEPAXI@Z 1001add0 f i libvcruntimed:frame.obj
 0001:00019dd0       ??_Gexception@std@@UAEPAXI@Z 1001add0 f i libvcruntimed:frame.obj
 0001:00019e00       ?BuildCatchObject@__FrameHandler3@@SAXPAUEHExceptionRecord@@PAXPBU_s_HandlerType@@PBU_s_CatchableType@@@Z 1001ae00 f   libvcruntimed:frame.obj
 0001:00019e20       ?BuildCatchObjectHelper@__FrameHandler3@@SAHPAUEHExceptionRecord@@PAXPBU_s_HandlerType@@PBU_s_CatchableType@@@Z 1001ae20 f   libvcruntimed:frame.obj
 0001:0001a1d0       ?FrameUnwindToEmptyState@__FrameHandler3@@SAXPAUEHRegistrationNode@@PAXPBU_s_FuncInfo@@@Z 1001b1d0 f   libvcruntimed:frame.obj
 0001:0001a1f0       ?FrameUnwindToState@__FrameHandler3@@SAXPAUEHRegistrationNode@@PAXPBU_s_FuncInfo@@H@Z 1001b1f0 f   libvcruntimed:frame.obj
 0001:0001a370       ?GetMaxState@__FrameHandler3@@SAHPAXPBU_s_FuncInfo@@@Z 1001b370 f i libvcruntimed:frame.obj
 0001:0001a490       ?TypeMatch@__FrameHandler3@@SAHPBU_s_HandlerType@@PBU_s_CatchableType@@PBU_s_ThrowInfo@@@Z 1001b490 f   libvcruntimed:frame.obj
 0001:0001a4b0       ?_CallMemberFunction1@@YGXQAX00@Z 1001b4b0 f i libvcruntimed:frame.obj
 0001:0001a4e0       ?_CallMemberFunction2@@YGXQAX00H@Z 1001b4e0 f i libvcruntimed:frame.obj
 0001:0001a510       ?begin@HandlerMap@__FrameHandler3@@QAE?AViterator@12@XZ 1001b510 f i libvcruntimed:frame.obj
 0001:0001a530       ?end@HandlerMap@__FrameHandler3@@QAE?AViterator@12@XZ 1001b530 f i libvcruntimed:frame.obj
 0001:0001a560       ?getESTypes@__FrameHandler3@@SAPBU_s_ESTypeList@@PBU_s_FuncInfo@@@Z 1001b560 f i libvcruntimed:frame.obj
 0001:0001a570       ?getLastEntry@HandlerMap@__FrameHandler3@@QAEPBU_s_HandlerType@@XZ 1001b570 f i libvcruntimed:frame.obj
 0001:0001a590       ?getMagicNum@__FrameHandler3@@SAIPBU_s_FuncInfo@@@Z 1001b590 f i libvcruntimed:frame.obj
 0001:0001a5a0       ?getNumTryBlocks@TryBlockMap@__FrameHandler3@@QAEIXZ 1001b5a0 f i libvcruntimed:frame.obj
 0001:0001a5c0       ?isEHs@__FrameHandler3@@SA_NPBU_s_FuncInfo@@@Z 1001b5c0 f i libvcruntimed:frame.obj
 0001:0001a5f0       ?isNoExcept@__FrameHandler3@@SA_NPBU_s_FuncInfo@@@Z 1001b5f0 f i libvcruntimed:frame.obj
 0001:0001a620       ?what@exception@std@@UBEPBDXZ 1001b620 f i libvcruntimed:frame.obj
 0001:0001a650       ___BuildCatchObject        1001b650 f   libvcruntimed:frame.obj
 0001:0001a670       ___BuildCatchObjectHelper  1001b670 f   libvcruntimed:frame.obj
 0001:0001a690       ___TypeMatch               1001b690 f   libvcruntimed:frame.obj
 0001:0001a6b0       ___vcrt_EncodePointer      1001b6b0 f i libvcruntimed:frame.obj
 0001:0001a6c0       __CallSettingFrame@12      1001b6c0 f   libvcruntimed:lowhelpr.obj
 0001:0001a6e7       __NLG_Return               1001b6e7     libvcruntimed:lowhelpr.obj
 0001:0001a740       __get_unexpected           1001b740 f   libvcruntimed:unexpected.obj
 0001:0001a760       _set_unexpected            1001b760 f   libvcruntimed:unexpected.obj
 0001:0001a790       _unexpected                1001b790 f   libvcruntimed:unexpected.obj
 0001:0001a7d0       _memmove                   1001b7d0 f   libvcruntimed:memmove.obj
 0001:0001ad50       ?GetCurrentState@__FrameHandler3@@SAHPAUEHRegistrationNode@@PAXPBU_s_FuncInfo@@@Z 1001bd50 f   libvcruntimed:ehstate.obj
 0001:0001ad80       ?SetState@__FrameHandler3@@SAXPAUEHRegistrationNode@@PBU_s_FuncInfo@@H@Z 1001bd80 f   libvcruntimed:ehstate.obj
 0001:0001ad90       ??$?RD@__crt_public_free_policy@@QBEXQBD@Z 1001bd90 f i libvcruntimed:std_exception.obj
 0001:0001adb0       ??0?$__crt_unique_heap_ptr@DU__crt_public_free_policy@@@@QAE@QAD@Z 1001bdb0 f i libvcruntimed:std_exception.obj
 0001:0001add0       ??1?$__crt_unique_heap_ptr@DU__crt_public_free_policy@@@@QAE@XZ 1001bdd0 f i libvcruntimed:std_exception.obj
 0001:0001adf0       ??B?$__crt_unique_heap_ptr@DU__crt_public_free_policy@@@@QBE_NXZ 1001bdf0 f i libvcruntimed:std_exception.obj
 0001:0001ae10       ?detach@?$__crt_unique_heap_ptr@DU__crt_public_free_policy@@@@QAEPADXZ 1001be10 f i libvcruntimed:std_exception.obj
 0001:0001ae40       ?get@?$__crt_unique_heap_ptr@DU__crt_public_free_policy@@@@QBEPADXZ 1001be40 f i libvcruntimed:std_exception.obj
 0001:0001ae50       ?is_valid@?$__crt_unique_heap_ptr@DU__crt_public_free_policy@@@@QBE_NXZ 1001be50 f i libvcruntimed:std_exception.obj
 0001:0001ae80       ?release@?$__crt_unique_heap_ptr@DU__crt_public_free_policy@@@@QAEXXZ 1001be80 f i libvcruntimed:std_exception.obj
 0001:0001aeb0       ___std_exception_copy      1001beb0 f   libvcruntimed:std_exception.obj
 0001:0001afb0       ___std_exception_destroy   1001bfb0 f   libvcruntimed:std_exception.obj
 0001:0001afe0       __CxxThrowException@8      1001bfe0 f   libvcruntimed:throw.obj
 0001:0001b090       ??$__crt_interlocked_read@J@@YAJPDJ@Z 1001c090 f i libucrtd:assert.obj
 0001:0001cbb0       ??$ftprintf@PAU_iobuf@@PBDABQBDABQBDABI@?$__crt_char_traits@D@@SAH$$QAPAU_iobuf@@$$QAPBDABQBD2ABI@Z 1001dbb0 f i libucrtd:assert.obj
 0001:0001cbe0       ??$ftprintf@PAU_iobuf@@PB_WABQB_WABQB_WABI@?$__crt_char_traits@_W@@SAH$$QAPAU_iobuf@@$$QAPB_WABQB_W2ABI@Z 1001dbe0 f i libucrtd:assert.obj
 0001:0001cc10       ??$get_module_file_name@AAPAUHINSTANCE__@@AAY0BAF@DK@?$__crt_char_traits@D@@SAKAAPAUHINSTANCE__@@AAY0BAF@D$$QAK@Z 1001dc10 f i libucrtd:assert.obj
 0001:0001cc30       ??$get_module_file_name@AAPAUHINSTANCE__@@AAY0BAF@_WK@?$__crt_char_traits@_W@@SAKAAPAUHINSTANCE__@@AAY0BAF@_W$$QAK@Z 1001dc30 f i libucrtd:assert.obj
 0001:0001cc50       ??$itot_s@ABIPADIH@?$__crt_char_traits@D@@SAHABI$$QAPAD$$QAI$$QAH@Z 1001dc50 f i libucrtd:assert.obj
 0001:0001cc80       ??$itot_s@ABIPA_WIH@?$__crt_char_traits@_W@@SAHABI$$QAPA_W$$QAI$$QAH@Z 1001dc80 f i libucrtd:assert.obj
 0001:0001ccb0       ??$show_message_box@AAY0CEA@DPBDJ@?$__crt_char_traits@D@@SAHAAY0CEA@D$$QAPBD$$QAJ@Z 1001dcb0 f i libucrtd:assert.obj
 0001:0001ccd0       ??$show_message_box@AAY0CEA@_WPB_WJ@?$__crt_char_traits@_W@@SAHAAY0CEA@_W$$QAPB_W$$QAJ@Z 1001dcd0 f i libucrtd:assert.obj
 0001:0001ccf0       ??$tcscat_s@ABQADABIAAPAD@?$__crt_char_traits@D@@SAHABQADABIAAPAD@Z 1001dcf0 f i libucrtd:assert.obj
 0001:0001cd20       ??$tcscat_s@ABQADABIABQBD@?$__crt_char_traits@D@@SAHABQADABIABQBD@Z 1001dd20 f i libucrtd:assert.obj
 0001:0001cd50       ??$tcscat_s@ABQADABIPBD@?$__crt_char_traits@D@@SAHABQADABI$$QAPBD@Z 1001dd50 f i libucrtd:assert.obj
 0001:0001cd80       ??$tcscat_s@ABQA_WABIAAPA_W@?$__crt_char_traits@_W@@SAHABQA_WABIAAPA_W@Z 1001dd80 f i libucrtd:assert.obj
 0001:0001cdb0       ??$tcscat_s@ABQA_WABIABQB_W@?$__crt_char_traits@_W@@SAHABQA_WABIABQB_W@Z 1001ddb0 f i libucrtd:assert.obj
 0001:0001cde0       ??$tcscat_s@ABQA_WABIPB_W@?$__crt_char_traits@_W@@SAHABQA_WABI$$QAPB_W@Z 1001dde0 f i libucrtd:assert.obj
 0001:0001ce10       ??$tcscpy_s@AAY0BAF@DIPBD@?$__crt_char_traits@D@@SAHAAY0BAF@D$$QAI$$QAPBD@Z 1001de10 f i libucrtd:assert.obj
 0001:0001ce30       ??$tcscpy_s@AAY0BAF@_WIPB_W@?$__crt_char_traits@_W@@SAHAAY0BAF@_W$$QAI$$QAPB_W@Z 1001de30 f i libucrtd:assert.obj
 0001:0001ce50       ??$tcscpy_s@ABQADABIPBD@?$__crt_char_traits@D@@SAHABQADABI$$QAPBD@Z 1001de50 f i libucrtd:assert.obj
 0001:0001ce80       ??$tcscpy_s@ABQA_WABIPB_W@?$__crt_char_traits@_W@@SAHABQA_WABI$$QAPB_W@Z 1001de80 f i libucrtd:assert.obj
 0001:0001ceb0       ??$tcslen@AAY0BAF@D@?$__crt_char_traits@D@@SAIAAY0BAF@D@Z 1001deb0 f i libucrtd:assert.obj
 0001:0001ced0       ??$tcslen@AAY0BAF@_W@?$__crt_char_traits@_W@@SAIAAY0BAF@_W@Z 1001ded0 f i libucrtd:assert.obj
 0001:0001cef0       ??$tcslen@ABQAD@?$__crt_char_traits@D@@SAIABQAD@Z 1001def0 f i libucrtd:assert.obj
 0001:0001cf10       ??$tcslen@ABQA_W@?$__crt_char_traits@_W@@SAIABQA_W@Z 1001df10 f i libucrtd:assert.obj
 0001:0001cf30       ??$tcslen@ABQBD@?$__crt_char_traits@D@@SAIABQBD@Z 1001df30 f i libucrtd:assert.obj
 0001:0001cf50       ??$tcslen@ABQB_W@?$__crt_char_traits@_W@@SAIABQB_W@Z 1001df50 f i libucrtd:assert.obj
 0001:0001cf70       ??$tcsncat_s@ABQADABIAAPBDI@?$__crt_char_traits@D@@SAHABQADABIAAPBD$$QAI@Z 1001df70 f i libucrtd:assert.obj
 0001:0001cfa0       ??$tcsncat_s@ABQADABIABQBDABI@?$__crt_char_traits@D@@SAHABQADABIABQBD1@Z 1001dfa0 f i libucrtd:assert.obj
 0001:0001cfd0       ??$tcsncat_s@ABQADABIPBDI@?$__crt_char_traits@D@@SAHABQADABI$$QAPBD$$QAI@Z 1001dfd0 f i libucrtd:assert.obj
 0001:0001d000       ??$tcsncat_s@ABQA_WABIAAPB_WI@?$__crt_char_traits@_W@@SAHABQA_WABIAAPB_W$$QAI@Z 1001e000 f i libucrtd:assert.obj
 0001:0001d030       ??$tcsncat_s@ABQA_WABIABQB_WABI@?$__crt_char_traits@_W@@SAHABQA_WABIABQB_W1@Z 1001e030 f i libucrtd:assert.obj
 0001:0001d060       ??$tcsncat_s@ABQA_WABIPB_WI@?$__crt_char_traits@_W@@SAHABQA_WABI$$QAPB_W$$QAI@Z 1001e060 f i libucrtd:assert.obj
 0001:0001d090       ??0__crt_stdio_stream@@QAE@QAU_iobuf@@@Z 1001e090 f i libucrtd:assert.obj
 0001:0001d280       ?get_flags@__crt_stdio_stream@@QBEJXZ 1001e280 f i libucrtd:assert.obj
 0001:0001d360       ?has_any_buffer@__crt_stdio_stream@@QBE_NXZ 1001e360 f i libucrtd:assert.obj
 0001:0001d380       ?has_any_of@__crt_stdio_stream@@QBE_NJ@Z 1001e380 f i libucrtd:assert.obj
 0001:0001d3c0       __assert                   1001e3c0 f   libucrtd:assert.obj
 0001:0001d3e0       __invoke_watson_if_error   1001e3e0 f i libucrtd:assert.obj
 0001:0001d410       __vfwprintf_l              1001e410 f i libucrtd:assert.obj
 0001:0001d440       __vswprintf_c_l            1001e440 f i libucrtd:assert.obj
 0001:0001d490       __wassert                  1001e490 f   libucrtd:assert.obj
 0001:0001d4b0       _fwprintf                  1001e4b0 f i libucrtd:assert.obj
 0001:0001d600       _swprintf                  1001e600 f i libucrtd:assert.obj
 0001:0001d640       ?get_doserrno@__crt_cached_ptd_host@@QAE@XZ 1001e640 f i libucrtd:errno.obj
 0001:0001d660       ?get_errno@__crt_cached_ptd_host@@QAE@XZ 1001e660 f i libucrtd:errno.obj
 0001:0001d680       ?set@?$cached@H@__crt_cached_ptd_host@@QAEHH@Z 1001e680 f i libucrtd:errno.obj
 0001:0001d6b0       ?set@?$cached@K@__crt_cached_ptd_host@@QAEKK@Z 1001e6b0 f i libucrtd:errno.obj
 0001:0001d6e0       ___acrt_errno_from_os_error 1001e6e0 f   libucrtd:errno.obj
 0001:0001d760       ___acrt_errno_map_os_error 1001e760 f   libucrtd:errno.obj
 0001:0001d790       ___acrt_errno_map_os_error_ptd 1001e790 f   libucrtd:errno.obj
 0001:0001d7e0       ___doserrno                1001e7e0 f   libucrtd:errno.obj
 0001:0001d810       __errno                    1001e810 f   libucrtd:errno.obj
 0001:0001d840       __get_doserrno             1001e840 f   libucrtd:errno.obj
 0001:0001d8d0       __get_errno                1001e8d0 f   libucrtd:errno.obj
 0001:0001d960       __set_doserrno             1001e960 f   libucrtd:errno.obj
 0001:0001d990       __set_errno                1001e990 f   libucrtd:errno.obj
 0001:0001d9c0       ??$?RPAU__crt_stdio_stream_data@@@__crt_internal_free_policy@@QBEXQBQAU__crt_stdio_stream_data@@@Z 1001e9c0 f i libucrtd:_file.obj
 0001:0001d9e0       ??0?$__crt_unique_heap_ptr@PAU__crt_stdio_stream_data@@U__crt_internal_free_policy@@@@QAE@QAPAU__crt_stdio_stream_data@@@Z 1001e9e0 f i libucrtd:_file.obj
 0001:0001da00       ??1?$__crt_unique_heap_ptr@PAU__crt_stdio_stream_data@@U__crt_internal_free_policy@@@@QAE@XZ 1001ea00 f i libucrtd:_file.obj
 0001:0001da20       ??C__crt_stdio_stream@@QBEPAU__crt_stdio_stream_data@@XZ 1001ea20 f i libucrtd:_file.obj
 0001:0001da40       ?detach@?$__crt_unique_heap_ptr@PAU__crt_stdio_stream_data@@U__crt_internal_free_policy@@@@QAEPAPAU__crt_stdio_stream_data@@XZ 1001ea40 f i libucrtd:_file.obj
 0001:0001da70       ?release@?$__crt_unique_heap_ptr@PAU__crt_stdio_stream_data@@U__crt_internal_free_policy@@@@QAEXXZ 1001ea70 f i libucrtd:_file.obj
 0001:0001daa0       ___acrt_initialize_stdio   1001eaa0 f   libucrtd:_file.obj
 0001:0001dc10       ___acrt_iob_func           1001ec10 f   libucrtd:_file.obj
 0001:0001dc20       ___acrt_uninitialize_stdio 1001ec20 f   libucrtd:_file.obj
 0001:0001dca0       __get_stream_buffer_pointers 1001eca0 f   libucrtd:_file.obj
 0001:0001dd80       __lock_file                1001ed80 f   libucrtd:_file.obj
 0001:0001ddb0       __unlock_file              1001edb0 f   libucrtd:_file.obj
 0001:0001dde0       ??$?0ABV?$stream_output_adapter@D@__crt_stdio_output@@AB_KABQBDAAV__crt_cached_ptd_host@@ABQAD@?$format_validation_base@DV?$stream_output_adapter@D@__crt_stdio_output@@@__crt_stdio_output@@IAE@ABV?$stream_output_adapter@D@1@AB_KABQBDAAV__crt_cached_ptd_host@@ABQAD@Z 1001ede0 f i libucrtd:output.obj
 0001:0001de10       ??$?0ABV?$stream_output_adapter@D@__crt_stdio_output@@AB_KABQBDAAV__crt_cached_ptd_host@@ABQAD@?$positional_parameter_base@DV?$stream_output_adapter@D@__crt_stdio_output@@@__crt_stdio_output@@IAE@ABV?$stream_output_adapter@D@1@AB_KABQBDAAV__crt_cached_ptd_host@@ABQAD@Z 1001ee10 f i libucrtd:output.obj
 0001:0001de90       ??$?0ABV?$stream_output_adapter@D@__crt_stdio_output@@AB_KABQBDAAV__crt_cached_ptd_host@@ABQAD@?$standard_base@DV?$stream_output_adapter@D@__crt_stdio_output@@@__crt_stdio_output@@IAE@ABV?$stream_output_adapter@D@1@AB_KABQBDAAV__crt_cached_ptd_host@@ABQAD@Z 1001ee90 f i libucrtd:output.obj
 0001:0001dee0       ??$?0ABV?$stream_output_adapter@_W@__crt_stdio_output@@AB_KABQB_WAAV__crt_cached_ptd_host@@ABQAD@?$format_validation_base@_WV?$stream_output_adapter@_W@__crt_stdio_output@@@__crt_stdio_output@@IAE@ABV?$stream_output_adapter@_W@1@AB_KABQB_WAAV__crt_cached_ptd_host@@ABQAD@Z 1001eee0 f i libucrtd:output.obj
 0001:0001df10       ??$?0ABV?$stream_output_adapter@_W@__crt_stdio_output@@AB_KABQB_WAAV__crt_cached_ptd_host@@ABQAD@?$positional_parameter_base@_WV?$stream_output_adapter@_W@__crt_stdio_output@@@__crt_stdio_output@@IAE@ABV?$stream_output_adapter@_W@1@AB_KABQB_WAAV__crt_cached_ptd_host@@ABQAD@Z 1001ef10 f i libucrtd:output.obj
 0001:0001df90       ??$?0ABV?$stream_output_adapter@_W@__crt_stdio_output@@AB_KABQB_WAAV__crt_cached_ptd_host@@ABQAD@?$standard_base@_WV?$stream_output_adapter@_W@__crt_stdio_output@@@__crt_stdio_output@@IAE@ABV?$stream_output_adapter@_W@1@AB_KABQB_WAAV__crt_cached_ptd_host@@ABQAD@Z 1001ef90 f i libucrtd:output.obj
 0001:0001dfe0       ??$?0ABV?$string_output_adapter@D@__crt_stdio_output@@AB_KABQBDAAV__crt_cached_ptd_host@@ABQAD@?$format_validation_base@DV?$string_output_adapter@D@__crt_stdio_output@@@__crt_stdio_output@@IAE@ABV?$string_output_adapter@D@1@AB_KABQBDAAV__crt_cached_ptd_host@@ABQAD@Z 1001efe0 f i libucrtd:output.obj
 0001:0001e010       ??$?0ABV?$string_output_adapter@D@__crt_stdio_output@@AB_KABQBDAAV__crt_cached_ptd_host@@ABQAD@?$positional_parameter_base@DV?$string_output_adapter@D@__crt_stdio_output@@@__crt_stdio_output@@IAE@ABV?$string_output_adapter@D@1@AB_KABQBDAAV__crt_cached_ptd_host@@ABQAD@Z 1001f010 f i libucrtd:output.obj
 0001:0001e090       ??$?0ABV?$string_output_adapter@D@__crt_stdio_output@@AB_KABQBDAAV__crt_cached_ptd_host@@ABQAD@?$standard_base@DV?$string_output_adapter@D@__crt_stdio_output@@@__crt_stdio_output@@IAE@ABV?$string_output_adapter@D@1@AB_KABQBDAAV__crt_cached_ptd_host@@ABQAD@Z 1001f090 f i libucrtd:output.obj
 0001:0001e0e0       ??$?0ABV?$string_output_adapter@_W@__crt_stdio_output@@AB_KABQB_WAAV__crt_cached_ptd_host@@ABQAD@?$format_validation_base@_WV?$string_output_adapter@_W@__crt_stdio_output@@@__crt_stdio_output@@IAE@ABV?$string_output_adapter@_W@1@AB_KABQB_WAAV__crt_cached_ptd_host@@ABQAD@Z 1001f0e0 f i libucrtd:output.obj
 0001:0001e110       ??$?0ABV?$string_output_adapter@_W@__crt_stdio_output@@AB_KABQB_WAAV__crt_cached_ptd_host@@ABQAD@?$positional_parameter_base@_WV?$string_output_adapter@_W@__crt_stdio_output@@@__crt_stdio_output@@IAE@ABV?$string_output_adapter@_W@1@AB_KABQB_WAAV__crt_cached_ptd_host@@ABQAD@Z 1001f110 f i libucrtd:output.obj
 0001:0001e190       ??$?0ABV?$string_output_adapter@_W@__crt_stdio_output@@AB_KABQB_WAAV__crt_cached_ptd_host@@ABQAD@?$standard_base@_WV?$string_output_adapter@_W@__crt_stdio_output@@@__crt_stdio_output@@IAE@ABV?$string_output_adapter@_W@1@AB_KABQB_WAAV__crt_cached_ptd_host@@ABQAD@Z 1001f190 f i libucrtd:output.obj
 0001:0001e7e0       ??$_tcstol_internal@DPAPAD$0A@@@YAJAAV__crt_cached_ptd_host@@QBDQAPADH@Z 1001f7e0 f i libucrtd:output.obj
 0001:0001e820       ??$_tcstol_internal@_WPAPA_W$0A@@@YAJAAV__crt_cached_ptd_host@@QB_WQAPA_WH@Z 1001f820 f i libucrtd:output.obj
 0001:000217c0       ??$count@D@formatting_buffer@__crt_stdio_output@@QBEIXZ 100227c0 f i libucrtd:output.obj
 0001:00021800       ??$count@_W@formatting_buffer@__crt_stdio_output@@QBEIXZ 10022800 f i libucrtd:output.obj
 0001:00021840       ??$data@D@formatting_buffer@__crt_stdio_output@@QAEPADXZ 10022840 f i libucrtd:output.obj
 0001:00021880       ??$data@_W@formatting_buffer@__crt_stdio_output@@QAEPA_WXZ 10022880 f i libucrtd:output.obj
 0001:000218c0       ??$ensure_buffer_is_big_enough@D@formatting_buffer@__crt_stdio_output@@QAE_NIAAV__crt_cached_ptd_host@@@Z 100228c0 f i libucrtd:output.obj
 0001:000219b0       ??$ensure_buffer_is_big_enough@_W@formatting_buffer@__crt_stdio_output@@QAE_NIAAV__crt_cached_ptd_host@@@Z 100229b0 f i libucrtd:output.obj
 0001:00021aa0       ??$extract_argument_from_va_list@C_J@?$positional_parameter_base@DV?$stream_output_adapter@D@__crt_stdio_output@@@__crt_stdio_output@@IAE_NAA_J@Z 10022aa0 f i libucrtd:output.obj
 0001:00021c00       ??$extract_argument_from_va_list@C_J@?$positional_parameter_base@DV?$string_output_adapter@D@__crt_stdio_output@@@__crt_stdio_output@@IAE_NAA_J@Z 10022c00 f i libucrtd:output.obj
 0001:00021d60       ??$extract_argument_from_va_list@C_J@?$positional_parameter_base@_WV?$stream_output_adapter@_W@__crt_stdio_output@@@__crt_stdio_output@@IAE_NAA_J@Z 10022d60 f i libucrtd:output.obj
 0001:00021ed0       ??$extract_argument_from_va_list@C_J@?$positional_parameter_base@_WV?$string_output_adapter@_W@__crt_stdio_output@@@__crt_stdio_output@@IAE_NAA_J@Z 10022ed0 f i libucrtd:output.obj
 0001:00022040       ??$extract_argument_from_va_list@C_J@?$standard_base@DV?$stream_output_adapter@D@__crt_stdio_output@@@__crt_stdio_output@@IAE_NAA_J@Z 10023040 f i libucrtd:output.obj
 0001:00022070       ??$extract_argument_from_va_list@C_J@?$standard_base@DV?$string_output_adapter@D@__crt_stdio_output@@@__crt_stdio_output@@IAE_NAA_J@Z 10023070 f i libucrtd:output.obj
 0001:000220a0       ??$extract_argument_from_va_list@C_J@?$standard_base@_WV?$stream_output_adapter@_W@__crt_stdio_output@@@__crt_stdio_output@@IAE_NAA_J@Z 100230a0 f i libucrtd:output.obj
 0001:000220d0       ??$extract_argument_from_va_list@C_J@?$standard_base@_WV?$string_output_adapter@_W@__crt_stdio_output@@@__crt_stdio_output@@IAE_NAA_J@Z 100230d0 f i libucrtd:output.obj
 0001:00022100       ??$extract_argument_from_va_list@E_J@?$positional_parameter_base@DV?$stream_output_adapter@D@__crt_stdio_output@@@__crt_stdio_output@@IAE_NAA_J@Z 10023100 f i libucrtd:output.obj
 0001:00022260       ??$extract_argument_from_va_list@E_J@?$positional_parameter_base@DV?$string_output_adapter@D@__crt_stdio_output@@@__crt_stdio_output@@IAE_NAA_J@Z 10023260 f i libucrtd:output.obj
 0001:000223c0       ??$extract_argument_from_va_list@E_J@?$positional_parameter_base@_WV?$stream_output_adapter@_W@__crt_stdio_output@@@__crt_stdio_output@@IAE_NAA_J@Z 100233c0 f i libucrtd:output.obj
 0001:00022530       ??$extract_argument_from_va_list@E_J@?$positional_parameter_base@_WV?$string_output_adapter@_W@__crt_stdio_output@@@__crt_stdio_output@@IAE_NAA_J@Z 10023530 f i libucrtd:output.obj
 0001:000226a0       ??$extract_argument_from_va_list@E_J@?$standard_base@DV?$stream_output_adapter@D@__crt_stdio_output@@@__crt_stdio_output@@IAE_NAA_J@Z 100236a0 f i libucrtd:output.obj
 0001:000226d0       ??$extract_argument_from_va_list@E_J@?$standard_base@DV?$string_output_adapter@D@__crt_stdio_output@@@__crt_stdio_output@@IAE_NAA_J@Z 100236d0 f i libucrtd:output.obj
 0001:00022700       ??$extract_argument_from_va_list@E_J@?$standard_base@_WV?$stream_output_adapter@_W@__crt_stdio_output@@@__crt_stdio_output@@IAE_NAA_J@Z 10023700 f i libucrtd:output.obj
 0001:00022730       ??$extract_argument_from_va_list@E_J@?$standard_base@_WV?$string_output_adapter@_W@__crt_stdio_output@@@__crt_stdio_output@@IAE_NAA_J@Z 10023730 f i libucrtd:output.obj
 0001:00022760       ??$extract_argument_from_va_list@F_J@?$positional_parameter_base@DV?$stream_output_adapter@D@__crt_stdio_output@@@__crt_stdio_output@@IAE_NAA_J@Z 10023760 f i libucrtd:output.obj
 0001:000228c0       ??$extract_argument_from_va_list@F_J@?$positional_parameter_base@DV?$string_output_adapter@D@__crt_stdio_output@@@__crt_stdio_output@@IAE_NAA_J@Z 100238c0 f i libucrtd:output.obj
 0001:00022a20       ??$extract_argument_from_va_list@F_J@?$positional_parameter_base@_WV?$stream_output_adapter@_W@__crt_stdio_output@@@__crt_stdio_output@@IAE_NAA_J@Z 10023a20 f i libucrtd:output.obj
 0001:00022b80       ??$extract_argument_from_va_list@F_J@?$positional_parameter_base@_WV?$string_output_adapter@_W@__crt_stdio_output@@@__crt_stdio_output@@IAE_NAA_J@Z 10023b80 f i libucrtd:output.obj
 0001:00022ce0       ??$extract_argument_from_va_list@F_J@?$standard_base@DV?$stream_output_adapter@D@__crt_stdio_output@@@__crt_stdio_output@@IAE_NAA_J@Z 10023ce0 f i libucrtd:output.obj
 0001:00022d10       ??$extract_argument_from_va_list@F_J@?$standard_base@DV?$string_output_adapter@D@__crt_stdio_output@@@__crt_stdio_output@@IAE_NAA_J@Z 10023d10 f i libucrtd:output.obj
 0001:00022d40       ??$extract_argument_from_va_list@F_J@?$standard_base@_WV?$stream_output_adapter@_W@__crt_stdio_output@@@__crt_stdio_output@@IAE_NAA_J@Z 10023d40 f i libucrtd:output.obj
 0001:00022d70       ??$extract_argument_from_va_list@F_J@?$standard_base@_WV?$string_output_adapter@_W@__crt_stdio_output@@@__crt_stdio_output@@IAE_NAA_J@Z 10023d70 f i libucrtd:output.obj
 0001:00022da0       ??$extract_argument_from_va_list@GD@?$positional_parameter_base@DV?$stream_output_adapter@D@__crt_stdio_output@@@__crt_stdio_output@@IAE_NAAD@Z 10023da0 f i libucrtd:output.obj
 0001:00022f00       ??$extract_argument_from_va_list@GD@?$positional_parameter_base@DV?$string_output_adapter@D@__crt_stdio_output@@@__crt_stdio_output@@IAE_NAAD@Z 10023f00 f i libucrtd:output.obj
 0001:00023060       ??$extract_argument_from_va_list@GD@?$standard_base@DV?$stream_output_adapter@D@__crt_stdio_output@@@__crt_stdio_output@@IAE_NAAD@Z 10024060 f i libucrtd:output.obj
 0001:00023090       ??$extract_argument_from_va_list@GD@?$standard_base@DV?$string_output_adapter@D@__crt_stdio_output@@@__crt_stdio_output@@IAE_NAAD@Z 10024090 f i libucrtd:output.obj
 0001:000230c0       ??$extract_argument_from_va_list@G_J@?$positional_parameter_base@DV?$stream_output_adapter@D@__crt_stdio_output@@@__crt_stdio_output@@IAE_NAA_J@Z 100240c0 f i libucrtd:output.obj
 0001:00023220       ??$extract_argument_from_va_list@G_J@?$positional_parameter_base@DV?$string_output_adapter@D@__crt_stdio_output@@@__crt_stdio_output@@IAE_NAA_J@Z 10024220 f i libucrtd:output.obj
 0001:00023380       ??$extract_argument_from_va_list@G_J@?$positional_parameter_base@_WV?$stream_output_adapter@_W@__crt_stdio_output@@@__crt_stdio_output@@IAE_NAA_J@Z 10024380 f i libucrtd:output.obj
 0001:000234f0       ??$extract_argument_from_va_list@G_J@?$positional_parameter_base@_WV?$string_output_adapter@_W@__crt_stdio_output@@@__crt_stdio_output@@IAE_NAA_J@Z 100244f0 f i libucrtd:output.obj
 0001:00023660       ??$extract_argument_from_va_list@G_J@?$standard_base@DV?$stream_output_adapter@D@__crt_stdio_output@@@__crt_stdio_output@@IAE_NAA_J@Z 10024660 f i libucrtd:output.obj
 0001:00023690       ??$extract_argument_from_va_list@G_J@?$standard_base@DV?$string_output_adapter@D@__crt_stdio_output@@@__crt_stdio_output@@IAE_NAA_J@Z 10024690 f i libucrtd:output.obj
 0001:000236c0       ??$extract_argument_from_va_list@G_J@?$standard_base@_WV?$stream_output_adapter@_W@__crt_stdio_output@@@__crt_stdio_output@@IAE_NAA_J@Z 100246c0 f i libucrtd:output.obj
 0001:000236f0       ??$extract_argument_from_va_list@G_J@?$standard_base@_WV?$string_output_adapter@_W@__crt_stdio_output@@@__crt_stdio_output@@IAE_NAA_J@Z 100246f0 f i libucrtd:output.obj
 0001:00023720       ??$extract_argument_from_va_list@H_J@?$positional_parameter_base@DV?$stream_output_adapter@D@__crt_stdio_output@@@__crt_stdio_output@@IAE_NAA_J@Z 10024720 f i libucrtd:output.obj
 0001:00023880       ??$extract_argument_from_va_list@H_J@?$positional_parameter_base@DV?$string_output_adapter@D@__crt_stdio_output@@@__crt_stdio_output@@IAE_NAA_J@Z 10024880 f i libucrtd:output.obj
 0001:000239e0       ??$extract_argument_from_va_list@H_J@?$positional_parameter_base@_WV?$stream_output_adapter@_W@__crt_stdio_output@@@__crt_stdio_output@@IAE_NAA_J@Z 100249e0 f i libucrtd:output.obj
 0001:00023b40       ??$extract_argument_from_va_list@H_J@?$positional_parameter_base@_WV?$string_output_adapter@_W@__crt_stdio_output@@@__crt_stdio_output@@IAE_NAA_J@Z 10024b40 f i libucrtd:output.obj
 0001:00023ca0       ??$extract_argument_from_va_list@H_J@?$standard_base@DV?$stream_output_adapter@D@__crt_stdio_output@@@__crt_stdio_output@@IAE_NAA_J@Z 10024ca0 f i libucrtd:output.obj
 0001:00023cd0       ??$extract_argument_from_va_list@H_J@?$standard_base@DV?$string_output_adapter@D@__crt_stdio_output@@@__crt_stdio_output@@IAE_NAA_J@Z 10024cd0 f i libucrtd:output.obj
 0001:00023d00       ??$extract_argument_from_va_list@H_J@?$standard_base@_WV?$stream_output_adapter@_W@__crt_stdio_output@@@__crt_stdio_output@@IAE_NAA_J@Z 10024d00 f i libucrtd:output.obj
 0001:00023d30       ??$extract_argument_from_va_list@H_J@?$standard_base@_WV?$string_output_adapter@_W@__crt_stdio_output@@@__crt_stdio_output@@IAE_NAA_J@Z 10024d30 f i libucrtd:output.obj
 0001:00023d60       ??$extract_argument_from_va_list@I_J@?$positional_parameter_base@DV?$stream_output_adapter@D@__crt_stdio_output@@@__crt_stdio_output@@IAE_NAA_J@Z 10024d60 f i libucrtd:output.obj
 0001:00023ec0       ??$extract_argument_from_va_list@I_J@?$positional_parameter_base@DV?$string_output_adapter@D@__crt_stdio_output@@@__crt_stdio_output@@IAE_NAA_J@Z 10024ec0 f i libucrtd:output.obj
 0001:00024020       ??$extract_argument_from_va_list@I_J@?$positional_parameter_base@_WV?$stream_output_adapter@_W@__crt_stdio_output@@@__crt_stdio_output@@IAE_NAA_J@Z 10025020 f i libucrtd:output.obj
 0001:00024180       ??$extract_argument_from_va_list@I_J@?$positional_parameter_base@_WV?$string_output_adapter@_W@__crt_stdio_output@@@__crt_stdio_output@@IAE_NAA_J@Z 10025180 f i libucrtd:output.obj
 0001:000242e0       ??$extract_argument_from_va_list@I_J@?$standard_base@DV?$stream_output_adapter@D@__crt_stdio_output@@@__crt_stdio_output@@IAE_NAA_J@Z 100252e0 f i libucrtd:output.obj
 0001:00024310       ??$extract_argument_from_va_list@I_J@?$standard_base@DV?$string_output_adapter@D@__crt_stdio_output@@@__crt_stdio_output@@IAE_NAA_J@Z 10025310 f i libucrtd:output.obj
 0001:00024340       ??$extract_argument_from_va_list@I_J@?$standard_base@_WV?$stream_output_adapter@_W@__crt_stdio_output@@@__crt_stdio_output@@IAE_NAA_J@Z 10025340 f i libucrtd:output.obj
 0001:00024370       ??$extract_argument_from_va_list@I_J@?$standard_base@_WV?$string_output_adapter@_W@__crt_stdio_output@@@__crt_stdio_output@@IAE_NAA_J@Z 10025370 f i libucrtd:output.obj
 0001:000243a0       ??$extract_argument_from_va_list@PADPAD@?$positional_parameter_base@DV?$stream_output_adapter@D@__crt_stdio_output@@@__crt_stdio_output@@IAE_NAAPAD@Z 100253a0 f i libucrtd:output.obj
 0001:00024500       ??$extract_argument_from_va_list@PADPAD@?$positional_parameter_base@DV?$string_output_adapter@D@__crt_stdio_output@@@__crt_stdio_output@@IAE_NAAPAD@Z 10025500 f i libucrtd:output.obj
 0001:00024660       ??$extract_argument_from_va_list@PADPAD@?$positional_parameter_base@_WV?$stream_output_adapter@_W@__crt_stdio_output@@@__crt_stdio_output@@IAE_NAAPAD@Z 10025660 f i libucrtd:output.obj
 0001:000247c0       ??$extract_argument_from_va_list@PADPAD@?$positional_parameter_base@_WV?$string_output_adapter@_W@__crt_stdio_output@@@__crt_stdio_output@@IAE_NAAPAD@Z 100257c0 f i libucrtd:output.obj
 0001:00024920       ??$extract_argument_from_va_list@PADPAD@?$standard_base@DV?$stream_output_adapter@D@__crt_stdio_output@@@__crt_stdio_output@@IAE_NAAPAD@Z 10025920 f i libucrtd:output.obj
 0001:00024950       ??$extract_argument_from_va_list@PADPAD@?$standard_base@DV?$string_output_adapter@D@__crt_stdio_output@@@__crt_stdio_output@@IAE_NAAPAD@Z 10025950 f i libucrtd:output.obj
 0001:00024980       ??$extract_argument_from_va_list@PADPAD@?$standard_base@_WV?$stream_output_adapter@_W@__crt_stdio_output@@@__crt_stdio_output@@IAE_NAAPAD@Z 10025980 f i libucrtd:output.obj
 0001:000249b0       ??$extract_argument_from_va_list@PADPAD@?$standard_base@_WV?$string_output_adapter@_W@__crt_stdio_output@@@__crt_stdio_output@@IAE_NAAPAD@Z 100259b0 f i libucrtd:output.obj
 0001:000249e0       ??$extract_argument_from_va_list@PAUansi_string@?1??type_case_Z@?$output_processor@DV?$stream_output_adapter@D@__crt_stdio_output@@V?$format_validation_base@DV?$stream_output_adapter@D@__crt_stdio_output@@@2@@__crt_stdio_output@@AAE_NXZ@PAU1?1??234@AAE_NXZ@@?$standard_base@DV?$stream_output_adapter@D@__crt_stdio_output@@@__crt_stdio_output@@IAE_NAAPAUansi_string@?1??type_case_Z@?$output_processor@DV?$stream_output_adapter@D@__crt_stdio_output@@V?$format_validation_base@DV?$stream_output_adapter@D@__crt_stdio_output@@@2@@1@AAE_NXZ@@Z 100259e0 f i libucrtd:output.obj
 0001:00024a10       ??$extract_argument_from_va_list@PAUansi_string@?1??type_case_Z@?$output_processor@DV?$stream_output_adapter@D@__crt_stdio_output@@V?$positional_parameter_base@DV?$stream_output_adapter@D@__crt_stdio_output@@@2@@__crt_stdio_output@@AAE_NXZ@PAU1?1??234@AAE_NXZ@@?$positional_parameter_base@DV?$stream_output_adapter@D@__crt_stdio_output@@@__crt_stdio_output@@IAE_NAAPAUansi_string@?1??type_case_Z@?$output_processor@DV?$stream_output_adapter@D@__crt_stdio_output@@V?$positional_parameter_base@DV?$stream_output_adapter@D@__crt_stdio_output@@@2@@1@AAE_NXZ@@Z 10025a10 f i libucrtd:output.obj
 0001:00024b70       ??$extract_argument_from_va_list@PAUansi_string@?1??type_case_Z@?$output_processor@DV?$stream_output_adapter@D@__crt_stdio_output@@V?$positional_parameter_base@DV?$stream_output_adapter@D@__crt_stdio_output@@@2@@__crt_stdio_output@@AAE_NXZ@PAU1?1??234@AAE_NXZ@@?$standard_base@DV?$stream_output_adapter@D@__crt_stdio_output@@@__crt_stdio_output@@IAE_NAAPAUansi_string@?1??type_case_Z@?$output_processor@DV?$stream_output_adapter@D@__crt_stdio_output@@V?$positional_parameter_base@DV?$stream_output_adapter@D@__crt_stdio_output@@@2@@1@AAE_NXZ@@Z 10025b70 f i libucrtd:output.obj
 0001:00024ba0       ??$extract_argument_from_va_list@PAUansi_string@?1??type_case_Z@?$output_processor@DV?$stream_output_adapter@D@__crt_stdio_output@@V?$standard_base@DV?$stream_output_adapter@D@__crt_stdio_output@@@2@@__crt_stdio_output@@AAE_NXZ@PAU1?1??234@AAE_NXZ@@?$standard_base@DV?$stream_output_adapter@D@__crt_stdio_output@@@__crt_stdio_output@@IAE_NAAPAUansi_string@?1??type_case_Z@?$output_processor@DV?$stream_output_adapter@D@__crt_stdio_output@@V?$standard_base@DV?$stream_output_adapter@D@__crt_stdio_output@@@2@@1@AAE_NXZ@@Z 10025ba0 f i libucrtd:output.obj
 0001:00024bd0       ??$extract_argument_from_va_list@PAUansi_string@?1??type_case_Z@?$output_processor@DV?$string_output_adapter@D@__crt_stdio_output@@V?$format_validation_base@DV?$string_output_adapter@D@__crt_stdio_output@@@2@@__crt_stdio_output@@AAE_NXZ@PAU1?1??234@AAE_NXZ@@?$standard_base@DV?$string_output_adapter@D@__crt_stdio_output@@@__crt_stdio_output@@IAE_NAAPAUansi_string@?1??type_case_Z@?$output_processor@DV?$string_output_adapter@D@__crt_stdio_output@@V?$format_validation_base@DV?$string_output_adapter@D@__crt_stdio_output@@@2@@1@AAE_NXZ@@Z 10025bd0 f i libucrtd:output.obj
 0001:00024c00       ??$extract_argument_from_va_list@PAUansi_string@?1??type_case_Z@?$output_processor@DV?$string_output_adapter@D@__crt_stdio_output@@V?$positional_parameter_base@DV?$string_output_adapter@D@__crt_stdio_output@@@2@@__crt_stdio_output@@AAE_NXZ@PAU1?1??234@AAE_NXZ@@?$positional_parameter_base@DV?$string_output_adapter@D@__crt_stdio_output@@@__crt_stdio_output@@IAE_NAAPAUansi_string@?1??type_case_Z@?$output_processor@DV?$string_output_adapter@D@__crt_stdio_output@@V?$positional_parameter_base@DV?$string_output_adapter@D@__crt_stdio_output@@@2@@1@AAE_NXZ@@Z 10025c00 f i libucrtd:output.obj
 0001:00024d60       ??$extract_argument_from_va_list@PAUansi_string@?1??type_case_Z@?$output_processor@DV?$string_output_adapter@D@__crt_stdio_output@@V?$positional_parameter_base@DV?$string_output_adapter@D@__crt_stdio_output@@@2@@__crt_stdio_output@@AAE_NXZ@PAU1?1??234@AAE_NXZ@@?$standard_base@DV?$string_output_adapter@D@__crt_stdio_output@@@__crt_stdio_output@@IAE_NAAPAUansi_string@?1??type_case_Z@?$output_processor@DV?$string_output_adapter@D@__crt_stdio_output@@V?$positional_parameter_base@DV?$string_output_adapter@D@__crt_stdio_output@@@2@@1@AAE_NXZ@@Z 10025d60 f i libucrtd:output.obj
 0001:00024d90       ??$extract_argument_from_va_list@PAUansi_string@?1??type_case_Z@?$output_processor@DV?$string_output_adapter@D@__crt_stdio_output@@V?$standard_base@DV?$string_output_adapter@D@__crt_stdio_output@@@2@@__crt_stdio_output@@AAE_NXZ@PAU1?1??234@AAE_NXZ@@?$standard_base@DV?$string_output_adapter@D@__crt_stdio_output@@@__crt_stdio_output@@IAE_NAAPAUansi_string@?1??type_case_Z@?$output_processor@DV?$string_output_adapter@D@__crt_stdio_output@@V?$standard_base@DV?$string_output_adapter@D@__crt_stdio_output@@@2@@1@AAE_NXZ@@Z 10025d90 f i libucrtd:output.obj
 0001:00024dc0       ??$extract_argument_from_va_list@PAUansi_string@?1??type_case_Z@?$output_processor@_WV?$stream_output_adapter@_W@__crt_stdio_output@@V?$format_validation_base@_WV?$stream_output_adapter@_W@__crt_stdio_output@@@2@@__crt_stdio_output@@AAE_NXZ@PAU1?1??234@AAE_NXZ@@?$standard_base@_WV?$stream_output_adapter@_W@__crt_stdio_output@@@__crt_stdio_output@@IAE_NAAPAUansi_string@?1??type_case_Z@?$output_processor@_WV?$stream_output_adapter@_W@__crt_stdio_output@@V?$format_validation_base@_WV?$stream_output_adapter@_W@__crt_stdio_output@@@2@@1@AAE_NXZ@@Z 10025dc0 f i libucrtd:output.obj
 0001:00024df0       ??$extract_argument_from_va_list@PAUansi_string@?1??type_case_Z@?$output_processor@_WV?$stream_output_adapter@_W@__crt_stdio_output@@V?$positional_parameter_base@_WV?$stream_output_adapter@_W@__crt_stdio_output@@@2@@__crt_stdio_output@@AAE_NXZ@PAU1?1??234@AAE_NXZ@@?$positional_parameter_base@_WV?$stream_output_adapter@_W@__crt_stdio_output@@@__crt_stdio_output@@IAE_NAAPAUansi_string@?1??type_case_Z@?$output_processor@_WV?$stream_output_adapter@_W@__crt_stdio_output@@V?$positional_parameter_base@_WV?$stream_output_adapter@_W@__crt_stdio_output@@@2@@1@AAE_NXZ@@Z 10025df0 f i libucrtd:output.obj
 0001:00024f50       ??$extract_argument_from_va_list@PAUansi_string@?1??type_case_Z@?$output_processor@_WV?$stream_output_adapter@_W@__crt_stdio_output@@V?$positional_parameter_base@_WV?$stream_output_adapter@_W@__crt_stdio_output@@@2@@__crt_stdio_output@@AAE_NXZ@PAU1?1??234@AAE_NXZ@@?$standard_base@_WV?$stream_output_adapter@_W@__crt_stdio_output@@@__crt_stdio_output@@IAE_NAAPAUansi_string@?1??type_case_Z@?$output_processor@_WV?$stream_output_adapter@_W@__crt_stdio_output@@V?$positional_parameter_base@_WV?$stream_output_adapter@_W@__crt_stdio_output@@@2@@1@AAE_NXZ@@Z 10025f50 f i libucrtd:output.obj
 0001:00024f80       ??$extract_argument_from_va_list@PAUansi_string@?1??type_case_Z@?$output_processor@_WV?$stream_output_adapter@_W@__crt_stdio_output@@V?$standard_base@_WV?$stream_output_adapter@_W@__crt_stdio_output@@@2@@__crt_stdio_output@@AAE_NXZ@PAU1?1??234@AAE_NXZ@@?$standard_base@_WV?$stream_output_adapter@_W@__crt_stdio_output@@@__crt_stdio_output@@IAE_NAAPAUansi_string@?1??type_case_Z@?$output_processor@_WV?$stream_output_adapter@_W@__crt_stdio_output@@V?$standard_base@_WV?$stream_output_adapter@_W@__crt_stdio_output@@@2@@1@AAE_NXZ@@Z 10025f80 f i libucrtd:output.obj
 0001:00024fb0       ??$extract_argument_from_va_list@PAUansi_string@?1??type_case_Z@?$output_processor@_WV?$string_output_adapter@_W@__crt_stdio_output@@V?$format_validation_base@_WV?$string_output_adapter@_W@__crt_stdio_output@@@2@@__crt_stdio_output@@AAE_NXZ@PAU1?1??234@AAE_NXZ@@?$standard_base@_WV?$string_output_adapter@_W@__crt_stdio_output@@@__crt_stdio_output@@IAE_NAAPAUansi_string@?1??type_case_Z@?$output_processor@_WV?$string_output_adapter@_W@__crt_stdio_output@@V?$format_validation_base@_WV?$string_output_adapter@_W@__crt_stdio_output@@@2@@1@AAE_NXZ@@Z 10025fb0 f i libucrtd:output.obj
 0001:00024fe0       ??$extract_argument_from_va_list@PAUansi_string@?1??type_case_Z@?$output_processor@_WV?$string_output_adapter@_W@__crt_stdio_output@@V?$positional_parameter_base@_WV?$string_output_adapter@_W@__crt_stdio_output@@@2@@__crt_stdio_output@@AAE_NXZ@PAU1?1??234@AAE_NXZ@@?$positional_parameter_base@_WV?$string_output_adapter@_W@__crt_stdio_output@@@__crt_stdio_output@@IAE_NAAPAUansi_string@?1??type_case_Z@?$output_processor@_WV?$string_output_adapter@_W@__crt_stdio_output@@V?$positional_parameter_base@_WV?$string_output_adapter@_W@__crt_stdio_output@@@2@@1@AAE_NXZ@@Z 10025fe0 f i libucrtd:output.obj
 0001:00025140       ??$extract_argument_from_va_list@PAUansi_string@?1??type_case_Z@?$output_processor@_WV?$string_output_adapter@_W@__crt_stdio_output@@V?$positional_parameter_base@_WV?$string_output_adapter@_W@__crt_stdio_output@@@2@@__crt_stdio_output@@AAE_NXZ@PAU1?1??234@AAE_NXZ@@?$standard_base@_WV?$string_output_adapter@_W@__crt_stdio_output@@@__crt_stdio_output@@IAE_NAAPAUansi_string@?1??type_case_Z@?$output_processor@_WV?$string_output_adapter@_W@__crt_stdio_output@@V?$positional_parameter_base@_WV?$string_output_adapter@_W@__crt_stdio_output@@@2@@1@AAE_NXZ@@Z 10026140 f i libucrtd:output.obj
 0001:00025170       ??$extract_argument_from_va_list@PAUansi_string@?1??type_case_Z@?$output_processor@_WV?$string_output_adapter@_W@__crt_stdio_output@@V?$standard_base@_WV?$string_output_adapter@_W@__crt_stdio_output@@@2@@__crt_stdio_output@@AAE_NXZ@PAU1?1??234@AAE_NXZ@@?$standard_base@_WV?$string_output_adapter@_W@__crt_stdio_output@@@__crt_stdio_output@@IAE_NAAPAUansi_string@?1??type_case_Z@?$output_processor@_WV?$string_output_adapter@_W@__crt_stdio_output@@V?$standard_base@_WV?$string_output_adapter@_W@__crt_stdio_output@@@2@@1@AAE_NXZ@@Z 10026170 f i libucrtd:output.obj
 0001:000251a0       ??$extract_argument_from_va_list@PAXPAX@?$positional_parameter_base@DV?$stream_output_adapter@D@__crt_stdio_output@@@__crt_stdio_output@@IAE_NAAPAX@Z 100261a0 f i libucrtd:output.obj
 0001:00025300       ??$extract_argument_from_va_list@PAXPAX@?$positional_parameter_base@DV?$string_output_adapter@D@__crt_stdio_output@@@__crt_stdio_output@@IAE_NAAPAX@Z 10026300 f i libucrtd:output.obj
 0001:00025460       ??$extract_argument_from_va_list@PAXPAX@?$positional_parameter_base@_WV?$stream_output_adapter@_W@__crt_stdio_output@@@__crt_stdio_output@@IAE_NAAPAX@Z 10026460 f i libucrtd:output.obj
 0001:000255c0       ??$extract_argument_from_va_list@PAXPAX@?$positional_parameter_base@_WV?$string_output_adapter@_W@__crt_stdio_output@@@__crt_stdio_output@@IAE_NAAPAX@Z 100265c0 f i libucrtd:output.obj
 0001:00025720       ??$extract_argument_from_va_list@PAXPAX@?$standard_base@DV?$stream_output_adapter@D@__crt_stdio_output@@@__crt_stdio_output@@IAE_NAAPAX@Z 10026720 f i libucrtd:output.obj
 0001:00025750       ??$extract_argument_from_va_list@PAXPAX@?$standard_base@DV?$string_output_adapter@D@__crt_stdio_output@@@__crt_stdio_output@@IAE_NAAPAX@Z 10026750 f i libucrtd:output.obj
 0001:00025780       ??$extract_argument_from_va_list@PAXPAX@?$standard_base@_WV?$stream_output_adapter@_W@__crt_stdio_output@@@__crt_stdio_output@@IAE_NAAPAX@Z 10026780 f i libucrtd:output.obj
 0001:000257b0       ??$extract_argument_from_va_list@PAXPAX@?$standard_base@_WV?$string_output_adapter@_W@__crt_stdio_output@@@__crt_stdio_output@@IAE_NAAPAX@Z 100267b0 f i libucrtd:output.obj
 0001:000257e0       ??$extract_argument_from_va_list@U_CRT_DOUBLE@@U1@@?$positional_parameter_base@DV?$stream_output_adapter@D@__crt_stdio_output@@@__crt_stdio_output@@IAE_NAAU_CRT_DOUBLE@@@Z 100267e0 f i libucrtd:output.obj
 0001:00025970       ??$extract_argument_from_va_list@U_CRT_DOUBLE@@U1@@?$positional_parameter_base@DV?$string_output_adapter@D@__crt_stdio_output@@@__crt_stdio_output@@IAE_NAAU_CRT_DOUBLE@@@Z 10026970 f i libucrtd:output.obj
 0001:00025b00       ??$extract_argument_from_va_list@U_CRT_DOUBLE@@U1@@?$positional_parameter_base@_WV?$stream_output_adapter@_W@__crt_stdio_output@@@__crt_stdio_output@@IAE_NAAU_CRT_DOUBLE@@@Z 10026b00 f i libucrtd:output.obj
 0001:00025c90       ??$extract_argument_from_va_list@U_CRT_DOUBLE@@U1@@?$positional_parameter_base@_WV?$string_output_adapter@_W@__crt_stdio_output@@@__crt_stdio_output@@IAE_NAAU_CRT_DOUBLE@@@Z 10026c90 f i libucrtd:output.obj
 0001:00025e20       ??$extract_argument_from_va_list@U_CRT_DOUBLE@@U1@@?$standard_base@DV?$stream_output_adapter@D@__crt_stdio_output@@@__crt_stdio_output@@IAE_NAAU_CRT_DOUBLE@@@Z 10026e20 f i libucrtd:output.obj
 0001:00025e70       ??$extract_argument_from_va_list@U_CRT_DOUBLE@@U1@@?$standard_base@DV?$string_output_adapter@D@__crt_stdio_output@@@__crt_stdio_output@@IAE_NAAU_CRT_DOUBLE@@@Z 10026e70 f i libucrtd:output.obj
 0001:00025ec0       ??$extract_argument_from_va_list@U_CRT_DOUBLE@@U1@@?$standard_base@_WV?$stream_output_adapter@_W@__crt_stdio_output@@@__crt_stdio_output@@IAE_NAAU_CRT_DOUBLE@@@Z 10026ec0 f i libucrtd:output.obj
 0001:00025f10       ??$extract_argument_from_va_list@U_CRT_DOUBLE@@U1@@?$standard_base@_WV?$string_output_adapter@_W@__crt_stdio_output@@@__crt_stdio_output@@IAE_NAAU_CRT_DOUBLE@@@Z 10026f10 f i libucrtd:output.obj
 0001:00025f60       ??$extract_argument_from_va_list@_J_J@?$positional_parameter_base@DV?$stream_output_adapter@D@__crt_stdio_output@@@__crt_stdio_output@@IAE_NAA_J@Z 10026f60 f i libucrtd:output.obj
 0001:000260c0       ??$extract_argument_from_va_list@_J_J@?$positional_parameter_base@DV?$string_output_adapter@D@__crt_stdio_output@@@__crt_stdio_output@@IAE_NAA_J@Z 100270c0 f i libucrtd:output.obj
 0001:00026220       ??$extract_argument_from_va_list@_J_J@?$positional_parameter_base@_WV?$stream_output_adapter@_W@__crt_stdio_output@@@__crt_stdio_output@@IAE_NAA_J@Z 10027220 f i libucrtd:output.obj
 0001:00026380       ??$extract_argument_from_va_list@_J_J@?$positional_parameter_base@_WV?$string_output_adapter@_W@__crt_stdio_output@@@__crt_stdio_output@@IAE_NAA_J@Z 10027380 f i libucrtd:output.obj
 0001:000264e0       ??$extract_argument_from_va_list@_J_J@?$standard_base@DV?$stream_output_adapter@D@__crt_stdio_output@@@__crt_stdio_output@@IAE_NAA_J@Z 100274e0 f i libucrtd:output.obj
 0001:00026510       ??$extract_argument_from_va_list@_J_J@?$standard_base@DV?$string_output_adapter@D@__crt_stdio_output@@@__crt_stdio_output@@IAE_NAA_J@Z 10027510 f i libucrtd:output.obj
 0001:00026540       ??$extract_argument_from_va_list@_J_J@?$standard_base@_WV?$stream_output_adapter@_W@__crt_stdio_output@@@__crt_stdio_output@@IAE_NAA_J@Z 10027540 f i libucrtd:output.obj
 0001:00026570       ??$extract_argument_from_va_list@_J_J@?$standard_base@_WV?$string_output_adapter@_W@__crt_stdio_output@@@__crt_stdio_output@@IAE_NAA_J@Z 10027570 f i libucrtd:output.obj
 0001:000265a0       ??$extract_argument_from_va_list@_K_J@?$positional_parameter_base@DV?$stream_output_adapter@D@__crt_stdio_output@@@__crt_stdio_output@@IAE_NAA_J@Z 100275a0 f i libucrtd:output.obj
 0001:00026700       ??$extract_argument_from_va_list@_K_J@?$positional_parameter_base@DV?$string_output_adapter@D@__crt_stdio_output@@@__crt_stdio_output@@IAE_NAA_J@Z 10027700 f i libucrtd:output.obj
 0001:00026860       ??$extract_argument_from_va_list@_K_J@?$positional_parameter_base@_WV?$stream_output_adapter@_W@__crt_stdio_output@@@__crt_stdio_output@@IAE_NAA_J@Z 10027860 f i libucrtd:output.obj
 0001:000269c0       ??$extract_argument_from_va_list@_K_J@?$positional_parameter_base@_WV?$string_output_adapter@_W@__crt_stdio_output@@@__crt_stdio_output@@IAE_NAA_J@Z 100279c0 f i libucrtd:output.obj
 0001:00026b20       ??$extract_argument_from_va_list@_K_J@?$standard_base@DV?$stream_output_adapter@D@__crt_stdio_output@@@__crt_stdio_output@@IAE_NAA_J@Z 10027b20 f i libucrtd:output.obj
 0001:00026b50       ??$extract_argument_from_va_list@_K_J@?$standard_base@DV?$string_output_adapter@D@__crt_stdio_output@@@__crt_stdio_output@@IAE_NAA_J@Z 10027b50 f i libucrtd:output.obj
 0001:00026b80       ??$extract_argument_from_va_list@_K_J@?$standard_base@_WV?$stream_output_adapter@_W@__crt_stdio_output@@@__crt_stdio_output@@IAE_NAA_J@Z 10027b80 f i libucrtd:output.obj
 0001:00026bb0       ??$extract_argument_from_va_list@_K_J@?$standard_base@_WV?$string_output_adapter@_W@__crt_stdio_output@@@__crt_stdio_output@@IAE_NAA_J@Z 10027bb0 f i libucrtd:output.obj
 0001:00026be0       ??$extract_argument_from_va_list@_W_W@?$positional_parameter_base@DV?$stream_output_adapter@D@__crt_stdio_output@@@__crt_stdio_output@@IAE_NAA_W@Z 10027be0 f i libucrtd:output.obj
 0001:00026d40       ??$extract_argument_from_va_list@_W_W@?$positional_parameter_base@DV?$string_output_adapter@D@__crt_stdio_output@@@__crt_stdio_output@@IAE_NAA_W@Z 10027d40 f i libucrtd:output.obj
 0001:00026ea0       ??$extract_argument_from_va_list@_W_W@?$positional_parameter_base@_WV?$stream_output_adapter@_W@__crt_stdio_output@@@__crt_stdio_output@@IAE_NAA_W@Z 10027ea0 f i libucrtd:output.obj
 0001:00027000       ??$extract_argument_from_va_list@_W_W@?$positional_parameter_base@_WV?$string_output_adapter@_W@__crt_stdio_output@@@__crt_stdio_output@@IAE_NAA_W@Z 10028000 f i libucrtd:output.obj
 0001:00027160       ??$extract_argument_from_va_list@_W_W@?$standard_base@DV?$stream_output_adapter@D@__crt_stdio_output@@@__crt_stdio_output@@IAE_NAA_W@Z 10028160 f i libucrtd:output.obj
 0001:00027190       ??$extract_argument_from_va_list@_W_W@?$standard_base@DV?$string_output_adapter@D@__crt_stdio_output@@@__crt_stdio_output@@IAE_NAA_W@Z 10028190 f i libucrtd:output.obj
 0001:000271c0       ??$extract_argument_from_va_list@_W_W@?$standard_base@_WV?$stream_output_adapter@_W@__crt_stdio_output@@@__crt_stdio_output@@IAE_NAA_W@Z 100281c0 f i libucrtd:output.obj
 0001:000271f0       ??$extract_argument_from_va_list@_W_W@?$standard_base@_WV?$string_output_adapter@_W@__crt_stdio_output@@@__crt_stdio_output@@IAE_NAA_W@Z 100281f0 f i libucrtd:output.obj
 0001:00027220       ??$get_parameter_type@D@?$positional_parameter_base@DV?$stream_output_adapter@D@__crt_stdio_output@@@__crt_stdio_output@@CA?AW4parameter_type@01@PAD@Z 10028220 f i libucrtd:output.obj
 0001:00027230       ??$get_parameter_type@D@?$positional_parameter_base@DV?$string_output_adapter@D@__crt_stdio_output@@@__crt_stdio_output@@CA?AW4parameter_type@01@PAD@Z 10028230 f i libucrtd:output.obj
 0001:00027240       ??$get_parameter_type@D@?$positional_parameter_base@_WV?$stream_output_adapter@_W@__crt_stdio_output@@@__crt_stdio_output@@CA?AW4parameter_type@01@PAD@Z 10028240 f i libucrtd:output.obj
 0001:00027250       ??$get_parameter_type@D@?$positional_parameter_base@_WV?$string_output_adapter@_W@__crt_stdio_output@@@__crt_stdio_output@@CA?AW4parameter_type@01@PAD@Z 10028250 f i libucrtd:output.obj
 0001:00027260       ??$get_parameter_type@Uansi_string@?1??type_case_Z@?$output_processor@DV?$stream_output_adapter@D@__crt_stdio_output@@V?$positional_parameter_base@DV?$stream_output_adapter@D@__crt_stdio_output@@@2@@__crt_stdio_output@@AAE_NXZ@@?$positional_parameter_base@DV?$stream_output_adapter@D@__crt_stdio_output@@@__crt_stdio_output@@CA?AW4parameter_type@01@PAUansi_string@?1??type_case_Z@?$output_processor@DV?$stream_output_adapter@D@__crt_stdio_output@@V?$positional_parameter_base@DV?$stream_output_adapter@D@__crt_stdio_output@@@2@@1@AAE_NXZ@@Z 10028260 f i libucrtd:output.obj
 0001:00027270       ??$get_parameter_type@Uansi_string@?1??type_case_Z@?$output_processor@DV?$string_output_adapter@D@__crt_stdio_output@@V?$positional_parameter_base@DV?$string_output_adapter@D@__crt_stdio_output@@@2@@__crt_stdio_output@@AAE_NXZ@@?$positional_parameter_base@DV?$string_output_adapter@D@__crt_stdio_output@@@__crt_stdio_output@@CA?AW4parameter_type@01@PAUansi_string@?1??type_case_Z@?$output_processor@DV?$string_output_adapter@D@__crt_stdio_output@@V?$positional_parameter_base@DV?$string_output_adapter@D@__crt_stdio_output@@@2@@1@AAE_NXZ@@Z 10028270 f i libucrtd:output.obj
 0001:00027280       ??$get_parameter_type@Uansi_string@?1??type_case_Z@?$output_processor@_WV?$stream_output_adapter@_W@__crt_stdio_output@@V?$positional_parameter_base@_WV?$stream_output_adapter@_W@__crt_stdio_output@@@2@@__crt_stdio_output@@AAE_NXZ@@?$positional_parameter_base@_WV?$stream_output_adapter@_W@__crt_stdio_output@@@__crt_stdio_output@@CA?AW4parameter_type@01@PAUansi_string@?1??type_case_Z@?$output_processor@_WV?$stream_output_adapter@_W@__crt_stdio_output@@V?$positional_parameter_base@_WV?$stream_output_adapter@_W@__crt_stdio_output@@@2@@1@AAE_NXZ@@Z 10028280 f i libucrtd:output.obj
 0001:00027290       ??$get_parameter_type@Uansi_string@?1??type_case_Z@?$output_processor@_WV?$string_output_adapter@_W@__crt_stdio_output@@V?$positional_parameter_base@_WV?$string_output_adapter@_W@__crt_stdio_output@@@2@@__crt_stdio_output@@AAE_NXZ@@?$positional_parameter_base@_WV?$string_output_adapter@_W@__crt_stdio_output@@@__crt_stdio_output@@CA?AW4parameter_type@01@PAUansi_string@?1??type_case_Z@?$output_processor@_WV?$string_output_adapter@_W@__crt_stdio_output@@V?$positional_parameter_base@_WV?$string_output_adapter@_W@__crt_stdio_output@@@2@@1@AAE_NXZ@@Z 10028290 f i libucrtd:output.obj
 0001:000272a0       ??$get_parameter_type@X@?$positional_parameter_base@DV?$stream_output_adapter@D@__crt_stdio_output@@@__crt_stdio_output@@CA?AW4parameter_type@01@PAX@Z 100282a0 f i libucrtd:output.obj
 0001:000272b0       ??$get_parameter_type@X@?$positional_parameter_base@DV?$string_output_adapter@D@__crt_stdio_output@@@__crt_stdio_output@@CA?AW4parameter_type@01@PAX@Z 100282b0 f i libucrtd:output.obj
 0001:000272c0       ??$get_parameter_type@X@?$positional_parameter_base@_WV?$stream_output_adapter@_W@__crt_stdio_output@@@__crt_stdio_output@@CA?AW4parameter_type@01@PAX@Z 100282c0 f i libucrtd:output.obj
 0001:000272d0       ??$get_parameter_type@X@?$positional_parameter_base@_WV?$string_output_adapter@_W@__crt_stdio_output@@@__crt_stdio_output@@CA?AW4parameter_type@01@PAX@Z 100282d0 f i libucrtd:output.obj
 0001:000272e0       ??$is_character_specifier@D@?$positional_parameter_base@DV?$stream_output_adapter@D@__crt_stdio_output@@@__crt_stdio_output@@CA_ND@Z 100282e0 f i libucrtd:output.obj
 0001:00027310       ??$is_character_specifier@D@?$positional_parameter_base@DV?$string_output_adapter@D@__crt_stdio_output@@@__crt_stdio_output@@CA_ND@Z 10028310 f i libucrtd:output.obj
 0001:00027340       ??$is_character_specifier@_W@?$positional_parameter_base@_WV?$stream_output_adapter@_W@__crt_stdio_output@@@__crt_stdio_output@@CA_N_W@Z 10028340 f i libucrtd:output.obj
 0001:00027370       ??$is_character_specifier@_W@?$positional_parameter_base@_WV?$string_output_adapter@_W@__crt_stdio_output@@@__crt_stdio_output@@CA_N_W@Z 10028370 f i libucrtd:output.obj
 0001:000273a0       ??$is_integral_specifier@D@?$positional_parameter_base@DV?$stream_output_adapter@D@__crt_stdio_output@@@__crt_stdio_output@@CA_ND@Z 100283a0 f i libucrtd:output.obj
 0001:00027400       ??$is_integral_specifier@D@?$positional_parameter_base@DV?$string_output_adapter@D@__crt_stdio_output@@@__crt_stdio_output@@CA_ND@Z 10028400 f i libucrtd:output.obj
 0001:00027460       ??$is_integral_specifier@_W@?$positional_parameter_base@_WV?$stream_output_adapter@_W@__crt_stdio_output@@@__crt_stdio_output@@CA_N_W@Z 10028460 f i libucrtd:output.obj
 0001:000274c0       ??$is_integral_specifier@_W@?$positional_parameter_base@_WV?$string_output_adapter@_W@__crt_stdio_output@@@__crt_stdio_output@@CA_N_W@Z 100284c0 f i libucrtd:output.obj
 0001:00027520       ??$is_overflow_condition@K@__crt_strtox@@YA_NIK@Z 10028520 f i libucrtd:output.obj
 0001:00027580       ??$is_pointer_specifier@D@?$positional_parameter_base@DV?$stream_output_adapter@D@__crt_stdio_output@@@__crt_stdio_output@@CA_ND@Z 10028580 f i libucrtd:output.obj
 0001:000275b0       ??$is_pointer_specifier@D@?$positional_parameter_base@DV?$string_output_adapter@D@__crt_stdio_output@@@__crt_stdio_output@@CA_ND@Z 100285b0 f i libucrtd:output.obj
 0001:000275e0       ??$is_pointer_specifier@_W@?$positional_parameter_base@_WV?$stream_output_adapter@_W@__crt_stdio_output@@@__crt_stdio_output@@CA_N_W@Z 100285e0 f i libucrtd:output.obj
 0001:00027610       ??$is_pointer_specifier@_W@?$positional_parameter_base@_WV?$string_output_adapter@_W@__crt_stdio_output@@@__crt_stdio_output@@CA_N_W@Z 10028610 f i libucrtd:output.obj
 0001:00027640       ??$is_string_specifier@D@?$positional_parameter_base@DV?$stream_output_adapter@D@__crt_stdio_output@@@__crt_stdio_output@@CA_ND@Z 10028640 f i libucrtd:output.obj
 0001:00027670       ??$is_string_specifier@D@?$positional_parameter_base@DV?$string_output_adapter@D@__crt_stdio_output@@@__crt_stdio_output@@CA_ND@Z 10028670 f i libucrtd:output.obj
 0001:000276a0       ??$is_string_specifier@_W@?$positional_parameter_base@_WV?$stream_output_adapter@_W@__crt_stdio_output@@@__crt_stdio_output@@CA_N_W@Z 100286a0 f i libucrtd:output.obj
 0001:000276d0       ??$is_string_specifier@_W@?$positional_parameter_base@_WV?$string_output_adapter@_W@__crt_stdio_output@@@__crt_stdio_output@@CA_N_W@Z 100286d0 f i libucrtd:output.obj
 0001:00027700       ??$is_wide_character_specifier@D@__crt_stdio_output@@YA_N_KDW4length_modifier@0@@Z 10028700 f i libucrtd:output.obj
 0001:00027780       ??$is_wide_character_specifier@_W@__crt_stdio_output@@YA_N_K_WW4length_modifier@0@@Z 10028780 f i libucrtd:output.obj
 0001:00027840       ??$make_c_string_character_source@DPAPAD@__crt_strtox@@YA?AV?$c_string_character_source@D@0@QBDQAPAD@Z 10028840 f i libucrtd:output.obj
 0001:00027860       ??$make_c_string_character_source@_WPAPA_W@__crt_strtox@@YA?AV?$c_string_character_source@_W@0@QB_WQAPA_W@Z 10028860 f i libucrtd:output.obj
 0001:00027880       ??$parse_integer@KV?$c_string_character_source@D@__crt_strtox@@$0A@@__crt_strtox@@YAKAAV__crt_cached_ptd_host@@V?$c_string_character_source@D@0@H_N@Z 10028880 f i libucrtd:output.obj
 0001:00027bb0       ??$parse_integer@KV?$c_string_character_source@_W@__crt_strtox@@$0A@@__crt_strtox@@YAKAAV__crt_cached_ptd_host@@V?$c_string_character_source@_W@0@H_N@Z 10028bb0 f i libucrtd:output.obj
 0001:00027ef0       ??$peek_va_arg@C@__crt_stdio_output@@YACPAD@Z 10028ef0 f i libucrtd:output.obj
 0001:00027f10       ??$peek_va_arg@E@__crt_stdio_output@@YAEPAD@Z 10028f10 f i libucrtd:output.obj
 0001:00027f30       ??$peek_va_arg@F@__crt_stdio_output@@YAFPAD@Z 10028f30 f i libucrtd:output.obj
 0001:00027f50       ??$peek_va_arg@G@__crt_stdio_output@@YAGPAD@Z 10028f50 f i libucrtd:output.obj
 0001:00027f70       ??$peek_va_arg@H@__crt_stdio_output@@YAHPAD@Z 10028f70 f i libucrtd:output.obj
 0001:00027f90       ??$peek_va_arg@I@__crt_stdio_output@@YAIPAD@Z 10028f90 f i libucrtd:output.obj
 0001:00027fb0       ??$peek_va_arg@PAD@__crt_stdio_output@@YAPADPAD@Z 10028fb0 f i libucrtd:output.obj
 0001:00027fd0       ??$peek_va_arg@PAUansi_string@?1??type_case_Z@?$output_processor@DV?$stream_output_adapter@D@__crt_stdio_output@@V?$positional_parameter_base@DV?$stream_output_adapter@D@__crt_stdio_output@@@2@@__crt_stdio_output@@AAE_NXZ@@__crt_stdio_output@@YAPAUansi_string@?1??type_case_Z@?$output_processor@DV?$stream_output_adapter@D@__crt_stdio_output@@V?$positional_parameter_base@DV?$stream_output_adapter@D@__crt_stdio_output@@@2@@0@AAE_NXZ@PAD@Z 10028fd0 f i libucrtd:output.obj
 0001:00027ff0       ??$peek_va_arg@PAUansi_string@?1??type_case_Z@?$output_processor@DV?$string_output_adapter@D@__crt_stdio_output@@V?$positional_parameter_base@DV?$string_output_adapter@D@__crt_stdio_output@@@2@@__crt_stdio_output@@AAE_NXZ@@__crt_stdio_output@@YAPAUansi_string@?1??type_case_Z@?$output_processor@DV?$string_output_adapter@D@__crt_stdio_output@@V?$positional_parameter_base@DV?$string_output_adapter@D@__crt_stdio_output@@@2@@0@AAE_NXZ@PAD@Z 10028ff0 f i libucrtd:output.obj
 0001:00028010       ??$peek_va_arg@PAUansi_string@?1??type_case_Z@?$output_processor@_WV?$stream_output_adapter@_W@__crt_stdio_output@@V?$positional_parameter_base@_WV?$stream_output_adapter@_W@__crt_stdio_output@@@2@@__crt_stdio_output@@AAE_NXZ@@__crt_stdio_output@@YAPAUansi_string@?1??type_case_Z@?$output_processor@_WV?$stream_output_adapter@_W@__crt_stdio_output@@V?$positional_parameter_base@_WV?$stream_output_adapter@_W@__crt_stdio_output@@@2@@0@AAE_NXZ@PAD@Z 10029010 f i libucrtd:output.obj
 0001:00028030       ??$peek_va_arg@PAUansi_string@?1??type_case_Z@?$output_processor@_WV?$string_output_adapter@_W@__crt_stdio_output@@V?$positional_parameter_base@_WV?$string_output_adapter@_W@__crt_stdio_output@@@2@@__crt_stdio_output@@AAE_NXZ@@__crt_stdio_output@@YAPAUansi_string@?1??type_case_Z@?$output_processor@_WV?$string_output_adapter@_W@__crt_stdio_output@@V?$positional_parameter_base@_WV?$string_output_adapter@_W@__crt_stdio_output@@@2@@0@AAE_NXZ@PAD@Z 10029030 f i libucrtd:output.obj
 0001:00028050       ??$peek_va_arg@PAX@__crt_stdio_output@@YAPAXPAD@Z 10029050 f i libucrtd:output.obj
 0001:00028070       ??$peek_va_arg@U_CRT_DOUBLE@@@__crt_stdio_output@@YA?AU_CRT_DOUBLE@@PAD@Z 10029070 f i libucrtd:output.obj
 0001:00028090       ??$peek_va_arg@_J@__crt_stdio_output@@YA_JPAD@Z 10029090 f i libucrtd:output.obj
 0001:000280b0       ??$peek_va_arg@_K@__crt_stdio_output@@YA_KPAD@Z 100290b0 f i libucrtd:output.obj
 0001:000280d0       ??$peek_va_arg@_W@__crt_stdio_output@@YA_WPAD@Z 100290d0 f i libucrtd:output.obj
 0001:000280f0       ??$puttc_nolock_internal@ABDPAU_iobuf@@AAV__crt_cached_ptd_host@@@?$__crt_char_traits@D@@SAHABD$$QAPAU_iobuf@@AAV__crt_cached_ptd_host@@@Z 100290f0 f i libucrtd:output.obj
 0001:00028110       ??$puttc_nolock_internal@AB_WPAU_iobuf@@AAV__crt_cached_ptd_host@@@?$__crt_char_traits@_W@@SAGAB_W$$QAPAU_iobuf@@AAV__crt_cached_ptd_host@@@Z 10029110 f i libucrtd:output.obj
 0001:00028130       ??$read_va_arg@C@__crt_stdio_output@@YACAAPAD@Z 10029130 f i libucrtd:output.obj
 0001:00028150       ??$read_va_arg@E@__crt_stdio_output@@YAEAAPAD@Z 10029150 f i libucrtd:output.obj
 0001:00028170       ??$read_va_arg@F@__crt_stdio_output@@YAFAAPAD@Z 10029170 f i libucrtd:output.obj
 0001:00028190       ??$read_va_arg@G@__crt_stdio_output@@YAGAAPAD@Z 10029190 f i libucrtd:output.obj
 0001:000281b0       ??$read_va_arg@H@__crt_stdio_output@@YAHAAPAD@Z 100291b0 f i libucrtd:output.obj
 0001:000281d0       ??$read_va_arg@I@__crt_stdio_output@@YAIAAPAD@Z 100291d0 f i libucrtd:output.obj
 0001:000281f0       ??$read_va_arg@PAD@__crt_stdio_output@@YAPADAAPAD@Z 100291f0 f i libucrtd:output.obj
 0001:00028210       ??$read_va_arg@PAUansi_string@?1??type_case_Z@?$output_processor@DV?$stream_output_adapter@D@__crt_stdio_output@@V?$format_validation_base@DV?$stream_output_adapter@D@__crt_stdio_output@@@2@@__crt_stdio_output@@AAE_NXZ@@__crt_stdio_output@@YAPAUansi_string@?1??type_case_Z@?$output_processor@DV?$stream_output_adapter@D@__crt_stdio_output@@V?$format_validation_base@DV?$stream_output_adapter@D@__crt_stdio_output@@@2@@0@AAE_NXZ@AAPAD@Z 10029210 f i libucrtd:output.obj
 0001:00028230       ??$read_va_arg@PAUansi_string@?1??type_case_Z@?$output_processor@DV?$stream_output_adapter@D@__crt_stdio_output@@V?$positional_parameter_base@DV?$stream_output_adapter@D@__crt_stdio_output@@@2@@__crt_stdio_output@@AAE_NXZ@@__crt_stdio_output@@YAPAUansi_string@?1??type_case_Z@?$output_processor@DV?$stream_output_adapter@D@__crt_stdio_output@@V?$positional_parameter_base@DV?$stream_output_adapter@D@__crt_stdio_output@@@2@@0@AAE_NXZ@AAPAD@Z 10029230 f i libucrtd:output.obj
 0001:00028250       ??$read_va_arg@PAUansi_string@?1??type_case_Z@?$output_processor@DV?$stream_output_adapter@D@__crt_stdio_output@@V?$standard_base@DV?$stream_output_adapter@D@__crt_stdio_output@@@2@@__crt_stdio_output@@AAE_NXZ@@__crt_stdio_output@@YAPAUansi_string@?1??type_case_Z@?$output_processor@DV?$stream_output_adapter@D@__crt_stdio_output@@V?$standard_base@DV?$stream_output_adapter@D@__crt_stdio_output@@@2@@0@AAE_NXZ@AAPAD@Z 10029250 f i libucrtd:output.obj
 0001:00028270       ??$read_va_arg@PAUansi_string@?1??type_case_Z@?$output_processor@DV?$string_output_adapter@D@__crt_stdio_output@@V?$format_validation_base@DV?$string_output_adapter@D@__crt_stdio_output@@@2@@__crt_stdio_output@@AAE_NXZ@@__crt_stdio_output@@YAPAUansi_string@?1??type_case_Z@?$output_processor@DV?$string_output_adapter@D@__crt_stdio_output@@V?$format_validation_base@DV?$string_output_adapter@D@__crt_stdio_output@@@2@@0@AAE_NXZ@AAPAD@Z 10029270 f i libucrtd:output.obj
 0001:00028290       ??$read_va_arg@PAUansi_string@?1??type_case_Z@?$output_processor@DV?$string_output_adapter@D@__crt_stdio_output@@V?$positional_parameter_base@DV?$string_output_adapter@D@__crt_stdio_output@@@2@@__crt_stdio_output@@AAE_NXZ@@__crt_stdio_output@@YAPAUansi_string@?1??type_case_Z@?$output_processor@DV?$string_output_adapter@D@__crt_stdio_output@@V?$positional_parameter_base@DV?$string_output_adapter@D@__crt_stdio_output@@@2@@0@AAE_NXZ@AAPAD@Z 10029290 f i libucrtd:output.obj
 0001:000282b0       ??$read_va_arg@PAUansi_string@?1??type_case_Z@?$output_processor@DV?$string_output_adapter@D@__crt_stdio_output@@V?$standard_base@DV?$string_output_adapter@D@__crt_stdio_output@@@2@@__crt_stdio_output@@AAE_NXZ@@__crt_stdio_output@@YAPAUansi_string@?1??type_case_Z@?$output_processor@DV?$string_output_adapter@D@__crt_stdio_output@@V?$standard_base@DV?$string_output_adapter@D@__crt_stdio_output@@@2@@0@AAE_NXZ@AAPAD@Z 100292b0 f i libucrtd:output.obj
 0001:000282d0       ??$read_va_arg@PAUansi_string@?1??type_case_Z@?$output_processor@_WV?$stream_output_adapter@_W@__crt_stdio_output@@V?$format_validation_base@_WV?$stream_output_adapter@_W@__crt_stdio_output@@@2@@__crt_stdio_output@@AAE_NXZ@@__crt_stdio_output@@YAPAUansi_string@?1??type_case_Z@?$output_processor@_WV?$stream_output_adapter@_W@__crt_stdio_output@@V?$format_validation_base@_WV?$stream_output_adapter@_W@__crt_stdio_output@@@2@@0@AAE_NXZ@AAPAD@Z 100292d0 f i libucrtd:output.obj
 0001:000282f0       ??$read_va_arg@PAUansi_string@?1??type_case_Z@?$output_processor@_WV?$stream_output_adapter@_W@__crt_stdio_output@@V?$positional_parameter_base@_WV?$stream_output_adapter@_W@__crt_stdio_output@@@2@@__crt_stdio_output@@AAE_NXZ@@__crt_stdio_output@@YAPAUansi_string@?1??type_case_Z@?$output_processor@_WV?$stream_output_adapter@_W@__crt_stdio_output@@V?$positional_parameter_base@_WV?$stream_output_adapter@_W@__crt_stdio_output@@@2@@0@AAE_NXZ@AAPAD@Z 100292f0 f i libucrtd:output.obj
 0001:00028310       ??$read_va_arg@PAUansi_string@?1??type_case_Z@?$output_processor@_WV?$stream_output_adapter@_W@__crt_stdio_output@@V?$standard_base@_WV?$stream_output_adapter@_W@__crt_stdio_output@@@2@@__crt_stdio_output@@AAE_NXZ@@__crt_stdio_output@@YAPAUansi_string@?1??type_case_Z@?$output_processor@_WV?$stream_output_adapter@_W@__crt_stdio_output@@V?$standard_base@_WV?$stream_output_adapter@_W@__crt_stdio_output@@@2@@0@AAE_NXZ@AAPAD@Z 10029310 f i libucrtd:output.obj
 0001:00028330       ??$read_va_arg@PAUansi_string@?1??type_case_Z@?$output_processor@_WV?$string_output_adapter@_W@__crt_stdio_output@@V?$format_validation_base@_WV?$string_output_adapter@_W@__crt_stdio_output@@@2@@__crt_stdio_output@@AAE_NXZ@@__crt_stdio_output@@YAPAUansi_string@?1??type_case_Z@?$output_processor@_WV?$string_output_adapter@_W@__crt_stdio_output@@V?$format_validation_base@_WV?$string_output_adapter@_W@__crt_stdio_output@@@2@@0@AAE_NXZ@AAPAD@Z 10029330 f i libucrtd:output.obj
 0001:00028350       ??$read_va_arg@PAUansi_string@?1??type_case_Z@?$output_processor@_WV?$string_output_adapter@_W@__crt_stdio_output@@V?$positional_parameter_base@_WV?$string_output_adapter@_W@__crt_stdio_output@@@2@@__crt_stdio_output@@AAE_NXZ@@__crt_stdio_output@@YAPAUansi_string@?1??type_case_Z@?$output_processor@_WV?$string_output_adapter@_W@__crt_stdio_output@@V?$positional_parameter_base@_WV?$string_output_adapter@_W@__crt_stdio_output@@@2@@0@AAE_NXZ@AAPAD@Z 10029350 f i libucrtd:output.obj
 0001:00028370       ??$read_va_arg@PAUansi_string@?1??type_case_Z@?$output_processor@_WV?$string_output_adapter@_W@__crt_stdio_output@@V?$standard_base@_WV?$string_output_adapter@_W@__crt_stdio_output@@@2@@__crt_stdio_output@@AAE_NXZ@@__crt_stdio_output@@YAPAUansi_string@?1??type_case_Z@?$output_processor@_WV?$string_output_adapter@_W@__crt_stdio_output@@V?$standard_base@_WV?$string_output_adapter@_W@__crt_stdio_output@@@2@@0@AAE_NXZ@AAPAD@Z 10029370 f i libucrtd:output.obj
 0001:00028390       ??$read_va_arg@PAX@__crt_stdio_output@@YAPAXAAPAD@Z 10029390 f i libucrtd:output.obj
 0001:000283b0       ??$read_va_arg@U_CRT_DOUBLE@@@__crt_stdio_output@@YA?AU_CRT_DOUBLE@@AAPAD@Z 100293b0 f i libucrtd:output.obj
 0001:000283d0       ??$read_va_arg@_J@__crt_stdio_output@@YA_JAAPAD@Z 100293d0 f i libucrtd:output.obj
 0001:000283f0       ??$read_va_arg@_K@__crt_stdio_output@@YA_KAAPAD@Z 100293f0 f i libucrtd:output.obj
 0001:00028410       ??$read_va_arg@_W@__crt_stdio_output@@YA_WAAPAD@Z 10029410 f i libucrtd:output.obj
 0001:00028430       ??$scratch_count@D@formatting_buffer@__crt_stdio_output@@QBEIXZ 10029430 f i libucrtd:output.obj
 0001:00028450       ??$scratch_data@D@formatting_buffer@__crt_stdio_output@@QAEPADXZ 10029450 f i libucrtd:output.obj
 0001:000284a0       ??$type_case_integer@$07@?$output_processor@DV?$stream_output_adapter@D@__crt_stdio_output@@V?$format_validation_base@DV?$stream_output_adapter@D@__crt_stdio_output@@@2@@__crt_stdio_output@@AAE_N_N@Z 100294a0 f i libucrtd:output.obj
 0001:00028800       ??$type_case_integer@$07@?$output_processor@DV?$stream_output_adapter@D@__crt_stdio_output@@V?$positional_parameter_base@DV?$stream_output_adapter@D@__crt_stdio_output@@@2@@__crt_stdio_output@@AAE_N_N@Z 10029800 f i libucrtd:output.obj
 0001:00028b60       ??$type_case_integer@$07@?$output_processor@DV?$stream_output_adapter@D@__crt_stdio_output@@V?$standard_base@DV?$stream_output_adapter@D@__crt_stdio_output@@@2@@__crt_stdio_output@@AAE_N_N@Z 10029b60 f i libucrtd:output.obj
 0001:00028ec0       ??$type_case_integer@$07@?$output_processor@DV?$string_output_adapter@D@__crt_stdio_output@@V?$format_validation_base@DV?$string_output_adapter@D@__crt_stdio_output@@@2@@__crt_stdio_output@@AAE_N_N@Z 10029ec0 f i libucrtd:output.obj
 0001:00029220       ??$type_case_integer@$07@?$output_processor@DV?$string_output_adapter@D@__crt_stdio_output@@V?$positional_parameter_base@DV?$string_output_adapter@D@__crt_stdio_output@@@2@@__crt_stdio_output@@AAE_N_N@Z 1002a220 f i libucrtd:output.obj
 0001:00029580       ??$type_case_integer@$07@?$output_processor@DV?$string_output_adapter@D@__crt_stdio_output@@V?$standard_base@DV?$string_output_adapter@D@__crt_stdio_output@@@2@@__crt_stdio_output@@AAE_N_N@Z 1002a580 f i libucrtd:output.obj
 0001:000298e0       ??$type_case_integer@$07@?$output_processor@_WV?$stream_output_adapter@_W@__crt_stdio_output@@V?$format_validation_base@_WV?$stream_output_adapter@_W@__crt_stdio_output@@@2@@__crt_stdio_output@@AAE_N_N@Z 1002a8e0 f i libucrtd:output.obj
 0001:00029c40       ??$type_case_integer@$07@?$output_processor@_WV?$stream_output_adapter@_W@__crt_stdio_output@@V?$positional_parameter_base@_WV?$stream_output_adapter@_W@__crt_stdio_output@@@2@@__crt_stdio_output@@AAE_N_N@Z 1002ac40 f i libucrtd:output.obj
 0001:00029fa0       ??$type_case_integer@$07@?$output_processor@_WV?$stream_output_adapter@_W@__crt_stdio_output@@V?$standard_base@_WV?$stream_output_adapter@_W@__crt_stdio_output@@@2@@__crt_stdio_output@@AAE_N_N@Z 1002afa0 f i libucrtd:output.obj
 0001:0002a300       ??$type_case_integer@$07@?$output_processor@_WV?$string_output_adapter@_W@__crt_stdio_output@@V?$format_validation_base@_WV?$string_output_adapter@_W@__crt_stdio_output@@@2@@__crt_stdio_output@@AAE_N_N@Z 1002b300 f i libucrtd:output.obj
 0001:0002a660       ??$type_case_integer@$07@?$output_processor@_WV?$string_output_adapter@_W@__crt_stdio_output@@V?$positional_parameter_base@_WV?$string_output_adapter@_W@__crt_stdio_output@@@2@@__crt_stdio_output@@AAE_N_N@Z 1002b660 f i libucrtd:output.obj
 0001:0002a9c0       ??$type_case_integer@$07@?$output_processor@_WV?$string_output_adapter@_W@__crt_stdio_output@@V?$standard_base@_WV?$string_output_adapter@_W@__crt_stdio_output@@@2@@__crt_stdio_output@@AAE_N_N@Z 1002b9c0 f i libucrtd:output.obj
 0001:0002ad20       ??$type_case_integer@$09@?$output_processor@DV?$stream_output_adapter@D@__crt_stdio_output@@V?$format_validation_base@DV?$stream_output_adapter@D@__crt_stdio_output@@@2@@__crt_stdio_output@@AAE_N_N@Z 1002bd20 f i libucrtd:output.obj
 0001:0002b080       ??$type_case_integer@$09@?$output_processor@DV?$stream_output_adapter@D@__crt_stdio_output@@V?$positional_parameter_base@DV?$stream_output_adapter@D@__crt_stdio_output@@@2@@__crt_stdio_output@@AAE_N_N@Z 1002c080 f i libucrtd:output.obj
 0001:0002b3e0       ??$type_case_integer@$09@?$output_processor@DV?$stream_output_adapter@D@__crt_stdio_output@@V?$standard_base@DV?$stream_output_adapter@D@__crt_stdio_output@@@2@@__crt_stdio_output@@AAE_N_N@Z 1002c3e0 f i libucrtd:output.obj
 0001:0002b740       ??$type_case_integer@$09@?$output_processor@DV?$string_output_adapter@D@__crt_stdio_output@@V?$format_validation_base@DV?$string_output_adapter@D@__crt_stdio_output@@@2@@__crt_stdio_output@@AAE_N_N@Z 1002c740 f i libucrtd:output.obj
 0001:0002baa0       ??$type_case_integer@$09@?$output_processor@DV?$string_output_adapter@D@__crt_stdio_output@@V?$positional_parameter_base@DV?$string_output_adapter@D@__crt_stdio_output@@@2@@__crt_stdio_output@@AAE_N_N@Z 1002caa0 f i libucrtd:output.obj
 0001:0002be00       ??$type_case_integer@$09@?$output_processor@DV?$string_output_adapter@D@__crt_stdio_output@@V?$standard_base@DV?$string_output_adapter@D@__crt_stdio_output@@@2@@__crt_stdio_output@@AAE_N_N@Z 1002ce00 f i libucrtd:output.obj
 0001:0002c160       ??$type_case_integer@$09@?$output_processor@_WV?$stream_output_adapter@_W@__crt_stdio_output@@V?$format_validation_base@_WV?$stream_output_adapter@_W@__crt_stdio_output@@@2@@__crt_stdio_output@@AAE_N_N@Z 1002d160 f i libucrtd:output.obj
 0001:0002c4c0       ??$type_case_integer@$09@?$output_processor@_WV?$stream_output_adapter@_W@__crt_stdio_output@@V?$positional_parameter_base@_WV?$stream_output_adapter@_W@__crt_stdio_output@@@2@@__crt_stdio_output@@AAE_N_N@Z 1002d4c0 f i libucrtd:output.obj
 0001:0002c820       ??$type_case_integer@$09@?$output_processor@_WV?$stream_output_adapter@_W@__crt_stdio_output@@V?$standard_base@_WV?$stream_output_adapter@_W@__crt_stdio_output@@@2@@__crt_stdio_output@@AAE_N_N@Z 1002d820 f i libucrtd:output.obj
 0001:0002cb80       ??$type_case_integer@$09@?$output_processor@_WV?$string_output_adapter@_W@__crt_stdio_output@@V?$format_validation_base@_WV?$string_output_adapter@_W@__crt_stdio_output@@@2@@__crt_stdio_output@@AAE_N_N@Z 1002db80 f i libucrtd:output.obj
 0001:0002cee0       ??$type_case_integer@$09@?$output_processor@_WV?$string_output_adapter@_W@__crt_stdio_output@@V?$positional_parameter_base@_WV?$string_output_adapter@_W@__crt_stdio_output@@@2@@__crt_stdio_output@@AAE_N_N@Z 1002dee0 f i libucrtd:output.obj
 0001:0002d240       ??$type_case_integer@$09@?$output_processor@_WV?$string_output_adapter@_W@__crt_stdio_output@@V?$standard_base@_WV?$string_output_adapter@_W@__crt_stdio_output@@@2@@__crt_stdio_output@@AAE_N_N@Z 1002e240 f i libucrtd:output.obj
 0001:0002d5a0       ??$type_case_integer@$0BA@@?$output_processor@DV?$stream_output_adapter@D@__crt_stdio_output@@V?$format_validation_base@DV?$stream_output_adapter@D@__crt_stdio_output@@@2@@__crt_stdio_output@@AAE_N_N@Z 1002e5a0 f i libucrtd:output.obj
 0001:0002d900       ??$type_case_integer@$0BA@@?$output_processor@DV?$stream_output_adapter@D@__crt_stdio_output@@V?$positional_parameter_base@DV?$stream_output_adapter@D@__crt_stdio_output@@@2@@__crt_stdio_output@@AAE_N_N@Z 1002e900 f i libucrtd:output.obj
 0001:0002dc60       ??$type_case_integer@$0BA@@?$output_processor@DV?$stream_output_adapter@D@__crt_stdio_output@@V?$standard_base@DV?$stream_output_adapter@D@__crt_stdio_output@@@2@@__crt_stdio_output@@AAE_N_N@Z 1002ec60 f i libucrtd:output.obj
 0001:0002dfc0       ??$type_case_integer@$0BA@@?$output_processor@DV?$string_output_adapter@D@__crt_stdio_output@@V?$format_validation_base@DV?$string_output_adapter@D@__crt_stdio_output@@@2@@__crt_stdio_output@@AAE_N_N@Z 1002efc0 f i libucrtd:output.obj
 0001:0002e320       ??$type_case_integer@$0BA@@?$output_processor@DV?$string_output_adapter@D@__crt_stdio_output@@V?$positional_parameter_base@DV?$string_output_adapter@D@__crt_stdio_output@@@2@@__crt_stdio_output@@AAE_N_N@Z 1002f320 f i libucrtd:output.obj
 0001:0002e680       ??$type_case_integer@$0BA@@?$output_processor@DV?$string_output_adapter@D@__crt_stdio_output@@V?$standard_base@DV?$string_output_adapter@D@__crt_stdio_output@@@2@@__crt_stdio_output@@AAE_N_N@Z 1002f680 f i libucrtd:output.obj
 0001:0002e9e0       ??$type_case_integer@$0BA@@?$output_processor@_WV?$stream_output_adapter@_W@__crt_stdio_output@@V?$format_validation_base@_WV?$stream_output_adapter@_W@__crt_stdio_output@@@2@@__crt_stdio_output@@AAE_N_N@Z 1002f9e0 f i libucrtd:output.obj
 0001:0002ed40       ??$type_case_integer@$0BA@@?$output_processor@_WV?$stream_output_adapter@_W@__crt_stdio_output@@V?$positional_parameter_base@_WV?$stream_output_adapter@_W@__crt_stdio_output@@@2@@__crt_stdio_output@@AAE_N_N@Z 1002fd40 f i libucrtd:output.obj
 0001:0002f0a0       ??$type_case_integer@$0BA@@?$output_processor@_WV?$stream_output_adapter@_W@__crt_stdio_output@@V?$standard_base@_WV?$stream_output_adapter@_W@__crt_stdio_output@@@2@@__crt_stdio_output@@AAE_N_N@Z 100300a0 f i libucrtd:output.obj
 0001:0002f400       ??$type_case_integer@$0BA@@?$output_processor@_WV?$string_output_adapter@_W@__crt_stdio_output@@V?$format_validation_base@_WV?$string_output_adapter@_W@__crt_stdio_output@@@2@@__crt_stdio_output@@AAE_N_N@Z 10030400 f i libucrtd:output.obj
 0001:0002f760       ??$type_case_integer@$0BA@@?$output_processor@_WV?$string_output_adapter@_W@__crt_stdio_output@@V?$positional_parameter_base@_WV?$string_output_adapter@_W@__crt_stdio_output@@@2@@__crt_stdio_output@@AAE_N_N@Z 10030760 f i libucrtd:output.obj
 0001:0002fac0       ??$type_case_integer@$0BA@@?$output_processor@_WV?$string_output_adapter@_W@__crt_stdio_output@@V?$standard_base@_WV?$string_output_adapter@_W@__crt_stdio_output@@@2@@__crt_stdio_output@@AAE_N_N@Z 10030ac0 f i libucrtd:output.obj
 0001:0002fe20       ??$type_case_integer_parse_into_buffer@I$07@?$output_processor@DV?$stream_output_adapter@D@__crt_stdio_output@@V?$format_validation_base@DV?$stream_output_adapter@D@__crt_stdio_output@@@2@@__crt_stdio_output@@AAEXI_N@Z 10030e20 f i libucrtd:output.obj
 0001:0002fef0       ??$type_case_integer_parse_into_buffer@I$07@?$output_processor@DV?$stream_output_adapter@D@__crt_stdio_output@@V?$positional_parameter_base@DV?$stream_output_adapter@D@__crt_stdio_output@@@2@@__crt_stdio_output@@AAEXI_N@Z 10030ef0 f i libucrtd:output.obj
 0001:0002ffc0       ??$type_case_integer_parse_into_buffer@I$07@?$output_processor@DV?$stream_output_adapter@D@__crt_stdio_output@@V?$standard_base@DV?$stream_output_adapter@D@__crt_stdio_output@@@2@@__crt_stdio_output@@AAEXI_N@Z 10030fc0 f i libucrtd:output.obj
 0001:00030090       ??$type_case_integer_parse_into_buffer@I$07@?$output_processor@DV?$string_output_adapter@D@__crt_stdio_output@@V?$format_validation_base@DV?$string_output_adapter@D@__crt_stdio_output@@@2@@__crt_stdio_output@@AAEXI_N@Z 10031090 f i libucrtd:output.obj
 0001:00030160       ??$type_case_integer_parse_into_buffer@I$07@?$output_processor@DV?$string_output_adapter@D@__crt_stdio_output@@V?$positional_parameter_base@DV?$string_output_adapter@D@__crt_stdio_output@@@2@@__crt_stdio_output@@AAEXI_N@Z 10031160 f i libucrtd:output.obj
 0001:00030230       ??$type_case_integer_parse_into_buffer@I$07@?$output_processor@DV?$string_output_adapter@D@__crt_stdio_output@@V?$standard_base@DV?$string_output_adapter@D@__crt_stdio_output@@@2@@__crt_stdio_output@@AAEXI_N@Z 10031230 f i libucrtd:output.obj
 0001:00030300       ??$type_case_integer_parse_into_buffer@I$07@?$output_processor@_WV?$stream_output_adapter@_W@__crt_stdio_output@@V?$format_validation_base@_WV?$stream_output_adapter@_W@__crt_stdio_output@@@2@@__crt_stdio_output@@AAEXI_N@Z 10031300 f i libucrtd:output.obj
 0001:000303e0       ??$type_case_integer_parse_into_buffer@I$07@?$output_processor@_WV?$stream_output_adapter@_W@__crt_stdio_output@@V?$positional_parameter_base@_WV?$stream_output_adapter@_W@__crt_stdio_output@@@2@@__crt_stdio_output@@AAEXI_N@Z 100313e0 f i libucrtd:output.obj
 0001:000304c0       ??$type_case_integer_parse_into_buffer@I$07@?$output_processor@_WV?$stream_output_adapter@_W@__crt_stdio_output@@V?$standard_base@_WV?$stream_output_adapter@_W@__crt_stdio_output@@@2@@__crt_stdio_output@@AAEXI_N@Z 100314c0 f i libucrtd:output.obj
 0001:000305a0       ??$type_case_integer_parse_into_buffer@I$07@?$output_processor@_WV?$string_output_adapter@_W@__crt_stdio_output@@V?$format_validation_base@_WV?$string_output_adapter@_W@__crt_stdio_output@@@2@@__crt_stdio_output@@AAEXI_N@Z 100315a0 f i libucrtd:output.obj
 0001:00030680       ??$type_case_integer_parse_into_buffer@I$07@?$output_processor@_WV?$string_output_adapter@_W@__crt_stdio_output@@V?$positional_parameter_base@_WV?$string_output_adapter@_W@__crt_stdio_output@@@2@@__crt_stdio_output@@AAEXI_N@Z 10031680 f i libucrtd:output.obj
 0001:00030760       ??$type_case_integer_parse_into_buffer@I$07@?$output_processor@_WV?$string_output_adapter@_W@__crt_stdio_output@@V?$standard_base@_WV?$string_output_adapter@_W@__crt_stdio_output@@@2@@__crt_stdio_output@@AAEXI_N@Z 10031760 f i libucrtd:output.obj
 0001:00030840       ??$type_case_integer_parse_into_buffer@I$09@?$output_processor@DV?$stream_output_adapter@D@__crt_stdio_output@@V?$format_validation_base@DV?$stream_output_adapter@D@__crt_stdio_output@@@2@@__crt_stdio_output@@AAEXI_N@Z 10031840 f i libucrtd:output.obj
 0001:00030920       ??$type_case_integer_parse_into_buffer@I$09@?$output_processor@DV?$stream_output_adapter@D@__crt_stdio_output@@V?$positional_parameter_base@DV?$stream_output_adapter@D@__crt_stdio_output@@@2@@__crt_stdio_output@@AAEXI_N@Z 10031920 f i libucrtd:output.obj
 0001:00030a00       ??$type_case_integer_parse_into_buffer@I$09@?$output_processor@DV?$stream_output_adapter@D@__crt_stdio_output@@V?$standard_base@DV?$stream_output_adapter@D@__crt_stdio_output@@@2@@__crt_stdio_output@@AAEXI_N@Z 10031a00 f i libucrtd:output.obj
 0001:00030ae0       ??$type_case_integer_parse_into_buffer@I$09@?$output_processor@DV?$string_output_adapter@D@__crt_stdio_output@@V?$format_validation_base@DV?$string_output_adapter@D@__crt_stdio_output@@@2@@__crt_stdio_output@@AAEXI_N@Z 10031ae0 f i libucrtd:output.obj
 0001:00030bc0       ??$type_case_integer_parse_into_buffer@I$09@?$output_processor@DV?$string_output_adapter@D@__crt_stdio_output@@V?$positional_parameter_base@DV?$string_output_adapter@D@__crt_stdio_output@@@2@@__crt_stdio_output@@AAEXI_N@Z 10031bc0 f i libucrtd:output.obj
 0001:00030ca0       ??$type_case_integer_parse_into_buffer@I$09@?$output_processor@DV?$string_output_adapter@D@__crt_stdio_output@@V?$standard_base@DV?$string_output_adapter@D@__crt_stdio_output@@@2@@__crt_stdio_output@@AAEXI_N@Z 10031ca0 f i libucrtd:output.obj
 0001:00030d80       ??$type_case_integer_parse_into_buffer@I$09@?$output_processor@_WV?$stream_output_adapter@_W@__crt_stdio_output@@V?$format_validation_base@_WV?$stream_output_adapter@_W@__crt_stdio_output@@@2@@__crt_stdio_output@@AAEXI_N@Z 10031d80 f i libucrtd:output.obj
 0001:00030e70       ??$type_case_integer_parse_into_buffer@I$09@?$output_processor@_WV?$stream_output_adapter@_W@__crt_stdio_output@@V?$positional_parameter_base@_WV?$stream_output_adapter@_W@__crt_stdio_output@@@2@@__crt_stdio_output@@AAEXI_N@Z 10031e70 f i libucrtd:output.obj
 0001:00030f60       ??$type_case_integer_parse_into_buffer@I$09@?$output_processor@_WV?$stream_output_adapter@_W@__crt_stdio_output@@V?$standard_base@_WV?$stream_output_adapter@_W@__crt_stdio_output@@@2@@__crt_stdio_output@@AAEXI_N@Z 10031f60 f i libucrtd:output.obj
 0001:00031050       ??$type_case_integer_parse_into_buffer@I$09@?$output_processor@_WV?$string_output_adapter@_W@__crt_stdio_output@@V?$format_validation_base@_WV?$string_output_adapter@_W@__crt_stdio_output@@@2@@__crt_stdio_output@@AAEXI_N@Z 10032050 f i libucrtd:output.obj
 0001:00031140       ??$type_case_integer_parse_into_buffer@I$09@?$output_processor@_WV?$string_output_adapter@_W@__crt_stdio_output@@V?$positional_parameter_base@_WV?$string_output_adapter@_W@__crt_stdio_output@@@2@@__crt_stdio_output@@AAEXI_N@Z 10032140 f i libucrtd:output.obj
 0001:00031230       ??$type_case_integer_parse_into_buffer@I$09@?$output_processor@_WV?$string_output_adapter@_W@__crt_stdio_output@@V?$standard_base@_WV?$string_output_adapter@_W@__crt_stdio_output@@@2@@__crt_stdio_output@@AAEXI_N@Z 10032230 f i libucrtd:output.obj
 0001:00031320       ??$type_case_integer_parse_into_buffer@I$0BA@@?$output_processor@DV?$stream_output_adapter@D@__crt_stdio_output@@V?$format_validation_base@DV?$stream_output_adapter@D@__crt_stdio_output@@@2@@__crt_stdio_output@@AAEXI_N@Z 10032320 f i libucrtd:output.obj
 0001:000313f0       ??$type_case_integer_parse_into_buffer@I$0BA@@?$output_processor@DV?$stream_output_adapter@D@__crt_stdio_output@@V?$positional_parameter_base@DV?$stream_output_adapter@D@__crt_stdio_output@@@2@@__crt_stdio_output@@AAEXI_N@Z 100323f0 f i libucrtd:output.obj
 0001:000314c0       ??$type_case_integer_parse_into_buffer@I$0BA@@?$output_processor@DV?$stream_output_adapter@D@__crt_stdio_output@@V?$standard_base@DV?$stream_output_adapter@D@__crt_stdio_output@@@2@@__crt_stdio_output@@AAEXI_N@Z 100324c0 f i libucrtd:output.obj
 0001:00031590       ??$type_case_integer_parse_into_buffer@I$0BA@@?$output_processor@DV?$string_output_adapter@D@__crt_stdio_output@@V?$format_validation_base@DV?$string_output_adapter@D@__crt_stdio_output@@@2@@__crt_stdio_output@@AAEXI_N@Z 10032590 f i libucrtd:output.obj
 0001:00031660       ??$type_case_integer_parse_into_buffer@I$0BA@@?$output_processor@DV?$string_output_adapter@D@__crt_stdio_output@@V?$positional_parameter_base@DV?$string_output_adapter@D@__crt_stdio_output@@@2@@__crt_stdio_output@@AAEXI_N@Z 10032660 f i libucrtd:output.obj
 0001:00031730       ??$type_case_integer_parse_into_buffer@I$0BA@@?$output_processor@DV?$string_output_adapter@D@__crt_stdio_output@@V?$standard_base@DV?$string_output_adapter@D@__crt_stdio_output@@@2@@__crt_stdio_output@@AAEXI_N@Z 10032730 f i libucrtd:output.obj
 0001:00031800       ??$type_case_integer_parse_into_buffer@I$0BA@@?$output_processor@_WV?$stream_output_adapter@_W@__crt_stdio_output@@V?$format_validation_base@_WV?$stream_output_adapter@_W@__crt_stdio_output@@@2@@__crt_stdio_output@@AAEXI_N@Z 10032800 f i libucrtd:output.obj
 0001:000318e0       ??$type_case_integer_parse_into_buffer@I$0BA@@?$output_processor@_WV?$stream_output_adapter@_W@__crt_stdio_output@@V?$positional_parameter_base@_WV?$stream_output_adapter@_W@__crt_stdio_output@@@2@@__crt_stdio_output@@AAEXI_N@Z 100328e0 f i libucrtd:output.obj
 0001:000319c0       ??$type_case_integer_parse_into_buffer@I$0BA@@?$output_processor@_WV?$stream_output_adapter@_W@__crt_stdio_output@@V?$standard_base@_WV?$stream_output_adapter@_W@__crt_stdio_output@@@2@@__crt_stdio_output@@AAEXI_N@Z 100329c0 f i libucrtd:output.obj
 0001:00031aa0       ??$type_case_integer_parse_into_buffer@I$0BA@@?$output_processor@_WV?$string_output_adapter@_W@__crt_stdio_output@@V?$format_validation_base@_WV?$string_output_adapter@_W@__crt_stdio_output@@@2@@__crt_stdio_output@@AAEXI_N@Z 10032aa0 f i libucrtd:output.obj
 0001:00031b80       ??$type_case_integer_parse_into_buffer@I$0BA@@?$output_processor@_WV?$string_output_adapter@_W@__crt_stdio_output@@V?$positional_parameter_base@_WV?$string_output_adapter@_W@__crt_stdio_output@@@2@@__crt_stdio_output@@AAEXI_N@Z 10032b80 f i libucrtd:output.obj
 0001:00031c60       ??$type_case_integer_parse_into_buffer@I$0BA@@?$output_processor@_WV?$string_output_adapter@_W@__crt_stdio_output@@V?$standard_base@_WV?$string_output_adapter@_W@__crt_stdio_output@@@2@@__crt_stdio_output@@AAEXI_N@Z 10032c60 f i libucrtd:output.obj
 0001:00031d40       ??$type_case_integer_parse_into_buffer@_K$07@?$output_processor@DV?$stream_output_adapter@D@__crt_stdio_output@@V?$format_validation_base@DV?$stream_output_adapter@D@__crt_stdio_output@@@2@@__crt_stdio_output@@AAEX_K_N@Z 10032d40 f i libucrtd:output.obj
 0001:00031e30       ??$type_case_integer_parse_into_buffer@_K$07@?$output_processor@DV?$stream_output_adapter@D@__crt_stdio_output@@V?$positional_parameter_base@DV?$stream_output_adapter@D@__crt_stdio_output@@@2@@__crt_stdio_output@@AAEX_K_N@Z 10032e30 f i libucrtd:output.obj
 0001:00031f20       ??$type_case_integer_parse_into_buffer@_K$07@?$output_processor@DV?$stream_output_adapter@D@__crt_stdio_output@@V?$standard_base@DV?$stream_output_adapter@D@__crt_stdio_output@@@2@@__crt_stdio_output@@AAEX_K_N@Z 10032f20 f i libucrtd:output.obj
 0001:00032010       ??$type_case_integer_parse_into_buffer@_K$07@?$output_processor@DV?$string_output_adapter@D@__crt_stdio_output@@V?$format_validation_base@DV?$string_output_adapter@D@__crt_stdio_output@@@2@@__crt_stdio_output@@AAEX_K_N@Z 10033010 f i libucrtd:output.obj
 0001:00032100       ??$type_case_integer_parse_into_buffer@_K$07@?$output_processor@DV?$string_output_adapter@D@__crt_stdio_output@@V?$positional_parameter_base@DV?$string_output_adapter@D@__crt_stdio_output@@@2@@__crt_stdio_output@@AAEX_K_N@Z 10033100 f i libucrtd:output.obj
 0001:000321f0       ??$type_case_integer_parse_into_buffer@_K$07@?$output_processor@DV?$string_output_adapter@D@__crt_stdio_output@@V?$standard_base@DV?$string_output_adapter@D@__crt_stdio_output@@@2@@__crt_stdio_output@@AAEX_K_N@Z 100331f0 f i libucrtd:output.obj
 0001:000322e0       ??$type_case_integer_parse_into_buffer@_K$07@?$output_processor@_WV?$stream_output_adapter@_W@__crt_stdio_output@@V?$format_validation_base@_WV?$stream_output_adapter@_W@__crt_stdio_output@@@2@@__crt_stdio_output@@AAEX_K_N@Z 100332e0 f i libucrtd:output.obj
 0001:000323e0       ??$type_case_integer_parse_into_buffer@_K$07@?$output_processor@_WV?$stream_output_adapter@_W@__crt_stdio_output@@V?$positional_parameter_base@_WV?$stream_output_adapter@_W@__crt_stdio_output@@@2@@__crt_stdio_output@@AAEX_K_N@Z 100333e0 f i libucrtd:output.obj
 0001:000324e0       ??$type_case_integer_parse_into_buffer@_K$07@?$output_processor@_WV?$stream_output_adapter@_W@__crt_stdio_output@@V?$standard_base@_WV?$stream_output_adapter@_W@__crt_stdio_output@@@2@@__crt_stdio_output@@AAEX_K_N@Z 100334e0 f i libucrtd:output.obj
 0001:000325e0       ??$type_case_integer_parse_into_buffer@_K$07@?$output_processor@_WV?$string_output_adapter@_W@__crt_stdio_output@@V?$format_validation_base@_WV?$string_output_adapter@_W@__crt_stdio_output@@@2@@__crt_stdio_output@@AAEX_K_N@Z 100335e0 f i libucrtd:output.obj
 0001:000326e0       ??$type_case_integer_parse_into_buffer@_K$07@?$output_processor@_WV?$string_output_adapter@_W@__crt_stdio_output@@V?$positional_parameter_base@_WV?$string_output_adapter@_W@__crt_stdio_output@@@2@@__crt_stdio_output@@AAEX_K_N@Z 100336e0 f i libucrtd:output.obj
 0001:000327e0       ??$type_case_integer_parse_into_buffer@_K$07@?$output_processor@_WV?$string_output_adapter@_W@__crt_stdio_output@@V?$standard_base@_WV?$string_output_adapter@_W@__crt_stdio_output@@@2@@__crt_stdio_output@@AAEX_K_N@Z 100337e0 f i libucrtd:output.obj
 0001:000328e0       ??$type_case_integer_parse_into_buffer@_K$09@?$output_processor@DV?$stream_output_adapter@D@__crt_stdio_output@@V?$format_validation_base@DV?$stream_output_adapter@D@__crt_stdio_output@@@2@@__crt_stdio_output@@AAEX_K_N@Z 100338e0 f i libucrtd:output.obj
 0001:000329d0       ??$type_case_integer_parse_into_buffer@_K$09@?$output_processor@DV?$stream_output_adapter@D@__crt_stdio_output@@V?$positional_parameter_base@DV?$stream_output_adapter@D@__crt_stdio_output@@@2@@__crt_stdio_output@@AAEX_K_N@Z 100339d0 f i libucrtd:output.obj
 0001:00032ac0       ??$type_case_integer_parse_into_buffer@_K$09@?$output_processor@DV?$stream_output_adapter@D@__crt_stdio_output@@V?$standard_base@DV?$stream_output_adapter@D@__crt_stdio_output@@@2@@__crt_stdio_output@@AAEX_K_N@Z 10033ac0 f i libucrtd:output.obj
 0001:00032bb0       ??$type_case_integer_parse_into_buffer@_K$09@?$output_processor@DV?$string_output_adapter@D@__crt_stdio_output@@V?$format_validation_base@DV?$string_output_adapter@D@__crt_stdio_output@@@2@@__crt_stdio_output@@AAEX_K_N@Z 10033bb0 f i libucrtd:output.obj
 0001:00032ca0       ??$type_case_integer_parse_into_buffer@_K$09@?$output_processor@DV?$string_output_adapter@D@__crt_stdio_output@@V?$positional_parameter_base@DV?$string_output_adapter@D@__crt_stdio_output@@@2@@__crt_stdio_output@@AAEX_K_N@Z 10033ca0 f i libucrtd:output.obj
 0001:00032d90       ??$type_case_integer_parse_into_buffer@_K$09@?$output_processor@DV?$string_output_adapter@D@__crt_stdio_output@@V?$standard_base@DV?$string_output_adapter@D@__crt_stdio_output@@@2@@__crt_stdio_output@@AAEX_K_N@Z 10033d90 f i libucrtd:output.obj
 0001:00032e80       ??$type_case_integer_parse_into_buffer@_K$09@?$output_processor@_WV?$stream_output_adapter@_W@__crt_stdio_output@@V?$format_validation_base@_WV?$stream_output_adapter@_W@__crt_stdio_output@@@2@@__crt_stdio_output@@AAEX_K_N@Z 10033e80 f i libucrtd:output.obj
 0001:00032f80       ??$type_case_integer_parse_into_buffer@_K$09@?$output_processor@_WV?$stream_output_adapter@_W@__crt_stdio_output@@V?$positional_parameter_base@_WV?$stream_output_adapter@_W@__crt_stdio_output@@@2@@__crt_stdio_output@@AAEX_K_N@Z 10033f80 f i libucrtd:output.obj
 0001:00033080       ??$type_case_integer_parse_into_buffer@_K$09@?$output_processor@_WV?$stream_output_adapter@_W@__crt_stdio_output@@V?$standard_base@_WV?$stream_output_adapter@_W@__crt_stdio_output@@@2@@__crt_stdio_output@@AAEX_K_N@Z 10034080 f i libucrtd:output.obj
 0001:00033180       ??$type_case_integer_parse_into_buffer@_K$09@?$output_processor@_WV?$string_output_adapter@_W@__crt_stdio_output@@V?$format_validation_base@_WV?$string_output_adapter@_W@__crt_stdio_output@@@2@@__crt_stdio_output@@AAEX_K_N@Z 10034180 f i libucrtd:output.obj
 0001:00033280       ??$type_case_integer_parse_into_buffer@_K$09@?$output_processor@_WV?$string_output_adapter@_W@__crt_stdio_output@@V?$positional_parameter_base@_WV?$string_output_adapter@_W@__crt_stdio_output@@@2@@__crt_stdio_output@@AAEX_K_N@Z 10034280 f i libucrtd:output.obj
 0001:00033380       ??$type_case_integer_parse_into_buffer@_K$09@?$output_processor@_WV?$string_output_adapter@_W@__crt_stdio_output@@V?$standard_base@_WV?$string_output_adapter@_W@__crt_stdio_output@@@2@@__crt_stdio_output@@AAEX_K_N@Z 10034380 f i libucrtd:output.obj
 0001:00033480       ??$type_case_integer_parse_into_buffer@_K$0BA@@?$output_processor@DV?$stream_output_adapter@D@__crt_stdio_output@@V?$format_validation_base@DV?$stream_output_adapter@D@__crt_stdio_output@@@2@@__crt_stdio_output@@AAEX_K_N@Z 10034480 f i libucrtd:output.obj
 0001:00033570       ??$type_case_integer_parse_into_buffer@_K$0BA@@?$output_processor@DV?$stream_output_adapter@D@__crt_stdio_output@@V?$positional_parameter_base@DV?$stream_output_adapter@D@__crt_stdio_output@@@2@@__crt_stdio_output@@AAEX_K_N@Z 10034570 f i libucrtd:output.obj
 0001:00033660       ??$type_case_integer_parse_into_buffer@_K$0BA@@?$output_processor@DV?$stream_output_adapter@D@__crt_stdio_output@@V?$standard_base@DV?$stream_output_adapter@D@__crt_stdio_output@@@2@@__crt_stdio_output@@AAEX_K_N@Z 10034660 f i libucrtd:output.obj
 0001:00033750       ??$type_case_integer_parse_into_buffer@_K$0BA@@?$output_processor@DV?$string_output_adapter@D@__crt_stdio_output@@V?$format_validation_base@DV?$string_output_adapter@D@__crt_stdio_output@@@2@@__crt_stdio_output@@AAEX_K_N@Z 10034750 f i libucrtd:output.obj
 0001:00033840       ??$type_case_integer_parse_into_buffer@_K$0BA@@?$output_processor@DV?$string_output_adapter@D@__crt_stdio_output@@V?$positional_parameter_base@DV?$string_output_adapter@D@__crt_stdio_output@@@2@@__crt_stdio_output@@AAEX_K_N@Z 10034840 f i libucrtd:output.obj
 0001:00033930       ??$type_case_integer_parse_into_buffer@_K$0BA@@?$output_processor@DV?$string_output_adapter@D@__crt_stdio_output@@V?$standard_base@DV?$string_output_adapter@D@__crt_stdio_output@@@2@@__crt_stdio_output@@AAEX_K_N@Z 10034930 f i libucrtd:output.obj
 0001:00033a20       ??$type_case_integer_parse_into_buffer@_K$0BA@@?$output_processor@_WV?$stream_output_adapter@_W@__crt_stdio_output@@V?$format_validation_base@_WV?$stream_output_adapter@_W@__crt_stdio_output@@@2@@__crt_stdio_output@@AAEX_K_N@Z 10034a20 f i libucrtd:output.obj
 0001:00033b20       ??$type_case_integer_parse_into_buffer@_K$0BA@@?$output_processor@_WV?$stream_output_adapter@_W@__crt_stdio_output@@V?$positional_parameter_base@_WV?$stream_output_adapter@_W@__crt_stdio_output@@@2@@__crt_stdio_output@@AAEX_K_N@Z 10034b20 f i libucrtd:output.obj
 0001:00033c20       ??$type_case_integer_parse_into_buffer@_K$0BA@@?$output_processor@_WV?$stream_output_adapter@_W@__crt_stdio_output@@V?$standard_base@_WV?$stream_output_adapter@_W@__crt_stdio_output@@@2@@__crt_stdio_output@@AAEX_K_N@Z 10034c20 f i libucrtd:output.obj
 0001:00033d20       ??$type_case_integer_parse_into_buffer@_K$0BA@@?$output_processor@_WV?$string_output_adapter@_W@__crt_stdio_output@@V?$format_validation_base@_WV?$string_output_adapter@_W@__crt_stdio_output@@@2@@__crt_stdio_output@@AAEX_K_N@Z 10034d20 f i libucrtd:output.obj
 0001:00033e20       ??$type_case_integer_parse_into_buffer@_K$0BA@@?$output_processor@_WV?$string_output_adapter@_W@__crt_stdio_output@@V?$positional_parameter_base@_WV?$string_output_adapter@_W@__crt_stdio_output@@@2@@__crt_stdio_output@@AAEX_K_N@Z 10034e20 f i libucrtd:output.obj
 0001:00033f20       ??$type_case_integer_parse_into_buffer@_K$0BA@@?$output_processor@_WV?$string_output_adapter@_W@__crt_stdio_output@@V?$standard_base@_WV?$string_output_adapter@_W@__crt_stdio_output@@@2@@__crt_stdio_output@@AAEX_K_N@Z 10034f20 f i libucrtd:output.obj
 0001:00034020       ??$write_multiple_characters@V?$stream_output_adapter@D@__crt_stdio_output@@D@__crt_stdio_output@@YAXABV?$stream_output_adapter@D@0@DHQAHAAV__crt_cached_ptd_host@@@Z 10035020 f i libucrtd:output.obj
 0001:00034070       ??$write_multiple_characters@V?$stream_output_adapter@_W@__crt_stdio_output@@D@__crt_stdio_output@@YAXABV?$stream_output_adapter@_W@0@DHQAHAAV__crt_cached_ptd_host@@@Z 10035070 f i libucrtd:output.obj
 0001:000340c0       ??$write_multiple_characters@V?$string_output_adapter@D@__crt_stdio_output@@D@__crt_stdio_output@@YAXABV?$string_output_adapter@D@0@DHQAHAAV__crt_cached_ptd_host@@@Z 100350c0 f i libucrtd:output.obj
 0001:00034110       ??$write_multiple_characters@V?$string_output_adapter@_W@__crt_stdio_output@@D@__crt_stdio_output@@YAXABV?$string_output_adapter@_W@0@DHQAHAAV__crt_cached_ptd_host@@@Z 10035110 f i libucrtd:output.obj
 0001:00034460       ??0?$c_string_character_source@D@__crt_strtox@@QAE@QBDQAPBD@Z 10035460 f i libucrtd:output.obj
 0001:000344a0       ??0?$c_string_character_source@_W@__crt_strtox@@QAE@QB_WQAPB_W@Z 100354a0 f i libucrtd:output.obj
 0001:000344e0       ??0?$cached@H@__crt_cached_ptd_host@@QAE@XZ 100354e0 f i libucrtd:output.obj
 0001:00034500       ??0?$cached@K@__crt_cached_ptd_host@@QAE@XZ 10035500 f i libucrtd:output.obj
 0001:00034520       ??0?$common_data@D@__crt_stdio_output@@IAE@AAV__crt_cached_ptd_host@@@Z 10035520 f i libucrtd:output.obj
 0001:000345c0       ??0?$common_data@_W@__crt_stdio_output@@IAE@AAV__crt_cached_ptd_host@@@Z 100355c0 f i libucrtd:output.obj
 0001:00034660       ??0?$output_adapter_data@DV?$stream_output_adapter@D@__crt_stdio_output@@@__crt_stdio_output@@IAE@ABV?$stream_output_adapter@D@1@_KQBDAAV__crt_cached_ptd_host@@QAD@Z 10035660 f i libucrtd:output.obj
 0001:000346e0       ??0?$output_adapter_data@DV?$string_output_adapter@D@__crt_stdio_output@@@__crt_stdio_output@@IAE@ABV?$string_output_adapter@D@1@_KQBDAAV__crt_cached_ptd_host@@QAD@Z 100356e0 f i libucrtd:output.obj
 0001:00034760       ??0?$output_adapter_data@_WV?$stream_output_adapter@_W@__crt_stdio_output@@@__crt_stdio_output@@IAE@ABV?$stream_output_adapter@_W@1@_KQB_WAAV__crt_cached_ptd_host@@QAD@Z 10035760 f i libucrtd:output.obj
 0001:000347e0       ??0?$output_adapter_data@_WV?$string_output_adapter@_W@__crt_stdio_output@@@__crt_stdio_output@@IAE@ABV?$string_output_adapter@_W@1@_KQB_WAAV__crt_cached_ptd_host@@QAD@Z 100357e0 f i libucrtd:output.obj
 0001:00034860       ??0?$output_processor@DV?$stream_output_adapter@D@__crt_stdio_output@@V?$format_validation_base@DV?$stream_output_adapter@D@__crt_stdio_output@@@2@@__crt_stdio_output@@QAE@ABV?$stream_output_adapter@D@1@_KQBDAAV__crt_cached_ptd_host@@QAD@Z 10035860 f i libucrtd:output.obj
 0001:00034890       ??0?$output_processor@DV?$stream_output_adapter@D@__crt_stdio_output@@V?$positional_parameter_base@DV?$stream_output_adapter@D@__crt_stdio_output@@@2@@__crt_stdio_output@@QAE@ABV?$stream_output_adapter@D@1@_KQBDAAV__crt_cached_ptd_host@@QAD@Z 10035890 f i libucrtd:output.obj
 0001:000348c0       ??0?$output_processor@DV?$stream_output_adapter@D@__crt_stdio_output@@V?$standard_base@DV?$stream_output_adapter@D@__crt_stdio_output@@@2@@__crt_stdio_output@@QAE@ABV?$stream_output_adapter@D@1@_KQBDAAV__crt_cached_ptd_host@@QAD@Z 100358c0 f i libucrtd:output.obj
 0001:000348f0       ??0?$output_processor@DV?$string_output_adapter@D@__crt_stdio_output@@V?$format_validation_base@DV?$string_output_adapter@D@__crt_stdio_output@@@2@@__crt_stdio_output@@QAE@ABV?$string_output_adapter@D@1@_KQBDAAV__crt_cached_ptd_host@@QAD@Z 100358f0 f i libucrtd:output.obj
 0001:00034920       ??0?$output_processor@DV?$string_output_adapter@D@__crt_stdio_output@@V?$positional_parameter_base@DV?$string_output_adapter@D@__crt_stdio_output@@@2@@__crt_stdio_output@@QAE@ABV?$string_output_adapter@D@1@_KQBDAAV__crt_cached_ptd_host@@QAD@Z 10035920 f i libucrtd:output.obj
 0001:00034950       ??0?$output_processor@DV?$string_output_adapter@D@__crt_stdio_output@@V?$standard_base@DV?$string_output_adapter@D@__crt_stdio_output@@@2@@__crt_stdio_output@@QAE@ABV?$string_output_adapter@D@1@_KQBDAAV__crt_cached_ptd_host@@QAD@Z 10035950 f i libucrtd:output.obj
 0001:00034980       ??0?$output_processor@_WV?$stream_output_adapter@_W@__crt_stdio_output@@V?$format_validation_base@_WV?$stream_output_adapter@_W@__crt_stdio_output@@@2@@__crt_stdio_output@@QAE@ABV?$stream_output_adapter@_W@1@_KQB_WAAV__crt_cached_ptd_host@@QAD@Z 10035980 f i libucrtd:output.obj
 0001:000349b0       ??0?$output_processor@_WV?$stream_output_adapter@_W@__crt_stdio_output@@V?$positional_parameter_base@_WV?$stream_output_adapter@_W@__crt_stdio_output@@@2@@__crt_stdio_output@@QAE@ABV?$stream_output_adapter@_W@1@_KQB_WAAV__crt_cached_ptd_host@@QAD@Z 100359b0 f i libucrtd:output.obj
 0001:000349e0       ??0?$output_processor@_WV?$stream_output_adapter@_W@__crt_stdio_output@@V?$standard_base@_WV?$stream_output_adapter@_W@__crt_stdio_output@@@2@@__crt_stdio_output@@QAE@ABV?$stream_output_adapter@_W@1@_KQB_WAAV__crt_cached_ptd_host@@QAD@Z 100359e0 f i libucrtd:output.obj
 0001:00034a10       ??0?$output_processor@_WV?$string_output_adapter@_W@__crt_stdio_output@@V?$format_validation_base@_WV?$string_output_adapter@_W@__crt_stdio_output@@@2@@__crt_stdio_output@@QAE@ABV?$string_output_adapter@_W@1@_KQB_WAAV__crt_cached_ptd_host@@QAD@Z 10035a10 f i libucrtd:output.obj
 0001:00034a40       ??0?$output_processor@_WV?$string_output_adapter@_W@__crt_stdio_output@@V?$positional_parameter_base@_WV?$string_output_adapter@_W@__crt_stdio_output@@@2@@__crt_stdio_output@@QAE@ABV?$string_output_adapter@_W@1@_KQB_WAAV__crt_cached_ptd_host@@QAD@Z 10035a40 f i libucrtd:output.obj
 0001:00034a70       ??0?$output_processor@_WV?$string_output_adapter@_W@__crt_stdio_output@@V?$standard_base@_WV?$string_output_adapter@_W@__crt_stdio_output@@@2@@__crt_stdio_output@@QAE@ABV?$string_output_adapter@_W@1@_KQB_WAAV__crt_cached_ptd_host@@QAD@Z 10035a70 f i libucrtd:output.obj
 0001:00034aa0       ??0?$stream_output_adapter@D@__crt_stdio_output@@QAE@QAU_iobuf@@@Z 10035aa0 f i libucrtd:output.obj
 0001:00034ad0       ??0?$stream_output_adapter@_W@__crt_stdio_output@@QAE@QAU_iobuf@@@Z 10035ad0 f i libucrtd:output.obj
 0001:00034b00       ??0?$string_output_adapter@D@__crt_stdio_output@@QAE@QAU?$string_output_adapter_context@D@1@@Z 10035b00 f i libucrtd:output.obj
 0001:00034b20       ??0?$string_output_adapter@_W@__crt_stdio_output@@QAE@QAU?$string_output_adapter_context@_W@1@@Z 10035b20 f i libucrtd:output.obj
 0001:00034b40       ??0__acrt_stdio_temporary_buffering_guard@@QAE@QAU_iobuf@@AAV__crt_cached_ptd_host@@@Z 10035b40 f i libucrtd:output.obj
 0001:00034b80       ??0__crt_cached_ptd_host@@QAE@QAU__crt_locale_pointers@@@Z 10035b80 f i libucrtd:output.obj
 0001:00034c10       ??0__crt_scoped_get_last_error_reset@@QAE@XZ 10035c10 f i libucrtd:output.obj
 0001:00034c30       ??0formatting_buffer@__crt_stdio_output@@QAE@XZ 10035c30 f i libucrtd:output.obj
 0001:00034c70       ??0guard@?$cached@H@__crt_cached_ptd_host@@QAE@AAU12@@Z 10035c70 f i libucrtd:output.obj
 0001:00034cb0       ??1?$c_string_character_source@D@__crt_strtox@@QAE@XZ 10035cb0 f i libucrtd:output.obj
 0001:00034ce0       ??1?$c_string_character_source@_W@__crt_strtox@@QAE@XZ 10035ce0 f i libucrtd:output.obj
 0001:00034d10       ??1?$common_data@D@__crt_stdio_output@@QAE@XZ 10035d10 f i libucrtd:output.obj
 0001:00034d30       ??1?$common_data@_W@__crt_stdio_output@@QAE@XZ 10035d30 f i libucrtd:output.obj
 0001:00034d50       ??1?$format_validation_base@DV?$stream_output_adapter@D@__crt_stdio_output@@@__crt_stdio_output@@QAE@XZ 10035d50 f i libucrtd:output.obj
 0001:00034d70       ??1?$format_validation_base@DV?$string_output_adapter@D@__crt_stdio_output@@@__crt_stdio_output@@QAE@XZ 10035d70 f i libucrtd:output.obj
 0001:00034d90       ??1?$format_validation_base@_WV?$stream_output_adapter@_W@__crt_stdio_output@@@__crt_stdio_output@@QAE@XZ 10035d90 f i libucrtd:output.obj
 0001:00034db0       ??1?$format_validation_base@_WV?$string_output_adapter@_W@__crt_stdio_output@@@__crt_stdio_output@@QAE@XZ 10035db0 f i libucrtd:output.obj
 0001:00034dd0       ??1?$output_adapter_data@DV?$stream_output_adapter@D@__crt_stdio_output@@@__crt_stdio_output@@QAE@XZ 10035dd0 f i libucrtd:output.obj
 0001:00034df0       ??1?$output_adapter_data@DV?$string_output_adapter@D@__crt_stdio_output@@@__crt_stdio_output@@QAE@XZ 10035df0 f i libucrtd:output.obj
 0001:00034e10       ??1?$output_adapter_data@_WV?$stream_output_adapter@_W@__crt_stdio_output@@@__crt_stdio_output@@QAE@XZ 10035e10 f i libucrtd:output.obj
 0001:00034e30       ??1?$output_adapter_data@_WV?$string_output_adapter@_W@__crt_stdio_output@@@__crt_stdio_output@@QAE@XZ 10035e30 f i libucrtd:output.obj
 0001:00034e50       ??1?$output_processor@DV?$stream_output_adapter@D@__crt_stdio_output@@V?$format_validation_base@DV?$stream_output_adapter@D@__crt_stdio_output@@@2@@__crt_stdio_output@@QAE@XZ 10035e50 f i libucrtd:output.obj
 0001:00034e70       ??1?$output_processor@DV?$stream_output_adapter@D@__crt_stdio_output@@V?$positional_parameter_base@DV?$stream_output_adapter@D@__crt_stdio_output@@@2@@__crt_stdio_output@@QAE@XZ 10035e70 f i libucrtd:output.obj
 0001:00034e90       ??1?$output_processor@DV?$stream_output_adapter@D@__crt_stdio_output@@V?$standard_base@DV?$stream_output_adapter@D@__crt_stdio_output@@@2@@__crt_stdio_output@@QAE@XZ 10035e90 f i libucrtd:output.obj
 0001:00034eb0       ??1?$output_processor@DV?$string_output_adapter@D@__crt_stdio_output@@V?$format_validation_base@DV?$string_output_adapter@D@__crt_stdio_output@@@2@@__crt_stdio_output@@QAE@XZ 10035eb0 f i libucrtd:output.obj
 0001:00034ed0       ??1?$output_processor@DV?$string_output_adapter@D@__crt_stdio_output@@V?$positional_parameter_base@DV?$string_output_adapter@D@__crt_stdio_output@@@2@@__crt_stdio_output@@QAE@XZ 10035ed0 f i libucrtd:output.obj
 0001:00034ef0       ??1?$output_processor@DV?$string_output_adapter@D@__crt_stdio_output@@V?$standard_base@DV?$string_output_adapter@D@__crt_stdio_output@@@2@@__crt_stdio_output@@QAE@XZ 10035ef0 f i libucrtd:output.obj
 0001:00034f10       ??1?$output_processor@_WV?$stream_output_adapter@_W@__crt_stdio_output@@V?$format_validation_base@_WV?$stream_output_adapter@_W@__crt_stdio_output@@@2@@__crt_stdio_output@@QAE@XZ 10035f10 f i libucrtd:output.obj
 0001:00034f30       ??1?$output_processor@_WV?$stream_output_adapter@_W@__crt_stdio_output@@V?$positional_parameter_base@_WV?$stream_output_adapter@_W@__crt_stdio_output@@@2@@__crt_stdio_output@@QAE@XZ 10035f30 f i libucrtd:output.obj
 0001:00034f50       ??1?$output_processor@_WV?$stream_output_adapter@_W@__crt_stdio_output@@V?$standard_base@_WV?$stream_output_adapter@_W@__crt_stdio_output@@@2@@__crt_stdio_output@@QAE@XZ 10035f50 f i libucrtd:output.obj
 0001:00034f70       ??1?$output_processor@_WV?$string_output_adapter@_W@__crt_stdio_output@@V?$format_validation_base@_WV?$string_output_adapter@_W@__crt_stdio_output@@@2@@__crt_stdio_output@@QAE@XZ 10035f70 f i libucrtd:output.obj
 0001:00034f90       ??1?$output_processor@_WV?$string_output_adapter@_W@__crt_stdio_output@@V?$positional_parameter_base@_WV?$string_output_adapter@_W@__crt_stdio_output@@@2@@__crt_stdio_output@@QAE@XZ 10035f90 f i libucrtd:output.obj
 0001:00034fb0       ??1?$output_processor@_WV?$string_output_adapter@_W@__crt_stdio_output@@V?$standard_base@_WV?$string_output_adapter@_W@__crt_stdio_output@@@2@@__crt_stdio_output@@QAE@XZ 10035fb0 f i libucrtd:output.obj
 0001:00034fd0       ??1?$positional_parameter_base@DV?$stream_output_adapter@D@__crt_stdio_output@@@__crt_stdio_output@@QAE@XZ 10035fd0 f i libucrtd:output.obj
 0001:00034ff0       ??1?$positional_parameter_base@DV?$string_output_adapter@D@__crt_stdio_output@@@__crt_stdio_output@@QAE@XZ 10035ff0 f i libucrtd:output.obj
 0001:00035010       ??1?$positional_parameter_base@_WV?$stream_output_adapter@_W@__crt_stdio_output@@@__crt_stdio_output@@QAE@XZ 10036010 f i libucrtd:output.obj
 0001:00035030       ??1?$positional_parameter_base@_WV?$string_output_adapter@_W@__crt_stdio_output@@@__crt_stdio_output@@QAE@XZ 10036030 f i libucrtd:output.obj
 0001:00035050       ??1?$standard_base@DV?$stream_output_adapter@D@__crt_stdio_output@@@__crt_stdio_output@@QAE@XZ 10036050 f i libucrtd:output.obj
 0001:00035070       ??1?$standard_base@DV?$string_output_adapter@D@__crt_stdio_output@@@__crt_stdio_output@@QAE@XZ 10036070 f i libucrtd:output.obj
 0001:00035090       ??1?$standard_base@_WV?$stream_output_adapter@_W@__crt_stdio_output@@@__crt_stdio_output@@QAE@XZ 10036090 f i libucrtd:output.obj
 0001:000350b0       ??1?$standard_base@_WV?$string_output_adapter@_W@__crt_stdio_output@@@__crt_stdio_output@@QAE@XZ 100360b0 f i libucrtd:output.obj
 0001:000350d0       ??1__acrt_stdio_temporary_buffering_guard@@QAE@XZ 100360d0 f i libucrtd:output.obj
 0001:00035100       ??1__crt_cached_ptd_host@@QAE@XZ 10036100 f i libucrtd:output.obj
 0001:00035190       ??1__crt_scoped_get_last_error_reset@@QAE@XZ 10036190 f i libucrtd:output.obj
 0001:000351b0       ??1formatting_buffer@__crt_stdio_output@@QAE@XZ 100361b0 f i libucrtd:output.obj
 0001:000351d0       ??1guard@?$cached@H@__crt_cached_ptd_host@@QAE@XZ 100361d0 f i libucrtd:output.obj
 0001:00035200       ??4?$__crt_unique_heap_ptr@DU__crt_internal_free_policy@@@@QAEAAV0@$$QAV0@@Z 10036200 f i libucrtd:output.obj
 0001:00035230       ??A?$spectre_mitigated_lookup_table@Ustate_transition_pair@__crt_stdio_output@@$0IA@@__crt_stdio_output@@QBEABUstate_transition_pair@1@I@Z 10036230 f i libucrtd:output.obj
 0001:00035a90       ?adjust_hexit@?$output_processor@DV?$stream_output_adapter@D@__crt_stdio_output@@V?$format_validation_base@DV?$stream_output_adapter@D@__crt_stdio_output@@@2@@__crt_stdio_output@@CADH_N@Z 10036a90 f i libucrtd:output.obj
 0001:00035ad0       ?adjust_hexit@?$output_processor@DV?$stream_output_adapter@D@__crt_stdio_output@@V?$positional_parameter_base@DV?$stream_output_adapter@D@__crt_stdio_output@@@2@@__crt_stdio_output@@CADH_N@Z 10036ad0 f i libucrtd:output.obj
 0001:00035b10       ?adjust_hexit@?$output_processor@DV?$stream_output_adapter@D@__crt_stdio_output@@V?$standard_base@DV?$stream_output_adapter@D@__crt_stdio_output@@@2@@__crt_stdio_output@@CADH_N@Z 10036b10 f i libucrtd:output.obj
 0001:00035b50       ?adjust_hexit@?$output_processor@DV?$string_output_adapter@D@__crt_stdio_output@@V?$format_validation_base@DV?$string_output_adapter@D@__crt_stdio_output@@@2@@__crt_stdio_output@@CADH_N@Z 10036b50 f i libucrtd:output.obj
 0001:00035b90       ?adjust_hexit@?$output_processor@DV?$string_output_adapter@D@__crt_stdio_output@@V?$positional_parameter_base@DV?$string_output_adapter@D@__crt_stdio_output@@@2@@__crt_stdio_output@@CADH_N@Z 10036b90 f i libucrtd:output.obj
 0001:00035bd0       ?adjust_hexit@?$output_processor@DV?$string_output_adapter@D@__crt_stdio_output@@V?$standard_base@DV?$string_output_adapter@D@__crt_stdio_output@@@2@@__crt_stdio_output@@CADH_N@Z 10036bd0 f i libucrtd:output.obj
 0001:00035c10       ?adjust_hexit@?$output_processor@_WV?$stream_output_adapter@_W@__crt_stdio_output@@V?$format_validation_base@_WV?$stream_output_adapter@_W@__crt_stdio_output@@@2@@__crt_stdio_output@@CADH_N@Z 10036c10 f i libucrtd:output.obj
 0001:00035c50       ?adjust_hexit@?$output_processor@_WV?$stream_output_adapter@_W@__crt_stdio_output@@V?$positional_parameter_base@_WV?$stream_output_adapter@_W@__crt_stdio_output@@@2@@__crt_stdio_output@@CADH_N@Z 10036c50 f i libucrtd:output.obj
 0001:00035c90       ?adjust_hexit@?$output_processor@_WV?$stream_output_adapter@_W@__crt_stdio_output@@V?$standard_base@_WV?$stream_output_adapter@_W@__crt_stdio_output@@@2@@__crt_stdio_output@@CADH_N@Z 10036c90 f i libucrtd:output.obj
 0001:00035cd0       ?adjust_hexit@?$output_processor@_WV?$string_output_adapter@_W@__crt_stdio_output@@V?$format_validation_base@_WV?$string_output_adapter@_W@__crt_stdio_output@@@2@@__crt_stdio_output@@CADH_N@Z 10036cd0 f i libucrtd:output.obj
 0001:00035d10       ?adjust_hexit@?$output_processor@_WV?$string_output_adapter@_W@__crt_stdio_output@@V?$positional_parameter_base@_WV?$string_output_adapter@_W@__crt_stdio_output@@@2@@__crt_stdio_output@@CADH_N@Z 10036d10 f i libucrtd:output.obj
 0001:00035d50       ?adjust_hexit@?$output_processor@_WV?$string_output_adapter@_W@__crt_stdio_output@@V?$standard_base@_WV?$string_output_adapter@_W@__crt_stdio_output@@@2@@__crt_stdio_output@@CADH_N@Z 10036d50 f i libucrtd:output.obj
 0001:00035d90       ?advance_to_next_pass@?$positional_parameter_base@DV?$stream_output_adapter@D@__crt_stdio_output@@@__crt_stdio_output@@IAE_NXZ 10036d90 f i libucrtd:output.obj
 0001:00035e30       ?advance_to_next_pass@?$positional_parameter_base@DV?$string_output_adapter@D@__crt_stdio_output@@@__crt_stdio_output@@IAE_NXZ 10036e30 f i libucrtd:output.obj
 0001:00035ed0       ?advance_to_next_pass@?$positional_parameter_base@_WV?$stream_output_adapter@_W@__crt_stdio_output@@@__crt_stdio_output@@IAE_NXZ 10036ed0 f i libucrtd:output.obj
 0001:00035f70       ?advance_to_next_pass@?$positional_parameter_base@_WV?$string_output_adapter@_W@__crt_stdio_output@@@__crt_stdio_output@@IAE_NXZ 10036f70 f i libucrtd:output.obj
 0001:00036010       ?advance_to_next_pass@?$standard_base@DV?$stream_output_adapter@D@__crt_stdio_output@@@__crt_stdio_output@@IAE_NXZ 10037010 f i libucrtd:output.obj
 0001:00036060       ?advance_to_next_pass@?$standard_base@DV?$string_output_adapter@D@__crt_stdio_output@@@__crt_stdio_output@@IAE_NXZ 10037060 f i libucrtd:output.obj
 0001:000360b0       ?advance_to_next_pass@?$standard_base@_WV?$stream_output_adapter@_W@__crt_stdio_output@@@__crt_stdio_output@@IAE_NXZ 100370b0 f i libucrtd:output.obj
 0001:00036100       ?advance_to_next_pass@?$standard_base@_WV?$string_output_adapter@_W@__crt_stdio_output@@@__crt_stdio_output@@IAE_NXZ 10037100 f i libucrtd:output.obj
 0001:00036150       ?check@?$cached@H@__crt_cached_ptd_host@@QBE_NH@Z 10037150 f i libucrtd:output.obj
 0001:00036190       ?check_synchronize_global_state_index@__crt_cached_ptd_host@@AAEIABV__crt_scoped_get_last_error_reset@@@Z 10037190 f i libucrtd:output.obj
 0001:000361c0       ?check_synchronize_per_thread_data@__crt_cached_ptd_host@@AAEPAU__acrt_ptd@@XZ 100371c0 f i libucrtd:output.obj
 0001:000361f0       ?create_guard@?$cached@H@__crt_cached_ptd_host@@QAE?AVguard@12@XZ 100371f0 f i libucrtd:output.obj
 0001:00036210       ?crop_zeroes@__crt_stdio_output@@YAXPADQAU__crt_locale_pointers@@@Z 10037210 f i libucrtd:output.obj
 0001:00036310       ?disable@guard@?$cached@H@__crt_cached_ptd_host@@QAEXXZ 10037310 f i libucrtd:output.obj
 0001:00036330       ?enable@guard@?$cached@H@__crt_cached_ptd_host@@QAEXXZ 10037330 f i libucrtd:output.obj
 0001:00036350       ?find_next_state@?$output_processor@DV?$stream_output_adapter@D@__crt_stdio_output@@V?$format_validation_base@DV?$stream_output_adapter@D@__crt_stdio_output@@@2@@__crt_stdio_output@@ABE?AW4state@2@DW432@@Z 10037350 f i libucrtd:output.obj
 0001:000363f0       ?find_next_state@?$output_processor@DV?$stream_output_adapter@D@__crt_stdio_output@@V?$positional_parameter_base@DV?$stream_output_adapter@D@__crt_stdio_output@@@2@@__crt_stdio_output@@ABE?AW4state@2@DW432@@Z 100373f0 f i libucrtd:output.obj
 0001:00036490       ?find_next_state@?$output_processor@DV?$stream_output_adapter@D@__crt_stdio_output@@V?$standard_base@DV?$stream_output_adapter@D@__crt_stdio_output@@@2@@__crt_stdio_output@@ABE?AW4state@2@DW432@@Z 10037490 f i libucrtd:output.obj
 0001:00036530       ?find_next_state@?$output_processor@DV?$string_output_adapter@D@__crt_stdio_output@@V?$format_validation_base@DV?$string_output_adapter@D@__crt_stdio_output@@@2@@__crt_stdio_output@@ABE?AW4state@2@DW432@@Z 10037530 f i libucrtd:output.obj
 0001:000365d0       ?find_next_state@?$output_processor@DV?$string_output_adapter@D@__crt_stdio_output@@V?$positional_parameter_base@DV?$string_output_adapter@D@__crt_stdio_output@@@2@@__crt_stdio_output@@ABE?AW4state@2@DW432@@Z 100375d0 f i libucrtd:output.obj
 0001:00036670       ?find_next_state@?$output_processor@DV?$string_output_adapter@D@__crt_stdio_output@@V?$standard_base@DV?$string_output_adapter@D@__crt_stdio_output@@@2@@__crt_stdio_output@@ABE?AW4state@2@DW432@@Z 10037670 f i libucrtd:output.obj
 0001:00036710       ?find_next_state@?$output_processor@_WV?$stream_output_adapter@_W@__crt_stdio_output@@V?$format_validation_base@_WV?$stream_output_adapter@_W@__crt_stdio_output@@@2@@__crt_stdio_output@@ABE?AW4state@2@_WW432@@Z 10037710 f i libucrtd:output.obj
 0001:000367b0       ?find_next_state@?$output_processor@_WV?$stream_output_adapter@_W@__crt_stdio_output@@V?$positional_parameter_base@_WV?$stream_output_adapter@_W@__crt_stdio_output@@@2@@__crt_stdio_output@@ABE?AW4state@2@_WW432@@Z 100377b0 f i libucrtd:output.obj
 0001:00036850       ?find_next_state@?$output_processor@_WV?$stream_output_adapter@_W@__crt_stdio_output@@V?$standard_base@_WV?$stream_output_adapter@_W@__crt_stdio_output@@@2@@__crt_stdio_output@@ABE?AW4state@2@_WW432@@Z 10037850 f i libucrtd:output.obj
 0001:000368f0       ?find_next_state@?$output_processor@_WV?$string_output_adapter@_W@__crt_stdio_output@@V?$format_validation_base@_WV?$string_output_adapter@_W@__crt_stdio_output@@@2@@__crt_stdio_output@@ABE?AW4state@2@_WW432@@Z 100378f0 f i libucrtd:output.obj
 0001:00036990       ?find_next_state@?$output_processor@_WV?$string_output_adapter@_W@__crt_stdio_output@@V?$positional_parameter_base@_WV?$string_output_adapter@_W@__crt_stdio_output@@@2@@__crt_stdio_output@@ABE?AW4state@2@_WW432@@Z 10037990 f i libucrtd:output.obj
 0001:00036a30       ?find_next_state@?$output_processor@_WV?$string_output_adapter@_W@__crt_stdio_output@@V?$standard_base@_WV?$string_output_adapter@_W@__crt_stdio_output@@@2@@__crt_stdio_output@@ABE?AW4state@2@_WW432@@Z 10037a30 f i libucrtd:output.obj
 0001:00036ad0       ?force_decimal_point@__crt_stdio_output@@YAXPADQAU__crt_locale_pointers@@@Z 10037ad0 f i libucrtd:output.obj
 0001:00036ba0       ?force_synchronize_global_state_index@__crt_cached_ptd_host@@AAEIABV__crt_scoped_get_last_error_reset@@@Z 10037ba0 f i libucrtd:output.obj
 0001:00036bd0       ?force_synchronize_per_thread_data@__crt_cached_ptd_host@@AAEPAU__acrt_ptd@@XZ 10037bd0 f i libucrtd:output.obj
 0001:00036c20       ?get@?$c_string_character_source@D@__crt_strtox@@QAEDXZ 10037c20 f i libucrtd:output.obj
 0001:00036c50       ?get@?$c_string_character_source@_W@__crt_strtox@@QAE_WXZ 10037c50 f i libucrtd:output.obj
 0001:00036c80       ?get_current_state_index@__crt_state_management@@YAIABV__crt_scoped_get_last_error_reset@@@Z 10037c80 f i libucrtd:output.obj
 0001:00036c90       ?get_locale@__crt_cached_ptd_host@@QAEPAU__crt_locale_pointers@@XZ 10037c90 f i libucrtd:output.obj
 0001:00036cb0       ?get_parameter_type@?$positional_parameter_base@DV?$stream_output_adapter@D@__crt_stdio_output@@@__crt_stdio_output@@CA?AW4parameter_type@12@F@Z 10037cb0 f i libucrtd:output.obj
 0001:00036cc0       ?get_parameter_type@?$positional_parameter_base@DV?$stream_output_adapter@D@__crt_stdio_output@@@__crt_stdio_output@@CA?AW4parameter_type@12@G@Z 10037cc0 f i libucrtd:output.obj
 0001:00036cd0       ?get_parameter_type@?$positional_parameter_base@DV?$stream_output_adapter@D@__crt_stdio_output@@@__crt_stdio_output@@CA?AW4parameter_type@12@H@Z 10037cd0 f i libucrtd:output.obj
 0001:00036ce0       ?get_parameter_type@?$positional_parameter_base@DV?$stream_output_adapter@D@__crt_stdio_output@@@__crt_stdio_output@@CA?AW4parameter_type@12@I@Z 10037ce0 f i libucrtd:output.obj
 0001:00036cf0       ?get_parameter_type@?$positional_parameter_base@DV?$stream_output_adapter@D@__crt_stdio_output@@@__crt_stdio_output@@CA?AW4parameter_type@12@U_CRT_DOUBLE@@@Z 10037cf0 f i libucrtd:output.obj
 0001:00036d00       ?get_parameter_type@?$positional_parameter_base@DV?$stream_output_adapter@D@__crt_stdio_output@@@__crt_stdio_output@@CA?AW4parameter_type@12@_J@Z 10037d00 f i libucrtd:output.obj
 0001:00036d10       ?get_parameter_type@?$positional_parameter_base@DV?$stream_output_adapter@D@__crt_stdio_output@@@__crt_stdio_output@@CA?AW4parameter_type@12@_K@Z 10037d10 f i libucrtd:output.obj
 0001:00036d20       ?get_parameter_type@?$positional_parameter_base@DV?$stream_output_adapter@D@__crt_stdio_output@@@__crt_stdio_output@@CA?AW4parameter_type@12@_W@Z 10037d20 f i libucrtd:output.obj
 0001:00036d30       ?get_parameter_type@?$positional_parameter_base@DV?$string_output_adapter@D@__crt_stdio_output@@@__crt_stdio_output@@CA?AW4parameter_type@12@F@Z 10037d30 f i libucrtd:output.obj
 0001:00036d40       ?get_parameter_type@?$positional_parameter_base@DV?$string_output_adapter@D@__crt_stdio_output@@@__crt_stdio_output@@CA?AW4parameter_type@12@G@Z 10037d40 f i libucrtd:output.obj
 0001:00036d50       ?get_parameter_type@?$positional_parameter_base@DV?$string_output_adapter@D@__crt_stdio_output@@@__crt_stdio_output@@CA?AW4parameter_type@12@H@Z 10037d50 f i libucrtd:output.obj
 0001:00036d60       ?get_parameter_type@?$positional_parameter_base@DV?$string_output_adapter@D@__crt_stdio_output@@@__crt_stdio_output@@CA?AW4parameter_type@12@I@Z 10037d60 f i libucrtd:output.obj
 0001:00036d70       ?get_parameter_type@?$positional_parameter_base@DV?$string_output_adapter@D@__crt_stdio_output@@@__crt_stdio_output@@CA?AW4parameter_type@12@U_CRT_DOUBLE@@@Z 10037d70 f i libucrtd:output.obj
 0001:00036d80       ?get_parameter_type@?$positional_parameter_base@DV?$string_output_adapter@D@__crt_stdio_output@@@__crt_stdio_output@@CA?AW4parameter_type@12@_J@Z 10037d80 f i libucrtd:output.obj
 0001:00036d90       ?get_parameter_type@?$positional_parameter_base@DV?$string_output_adapter@D@__crt_stdio_output@@@__crt_stdio_output@@CA?AW4parameter_type@12@_K@Z 10037d90 f i libucrtd:output.obj
 0001:00036da0       ?get_parameter_type@?$positional_parameter_base@DV?$string_output_adapter@D@__crt_stdio_output@@@__crt_stdio_output@@CA?AW4parameter_type@12@_W@Z 10037da0 f i libucrtd:output.obj
 0001:00036db0       ?get_parameter_type@?$positional_parameter_base@_WV?$stream_output_adapter@_W@__crt_stdio_output@@@__crt_stdio_output@@CA?AW4parameter_type@12@F@Z 10037db0 f i libucrtd:output.obj
 0001:00036dc0       ?get_parameter_type@?$positional_parameter_base@_WV?$stream_output_adapter@_W@__crt_stdio_output@@@__crt_stdio_output@@CA?AW4parameter_type@12@G@Z 10037dc0 f i libucrtd:output.obj
 0001:00036dd0       ?get_parameter_type@?$positional_parameter_base@_WV?$stream_output_adapter@_W@__crt_stdio_output@@@__crt_stdio_output@@CA?AW4parameter_type@12@H@Z 10037dd0 f i libucrtd:output.obj
 0001:00036de0       ?get_parameter_type@?$positional_parameter_base@_WV?$stream_output_adapter@_W@__crt_stdio_output@@@__crt_stdio_output@@CA?AW4parameter_type@12@I@Z 10037de0 f i libucrtd:output.obj
 0001:00036df0       ?get_parameter_type@?$positional_parameter_base@_WV?$stream_output_adapter@_W@__crt_stdio_output@@@__crt_stdio_output@@CA?AW4parameter_type@12@U_CRT_DOUBLE@@@Z 10037df0 f i libucrtd:output.obj
 0001:00036e00       ?get_parameter_type@?$positional_parameter_base@_WV?$stream_output_adapter@_W@__crt_stdio_output@@@__crt_stdio_output@@CA?AW4parameter_type@12@_J@Z 10037e00 f i libucrtd:output.obj
 0001:00036e10       ?get_parameter_type@?$positional_parameter_base@_WV?$stream_output_adapter@_W@__crt_stdio_output@@@__crt_stdio_output@@CA?AW4parameter_type@12@_K@Z 10037e10 f i libucrtd:output.obj
 0001:00036e20       ?get_parameter_type@?$positional_parameter_base@_WV?$stream_output_adapter@_W@__crt_stdio_output@@@__crt_stdio_output@@CA?AW4parameter_type@12@_W@Z 10037e20 f i libucrtd:output.obj
 0001:00036e30       ?get_parameter_type@?$positional_parameter_base@_WV?$string_output_adapter@_W@__crt_stdio_output@@@__crt_stdio_output@@CA?AW4parameter_type@12@F@Z 10037e30 f i libucrtd:output.obj
 0001:00036e40       ?get_parameter_type@?$positional_parameter_base@_WV?$string_output_adapter@_W@__crt_stdio_output@@@__crt_stdio_output@@CA?AW4parameter_type@12@G@Z 10037e40 f i libucrtd:output.obj
 0001:00036e50       ?get_parameter_type@?$positional_parameter_base@_WV?$string_output_adapter@_W@__crt_stdio_output@@@__crt_stdio_output@@CA?AW4parameter_type@12@H@Z 10037e50 f i libucrtd:output.obj
 0001:00036e60       ?get_parameter_type@?$positional_parameter_base@_WV?$string_output_adapter@_W@__crt_stdio_output@@@__crt_stdio_output@@CA?AW4parameter_type@12@I@Z 10037e60 f i libucrtd:output.obj
 0001:00036e70       ?get_parameter_type@?$positional_parameter_base@_WV?$string_output_adapter@_W@__crt_stdio_output@@@__crt_stdio_output@@CA?AW4parameter_type@12@U_CRT_DOUBLE@@@Z 10037e70 f i libucrtd:output.obj
 0001:00036e80       ?get_parameter_type@?$positional_parameter_base@_WV?$string_output_adapter@_W@__crt_stdio_output@@@__crt_stdio_output@@CA?AW4parameter_type@12@_J@Z 10037e80 f i libucrtd:output.obj
 0001:00036e90       ?get_parameter_type@?$positional_parameter_base@_WV?$string_output_adapter@_W@__crt_stdio_output@@@__crt_stdio_output@@CA?AW4parameter_type@12@_K@Z 10037e90 f i libucrtd:output.obj
 0001:00036ea0       ?get_parameter_type@?$positional_parameter_base@_WV?$string_output_adapter@_W@__crt_stdio_output@@@__crt_stdio_output@@CA?AW4parameter_type@12@_W@Z 10037ea0 f i libucrtd:output.obj
 0001:00036eb0       ?get_raw_ptd@__crt_cached_ptd_host@@QAEPAU__acrt_ptd@@XZ 10037eb0 f i libucrtd:output.obj
 0001:00036ed0       ?has_flag@?$output_processor@DV?$stream_output_adapter@D@__crt_stdio_output@@V?$format_validation_base@DV?$stream_output_adapter@D@__crt_stdio_output@@@2@@__crt_stdio_output@@ABE_NI@Z 10037ed0 f i libucrtd:output.obj
 0001:00036f00       ?has_flag@?$output_processor@DV?$stream_output_adapter@D@__crt_stdio_output@@V?$positional_parameter_base@DV?$stream_output_adapter@D@__crt_stdio_output@@@2@@__crt_stdio_output@@ABE_NI@Z 10037f00 f i libucrtd:output.obj
 0001:00036f30       ?has_flag@?$output_processor@DV?$stream_output_adapter@D@__crt_stdio_output@@V?$standard_base@DV?$stream_output_adapter@D@__crt_stdio_output@@@2@@__crt_stdio_output@@ABE_NI@Z 10037f30 f i libucrtd:output.obj
 0001:00036f60       ?has_flag@?$output_processor@DV?$string_output_adapter@D@__crt_stdio_output@@V?$format_validation_base@DV?$string_output_adapter@D@__crt_stdio_output@@@2@@__crt_stdio_output@@ABE_NI@Z 10037f60 f i libucrtd:output.obj
 0001:00036f90       ?has_flag@?$output_processor@DV?$string_output_adapter@D@__crt_stdio_output@@V?$positional_parameter_base@DV?$string_output_adapter@D@__crt_stdio_output@@@2@@__crt_stdio_output@@ABE_NI@Z 10037f90 f i libucrtd:output.obj
 0001:00036fc0       ?has_flag@?$output_processor@DV?$string_output_adapter@D@__crt_stdio_output@@V?$standard_base@DV?$string_output_adapter@D@__crt_stdio_output@@@2@@__crt_stdio_output@@ABE_NI@Z 10037fc0 f i libucrtd:output.obj
 0001:00036ff0       ?has_flag@?$output_processor@_WV?$stream_output_adapter@_W@__crt_stdio_output@@V?$format_validation_base@_WV?$stream_output_adapter@_W@__crt_stdio_output@@@2@@__crt_stdio_output@@ABE_NI@Z 10037ff0 f i libucrtd:output.obj
 0001:00037020       ?has_flag@?$output_processor@_WV?$stream_output_adapter@_W@__crt_stdio_output@@V?$positional_parameter_base@_WV?$stream_output_adapter@_W@__crt_stdio_output@@@2@@__crt_stdio_output@@ABE_NI@Z 10038020 f i libucrtd:output.obj
 0001:00037050       ?has_flag@?$output_processor@_WV?$stream_output_adapter@_W@__crt_stdio_output@@V?$standard_base@_WV?$stream_output_adapter@_W@__crt_stdio_output@@@2@@__crt_stdio_output@@ABE_NI@Z 10038050 f i libucrtd:output.obj
 0001:00037080       ?has_flag@?$output_processor@_WV?$string_output_adapter@_W@__crt_stdio_output@@V?$format_validation_base@_WV?$string_output_adapter@_W@__crt_stdio_output@@@2@@__crt_stdio_output@@ABE_NI@Z 10038080 f i libucrtd:output.obj
 0001:000370b0       ?has_flag@?$output_processor@_WV?$string_output_adapter@_W@__crt_stdio_output@@V?$positional_parameter_base@_WV?$string_output_adapter@_W@__crt_stdio_output@@@2@@__crt_stdio_output@@ABE_NI@Z 100380b0 f i libucrtd:output.obj
 0001:000370e0       ?has_flag@?$output_processor@_WV?$string_output_adapter@_W@__crt_stdio_output@@V?$standard_base@_WV?$string_output_adapter@_W@__crt_stdio_output@@@2@@__crt_stdio_output@@ABE_NI@Z 100380e0 f i libucrtd:output.obj
 0001:00037110       ?is_positional_parameter_reappearance_consistent@?$positional_parameter_base@DV?$stream_output_adapter@D@__crt_stdio_output@@@__crt_stdio_output@@AAE_NABUparameter_data@12@W4parameter_type@12@DW4length_modifier@2@@Z 10038110 f i libucrtd:output.obj
 0001:00037340       ?is_positional_parameter_reappearance_consistent@?$positional_parameter_base@DV?$string_output_adapter@D@__crt_stdio_output@@@__crt_stdio_output@@AAE_NABUparameter_data@12@W4parameter_type@12@DW4length_modifier@2@@Z 10038340 f i libucrtd:output.obj
 0001:00037570       ?is_positional_parameter_reappearance_consistent@?$positional_parameter_base@_WV?$stream_output_adapter@_W@__crt_stdio_output@@@__crt_stdio_output@@AAE_NABUparameter_data@12@W4parameter_type@12@_WW4length_modifier@2@@Z 10038570 f i libucrtd:output.obj
 0001:000377a0       ?is_positional_parameter_reappearance_consistent@?$positional_parameter_base@_WV?$string_output_adapter@_W@__crt_stdio_output@@@__crt_stdio_output@@AAE_NABUparameter_data@12@W4parameter_type@12@_WW4length_modifier@2@@Z 100387a0 f i libucrtd:output.obj
 0001:000379d0       ?is_string_backed@__crt_stdio_stream@@QBE_NXZ 100389d0 f i libucrtd:output.obj
 0001:00037a10       ?maximum_signed_value@__crt_strtox@@YAJK@Z 10038a10 f i libucrtd:output.obj
 0001:00037a20       ?minimum_signed_value@__crt_strtox@@YAJK@Z 10038a20 f i libucrtd:output.obj
 0001:00037a30       ?narrow_null_string@?$output_processor@DV?$stream_output_adapter@D@__crt_stdio_output@@V?$format_validation_base@DV?$stream_output_adapter@D@__crt_stdio_output@@@2@@__crt_stdio_output@@CAPADXZ 10038a30 f i libucrtd:output.obj
 0001:00037a40       ?narrow_null_string@?$output_processor@DV?$stream_output_adapter@D@__crt_stdio_output@@V?$positional_parameter_base@DV?$stream_output_adapter@D@__crt_stdio_output@@@2@@__crt_stdio_output@@CAPADXZ 10038a40 f i libucrtd:output.obj
 0001:00037a50       ?narrow_null_string@?$output_processor@DV?$stream_output_adapter@D@__crt_stdio_output@@V?$standard_base@DV?$stream_output_adapter@D@__crt_stdio_output@@@2@@__crt_stdio_output@@CAPADXZ 10038a50 f i libucrtd:output.obj
 0001:00037a60       ?narrow_null_string@?$output_processor@DV?$string_output_adapter@D@__crt_stdio_output@@V?$format_validation_base@DV?$string_output_adapter@D@__crt_stdio_output@@@2@@__crt_stdio_output@@CAPADXZ 10038a60 f i libucrtd:output.obj
 0001:00037a70       ?narrow_null_string@?$output_processor@DV?$string_output_adapter@D@__crt_stdio_output@@V?$positional_parameter_base@DV?$string_output_adapter@D@__crt_stdio_output@@@2@@__crt_stdio_output@@CAPADXZ 10038a70 f i libucrtd:output.obj
 0001:00037a80       ?narrow_null_string@?$output_processor@DV?$string_output_adapter@D@__crt_stdio_output@@V?$standard_base@DV?$string_output_adapter@D@__crt_stdio_output@@@2@@__crt_stdio_output@@CAPADXZ 10038a80 f i libucrtd:output.obj
 0001:00037a90       ?narrow_null_string@?$output_processor@_WV?$stream_output_adapter@_W@__crt_stdio_output@@V?$format_validation_base@_WV?$stream_output_adapter@_W@__crt_stdio_output@@@2@@__crt_stdio_output@@CAPADXZ 10038a90 f i libucrtd:output.obj
 0001:00037aa0       ?narrow_null_string@?$output_processor@_WV?$stream_output_adapter@_W@__crt_stdio_output@@V?$positional_parameter_base@_WV?$stream_output_adapter@_W@__crt_stdio_output@@@2@@__crt_stdio_output@@CAPADXZ 10038aa0 f i libucrtd:output.obj
 0001:00037ab0       ?narrow_null_string@?$output_processor@_WV?$stream_output_adapter@_W@__crt_stdio_output@@V?$standard_base@_WV?$stream_output_adapter@_W@__crt_stdio_output@@@2@@__crt_stdio_output@@CAPADXZ 10038ab0 f i libucrtd:output.obj
 0001:00037ac0       ?narrow_null_string@?$output_processor@_WV?$string_output_adapter@_W@__crt_stdio_output@@V?$format_validation_base@_WV?$string_output_adapter@_W@__crt_stdio_output@@@2@@__crt_stdio_output@@CAPADXZ 10038ac0 f i libucrtd:output.obj
 0001:00037ad0       ?narrow_null_string@?$output_processor@_WV?$string_output_adapter@_W@__crt_stdio_output@@V?$positional_parameter_base@_WV?$string_output_adapter@_W@__crt_stdio_output@@@2@@__crt_stdio_output@@CAPADXZ 10038ad0 f i libucrtd:output.obj
 0001:00037ae0       ?narrow_null_string@?$output_processor@_WV?$string_output_adapter@_W@__crt_stdio_output@@V?$standard_base@_WV?$string_output_adapter@_W@__crt_stdio_output@@@2@@__crt_stdio_output@@CAPADXZ 10038ae0 f i libucrtd:output.obj
 0001:00037af0       ?parse_digit@__crt_strtox@@YAID@Z 10038af0 f i libucrtd:output.obj
 0001:00037b50       ?parse_digit@__crt_strtox@@YAI_W@Z 10038b50 f i libucrtd:output.obj
 0001:00037ba0       ?parse_int_from_format_string@?$output_processor@DV?$stream_output_adapter@D@__crt_stdio_output@@V?$format_validation_base@DV?$stream_output_adapter@D@__crt_stdio_output@@@2@@__crt_stdio_output@@AAE_NQAH@Z 10038ba0 f i libucrtd:output.obj
 0001:00037c60       ?parse_int_from_format_string@?$output_processor@DV?$stream_output_adapter@D@__crt_stdio_output@@V?$positional_parameter_base@DV?$stream_output_adapter@D@__crt_stdio_output@@@2@@__crt_stdio_output@@AAE_NQAH@Z 10038c60 f i libucrtd:output.obj
 0001:00037d20       ?parse_int_from_format_string@?$output_processor@DV?$stream_output_adapter@D@__crt_stdio_output@@V?$standard_base@DV?$stream_output_adapter@D@__crt_stdio_output@@@2@@__crt_stdio_output@@AAE_NQAH@Z 10038d20 f i libucrtd:output.obj
 0001:00037de0       ?parse_int_from_format_string@?$output_processor@DV?$string_output_adapter@D@__crt_stdio_output@@V?$format_validation_base@DV?$string_output_adapter@D@__crt_stdio_output@@@2@@__crt_stdio_output@@AAE_NQAH@Z 10038de0 f i libucrtd:output.obj
 0001:00037ea0       ?parse_int_from_format_string@?$output_processor@DV?$string_output_adapter@D@__crt_stdio_output@@V?$positional_parameter_base@DV?$string_output_adapter@D@__crt_stdio_output@@@2@@__crt_stdio_output@@AAE_NQAH@Z 10038ea0 f i libucrtd:output.obj
 0001:00037f60       ?parse_int_from_format_string@?$output_processor@DV?$string_output_adapter@D@__crt_stdio_output@@V?$standard_base@DV?$string_output_adapter@D@__crt_stdio_output@@@2@@__crt_stdio_output@@AAE_NQAH@Z 10038f60 f i libucrtd:output.obj
 0001:00038020       ?parse_int_from_format_string@?$output_processor@_WV?$stream_output_adapter@_W@__crt_stdio_output@@V?$format_validation_base@_WV?$stream_output_adapter@_W@__crt_stdio_output@@@2@@__crt_stdio_output@@AAE_NQAH@Z 10039020 f i libucrtd:output.obj
 0001:000380e0       ?parse_int_from_format_string@?$output_processor@_WV?$stream_output_adapter@_W@__crt_stdio_output@@V?$positional_parameter_base@_WV?$stream_output_adapter@_W@__crt_stdio_output@@@2@@__crt_stdio_output@@AAE_NQAH@Z 100390e0 f i libucrtd:output.obj
 0001:000381a0       ?parse_int_from_format_string@?$output_processor@_WV?$stream_output_adapter@_W@__crt_stdio_output@@V?$standard_base@_WV?$stream_output_adapter@_W@__crt_stdio_output@@@2@@__crt_stdio_output@@AAE_NQAH@Z 100391a0 f i libucrtd:output.obj
 0001:00038260       ?parse_int_from_format_string@?$output_processor@_WV?$string_output_adapter@_W@__crt_stdio_output@@V?$format_validation_base@_WV?$string_output_adapter@_W@__crt_stdio_output@@@2@@__crt_stdio_output@@AAE_NQAH@Z 10039260 f i libucrtd:output.obj
 0001:00038320       ?parse_int_from_format_string@?$output_processor@_WV?$string_output_adapter@_W@__crt_stdio_output@@V?$positional_parameter_base@_WV?$string_output_adapter@_W@__crt_stdio_output@@@2@@__crt_stdio_output@@AAE_NQAH@Z 10039320 f i libucrtd:output.obj
 0001:000383e0       ?parse_int_from_format_string@?$output_processor@_WV?$string_output_adapter@_W@__crt_stdio_output@@V?$standard_base@_WV?$string_output_adapter@_W@__crt_stdio_output@@@2@@__crt_stdio_output@@AAE_NQAH@Z 100393e0 f i libucrtd:output.obj
 0001:000384a0       ?process@?$output_processor@DV?$stream_output_adapter@D@__crt_stdio_output@@V?$format_validation_base@DV?$stream_output_adapter@D@__crt_stdio_output@@@2@@__crt_stdio_output@@QAEHXZ 100394a0 f i libucrtd:output.obj
 0001:00038780       ?process@?$output_processor@DV?$stream_output_adapter@D@__crt_stdio_output@@V?$positional_parameter_base@DV?$stream_output_adapter@D@__crt_stdio_output@@@2@@__crt_stdio_output@@QAEHXZ 10039780 f i libucrtd:output.obj
 0001:00038a60       ?process@?$output_processor@DV?$stream_output_adapter@D@__crt_stdio_output@@V?$standard_base@DV?$stream_output_adapter@D@__crt_stdio_output@@@2@@__crt_stdio_output@@QAEHXZ 10039a60 f i libucrtd:output.obj
 0001:00038d40       ?process@?$output_processor@DV?$string_output_adapter@D@__crt_stdio_output@@V?$format_validation_base@DV?$string_output_adapter@D@__crt_stdio_output@@@2@@__crt_stdio_output@@QAEHXZ 10039d40 f i libucrtd:output.obj
 0001:00039020       ?process@?$output_processor@DV?$string_output_adapter@D@__crt_stdio_output@@V?$positional_parameter_base@DV?$string_output_adapter@D@__crt_stdio_output@@@2@@__crt_stdio_output@@QAEHXZ 1003a020 f i libucrtd:output.obj
 0001:00039300       ?process@?$output_processor@DV?$string_output_adapter@D@__crt_stdio_output@@V?$standard_base@DV?$string_output_adapter@D@__crt_stdio_output@@@2@@__crt_stdio_output@@QAEHXZ 1003a300 f i libucrtd:output.obj
 0001:000395e0       ?process@?$output_processor@_WV?$stream_output_adapter@_W@__crt_stdio_output@@V?$format_validation_base@_WV?$stream_output_adapter@_W@__crt_stdio_output@@@2@@__crt_stdio_output@@QAEHXZ 1003a5e0 f i libucrtd:output.obj
 0001:000398c0       ?process@?$output_processor@_WV?$stream_output_adapter@_W@__crt_stdio_output@@V?$positional_parameter_base@_WV?$stream_output_adapter@_W@__crt_stdio_output@@@2@@__crt_stdio_output@@QAEHXZ 1003a8c0 f i libucrtd:output.obj
 0001:00039ba0       ?process@?$output_processor@_WV?$stream_output_adapter@_W@__crt_stdio_output@@V?$standard_base@_WV?$stream_output_adapter@_W@__crt_stdio_output@@@2@@__crt_stdio_output@@QAEHXZ 1003aba0 f i libucrtd:output.obj
 0001:00039e80       ?process@?$output_processor@_WV?$string_output_adapter@_W@__crt_stdio_output@@V?$format_validation_base@_WV?$string_output_adapter@_W@__crt_stdio_output@@@2@@__crt_stdio_output@@QAEHXZ 1003ae80 f i libucrtd:output.obj
 0001:0003a160       ?process@?$output_processor@_WV?$string_output_adapter@_W@__crt_stdio_output@@V?$positional_parameter_base@_WV?$string_output_adapter@_W@__crt_stdio_output@@@2@@__crt_stdio_output@@QAEHXZ 1003b160 f i libucrtd:output.obj
 0001:0003a440       ?process@?$output_processor@_WV?$string_output_adapter@_W@__crt_stdio_output@@V?$standard_base@_WV?$string_output_adapter@_W@__crt_stdio_output@@@2@@__crt_stdio_output@@QAEHXZ 1003b440 f i libucrtd:output.obj
 0001:0003a720       ?public_stream@__crt_stdio_stream@@QBEPAU_iobuf@@XZ 1003b720 f i libucrtd:output.obj
 0001:0003a740       ?restore_state@?$c_string_character_source@D@__crt_strtox@@QAE_NQBD@Z 1003b740 f i libucrtd:output.obj
 0001:0003a760       ?restore_state@?$c_string_character_source@_W@__crt_strtox@@QAE_NQB_W@Z 1003b760 f i libucrtd:output.obj
 0001:0003a780       ?save_state@?$c_string_character_source@D@__crt_strtox@@QBEPBDXZ 1003b780 f i libucrtd:output.obj
 0001:0003a7a0       ?save_state@?$c_string_character_source@_W@__crt_strtox@@QBEPB_WXZ 1003b7a0 f i libucrtd:output.obj
 0001:0003a7c0       ?set_flag@?$output_processor@DV?$stream_output_adapter@D@__crt_stdio_output@@V?$format_validation_base@DV?$stream_output_adapter@D@__crt_stdio_output@@@2@@__crt_stdio_output@@AAEXI@Z 1003b7c0 f i libucrtd:output.obj
 0001:0003a7e0       ?set_flag@?$output_processor@DV?$stream_output_adapter@D@__crt_stdio_output@@V?$positional_parameter_base@DV?$stream_output_adapter@D@__crt_stdio_output@@@2@@__crt_stdio_output@@AAEXI@Z 1003b7e0 f i libucrtd:output.obj
 0001:0003a800       ?set_flag@?$output_processor@DV?$stream_output_adapter@D@__crt_stdio_output@@V?$standard_base@DV?$stream_output_adapter@D@__crt_stdio_output@@@2@@__crt_stdio_output@@AAEXI@Z 1003b800 f i libucrtd:output.obj
 0001:0003a820       ?set_flag@?$output_processor@DV?$string_output_adapter@D@__crt_stdio_output@@V?$format_validation_base@DV?$string_output_adapter@D@__crt_stdio_output@@@2@@__crt_stdio_output@@AAEXI@Z 1003b820 f i libucrtd:output.obj
 0001:0003a840       ?set_flag@?$output_processor@DV?$string_output_adapter@D@__crt_stdio_output@@V?$positional_parameter_base@DV?$string_output_adapter@D@__crt_stdio_output@@@2@@__crt_stdio_output@@AAEXI@Z 1003b840 f i libucrtd:output.obj
 0001:0003a860       ?set_flag@?$output_processor@DV?$string_output_adapter@D@__crt_stdio_output@@V?$standard_base@DV?$string_output_adapter@D@__crt_stdio_output@@@2@@__crt_stdio_output@@AAEXI@Z 1003b860 f i libucrtd:output.obj
 0001:0003a880       ?set_flag@?$output_processor@_WV?$stream_output_adapter@_W@__crt_stdio_output@@V?$format_validation_base@_WV?$stream_output_adapter@_W@__crt_stdio_output@@@2@@__crt_stdio_output@@AAEXI@Z 1003b880 f i libucrtd:output.obj
 0001:0003a8a0       ?set_flag@?$output_processor@_WV?$stream_output_adapter@_W@__crt_stdio_output@@V?$positional_parameter_base@_WV?$stream_output_adapter@_W@__crt_stdio_output@@@2@@__crt_stdio_output@@AAEXI@Z 1003b8a0 f i libucrtd:output.obj
 0001:0003a8c0       ?set_flag@?$output_processor@_WV?$stream_output_adapter@_W@__crt_stdio_output@@V?$standard_base@_WV?$stream_output_adapter@_W@__crt_stdio_output@@@2@@__crt_stdio_output@@AAEXI@Z 1003b8c0 f i libucrtd:output.obj
 0001:0003a8e0       ?set_flag@?$output_processor@_WV?$string_output_adapter@_W@__crt_stdio_output@@V?$format_validation_base@_WV?$string_output_adapter@_W@__crt_stdio_output@@@2@@__crt_stdio_output@@AAEXI@Z 1003b8e0 f i libucrtd:output.obj
 0001:0003a900       ?set_flag@?$output_processor@_WV?$string_output_adapter@_W@__crt_stdio_output@@V?$positional_parameter_base@_WV?$string_output_adapter@_W@__crt_stdio_output@@@2@@__crt_stdio_output@@AAEXI@Z 1003b900 f i libucrtd:output.obj
 0001:0003a920       ?set_flag@?$output_processor@_WV?$string_output_adapter@_W@__crt_stdio_output@@V?$standard_base@_WV?$string_output_adapter@_W@__crt_stdio_output@@@2@@__crt_stdio_output@@AAEXI@Z 1003b920 f i libucrtd:output.obj
 0001:0003a940       ?should_format@?$positional_parameter_base@DV?$stream_output_adapter@D@__crt_stdio_output@@@__crt_stdio_output@@IAE_NXZ 1003b940 f i libucrtd:output.obj
 0001:0003a980       ?should_format@?$positional_parameter_base@DV?$string_output_adapter@D@__crt_stdio_output@@@__crt_stdio_output@@IAE_NXZ 1003b980 f i libucrtd:output.obj
 0001:0003a9c0       ?should_format@?$positional_parameter_base@_WV?$stream_output_adapter@_W@__crt_stdio_output@@@__crt_stdio_output@@IAE_NXZ 1003b9c0 f i libucrtd:output.obj
 0001:0003aa00       ?should_format@?$positional_parameter_base@_WV?$string_output_adapter@_W@__crt_stdio_output@@@__crt_stdio_output@@IAE_NXZ 1003ba00 f i libucrtd:output.obj
 0001:0003aa40       ?should_format@?$standard_base@DV?$stream_output_adapter@D@__crt_stdio_output@@@__crt_stdio_output@@IAE_NXZ 1003ba40 f i libucrtd:output.obj
 0001:0003aa50       ?should_format@?$standard_base@DV?$string_output_adapter@D@__crt_stdio_output@@@__crt_stdio_output@@IAE_NXZ 1003ba50 f i libucrtd:output.obj
 0001:0003aa60       ?should_format@?$standard_base@_WV?$stream_output_adapter@_W@__crt_stdio_output@@@__crt_stdio_output@@IAE_NXZ 1003ba60 f i libucrtd:output.obj
 0001:0003aa70       ?should_format@?$standard_base@_WV?$string_output_adapter@_W@__crt_stdio_output@@@__crt_stdio_output@@IAE_NXZ 1003ba70 f i libucrtd:output.obj
 0001:0003aa80       ?should_skip_normal_state_processing@?$positional_parameter_base@DV?$stream_output_adapter@D@__crt_stdio_output@@@__crt_stdio_output@@IAE_NXZ 1003ba80 f i libucrtd:output.obj
 0001:0003aad0       ?should_skip_normal_state_processing@?$positional_parameter_base@DV?$string_output_adapter@D@__crt_stdio_output@@@__crt_stdio_output@@IAE_NXZ 1003bad0 f i libucrtd:output.obj
 0001:0003ab20       ?should_skip_normal_state_processing@?$positional_parameter_base@_WV?$stream_output_adapter@_W@__crt_stdio_output@@@__crt_stdio_output@@IAE_NXZ 1003bb20 f i libucrtd:output.obj
 0001:0003ab70       ?should_skip_normal_state_processing@?$positional_parameter_base@_WV?$string_output_adapter@_W@__crt_stdio_output@@@__crt_stdio_output@@IAE_NXZ 1003bb70 f i libucrtd:output.obj
 0001:0003abc0       ?should_skip_normal_state_processing@?$standard_base@DV?$stream_output_adapter@D@__crt_stdio_output@@@__crt_stdio_output@@IAE_NXZ 1003bbc0 f i libucrtd:output.obj
 0001:0003abd0       ?should_skip_normal_state_processing@?$standard_base@DV?$string_output_adapter@D@__crt_stdio_output@@@__crt_stdio_output@@IAE_NXZ 1003bbd0 f i libucrtd:output.obj
 0001:0003abe0       ?should_skip_normal_state_processing@?$standard_base@_WV?$stream_output_adapter@_W@__crt_stdio_output@@@__crt_stdio_output@@IAE_NXZ 1003bbe0 f i libucrtd:output.obj
 0001:0003abf0       ?should_skip_normal_state_processing@?$standard_base@_WV?$string_output_adapter@_W@__crt_stdio_output@@@__crt_stdio_output@@IAE_NXZ 1003bbf0 f i libucrtd:output.obj
 0001:0003ac00       ?should_skip_type_state_output@?$positional_parameter_base@DV?$stream_output_adapter@D@__crt_stdio_output@@@__crt_stdio_output@@IBE_NXZ 1003bc00 f i libucrtd:output.obj
 0001:0003ac40       ?should_skip_type_state_output@?$positional_parameter_base@DV?$string_output_adapter@D@__crt_stdio_output@@@__crt_stdio_output@@IBE_NXZ 1003bc40 f i libucrtd:output.obj
 0001:0003ac80       ?should_skip_type_state_output@?$positional_parameter_base@_WV?$stream_output_adapter@_W@__crt_stdio_output@@@__crt_stdio_output@@IBE_NXZ 1003bc80 f i libucrtd:output.obj
 0001:0003acc0       ?should_skip_type_state_output@?$positional_parameter_base@_WV?$string_output_adapter@_W@__crt_stdio_output@@@__crt_stdio_output@@IBE_NXZ 1003bcc0 f i libucrtd:output.obj
 0001:0003ad00       ?should_skip_type_state_output@?$standard_base@DV?$stream_output_adapter@D@__crt_stdio_output@@@__crt_stdio_output@@IBE_NXZ 1003bd00 f i libucrtd:output.obj
 0001:0003ad10       ?should_skip_type_state_output@?$standard_base@DV?$string_output_adapter@D@__crt_stdio_output@@@__crt_stdio_output@@IBE_NXZ 1003bd10 f i libucrtd:output.obj
 0001:0003ad20       ?should_skip_type_state_output@?$standard_base@_WV?$stream_output_adapter@_W@__crt_stdio_output@@@__crt_stdio_output@@IBE_NXZ 1003bd20 f i libucrtd:output.obj
 0001:0003ad30       ?should_skip_type_state_output@?$standard_base@_WV?$string_output_adapter@_W@__crt_stdio_output@@@__crt_stdio_output@@IBE_NXZ 1003bd30 f i libucrtd:output.obj
 0001:0003ad40       ?state_case_dot@?$output_processor@DV?$stream_output_adapter@D@__crt_stdio_output@@V?$format_validation_base@DV?$stream_output_adapter@D@__crt_stdio_output@@@2@@__crt_stdio_output@@AAE_NXZ 1003bd40 f i libucrtd:output.obj
 0001:0003ad60       ?state_case_dot@?$output_processor@DV?$stream_output_adapter@D@__crt_stdio_output@@V?$positional_parameter_base@DV?$stream_output_adapter@D@__crt_stdio_output@@@2@@__crt_stdio_output@@AAE_NXZ 1003bd60 f i libucrtd:output.obj
 0001:0003ad80       ?state_case_dot@?$output_processor@DV?$stream_output_adapter@D@__crt_stdio_output@@V?$standard_base@DV?$stream_output_adapter@D@__crt_stdio_output@@@2@@__crt_stdio_output@@AAE_NXZ 1003bd80 f i libucrtd:output.obj
 0001:0003ada0       ?state_case_dot@?$output_processor@DV?$string_output_adapter@D@__crt_stdio_output@@V?$format_validation_base@DV?$string_output_adapter@D@__crt_stdio_output@@@2@@__crt_stdio_output@@AAE_NXZ 1003bda0 f i libucrtd:output.obj
 0001:0003adc0       ?state_case_dot@?$output_processor@DV?$string_output_adapter@D@__crt_stdio_output@@V?$positional_parameter_base@DV?$string_output_adapter@D@__crt_stdio_output@@@2@@__crt_stdio_output@@AAE_NXZ 1003bdc0 f i libucrtd:output.obj
 0001:0003ade0       ?state_case_dot@?$output_processor@DV?$string_output_adapter@D@__crt_stdio_output@@V?$standard_base@DV?$string_output_adapter@D@__crt_stdio_output@@@2@@__crt_stdio_output@@AAE_NXZ 1003bde0 f i libucrtd:output.obj
 0001:0003ae00       ?state_case_dot@?$output_processor@_WV?$stream_output_adapter@_W@__crt_stdio_output@@V?$format_validation_base@_WV?$stream_output_adapter@_W@__crt_stdio_output@@@2@@__crt_stdio_output@@AAE_NXZ 1003be00 f i libucrtd:output.obj
 0001:0003ae20       ?state_case_dot@?$output_processor@_WV?$stream_output_adapter@_W@__crt_stdio_output@@V?$positional_parameter_base@_WV?$stream_output_adapter@_W@__crt_stdio_output@@@2@@__crt_stdio_output@@AAE_NXZ 1003be20 f i libucrtd:output.obj
 0001:0003ae40       ?state_case_dot@?$output_processor@_WV?$stream_output_adapter@_W@__crt_stdio_output@@V?$standard_base@_WV?$stream_output_adapter@_W@__crt_stdio_output@@@2@@__crt_stdio_output@@AAE_NXZ 1003be40 f i libucrtd:output.obj
 0001:0003ae60       ?state_case_dot@?$output_processor@_WV?$string_output_adapter@_W@__crt_stdio_output@@V?$format_validation_base@_WV?$string_output_adapter@_W@__crt_stdio_output@@@2@@__crt_stdio_output@@AAE_NXZ 1003be60 f i libucrtd:output.obj
 0001:0003ae80       ?state_case_dot@?$output_processor@_WV?$string_output_adapter@_W@__crt_stdio_output@@V?$positional_parameter_base@_WV?$string_output_adapter@_W@__crt_stdio_output@@@2@@__crt_stdio_output@@AAE_NXZ 1003be80 f i libucrtd:output.obj
 0001:0003aea0       ?state_case_dot@?$output_processor@_WV?$string_output_adapter@_W@__crt_stdio_output@@V?$standard_base@_WV?$string_output_adapter@_W@__crt_stdio_output@@@2@@__crt_stdio_output@@AAE_NXZ 1003bea0 f i libucrtd:output.obj
 0001:0003aec0       ?state_case_flag@?$output_processor@DV?$stream_output_adapter@D@__crt_stdio_output@@V?$format_validation_base@DV?$stream_output_adapter@D@__crt_stdio_output@@@2@@__crt_stdio_output@@AAE_NXZ 1003bec0 f i libucrtd:output.obj
 0001:0003af70       ?state_case_flag@?$output_processor@DV?$stream_output_adapter@D@__crt_stdio_output@@V?$positional_parameter_base@DV?$stream_output_adapter@D@__crt_stdio_output@@@2@@__crt_stdio_output@@AAE_NXZ 1003bf70 f i libucrtd:output.obj
 0001:0003b020       ?state_case_flag@?$output_processor@DV?$stream_output_adapter@D@__crt_stdio_output@@V?$standard_base@DV?$stream_output_adapter@D@__crt_stdio_output@@@2@@__crt_stdio_output@@AAE_NXZ 1003c020 f i libucrtd:output.obj
 0001:0003b0d0       ?state_case_flag@?$output_processor@DV?$string_output_adapter@D@__crt_stdio_output@@V?$format_validation_base@DV?$string_output_adapter@D@__crt_stdio_output@@@2@@__crt_stdio_output@@AAE_NXZ 1003c0d0 f i libucrtd:output.obj
 0001:0003b180       ?state_case_flag@?$output_processor@DV?$string_output_adapter@D@__crt_stdio_output@@V?$positional_parameter_base@DV?$string_output_adapter@D@__crt_stdio_output@@@2@@__crt_stdio_output@@AAE_NXZ 1003c180 f i libucrtd:output.obj
 0001:0003b230       ?state_case_flag@?$output_processor@DV?$string_output_adapter@D@__crt_stdio_output@@V?$standard_base@DV?$string_output_adapter@D@__crt_stdio_output@@@2@@__crt_stdio_output@@AAE_NXZ 1003c230 f i libucrtd:output.obj
 0001:0003b2e0       ?state_case_flag@?$output_processor@_WV?$stream_output_adapter@_W@__crt_stdio_output@@V?$format_validation_base@_WV?$stream_output_adapter@_W@__crt_stdio_output@@@2@@__crt_stdio_output@@AAE_NXZ 1003c2e0 f i libucrtd:output.obj
 0001:0003b390       ?state_case_flag@?$output_processor@_WV?$stream_output_adapter@_W@__crt_stdio_output@@V?$positional_parameter_base@_WV?$stream_output_adapter@_W@__crt_stdio_output@@@2@@__crt_stdio_output@@AAE_NXZ 1003c390 f i libucrtd:output.obj
 0001:0003b440       ?state_case_flag@?$output_processor@_WV?$stream_output_adapter@_W@__crt_stdio_output@@V?$standard_base@_WV?$stream_output_adapter@_W@__crt_stdio_output@@@2@@__crt_stdio_output@@AAE_NXZ 1003c440 f i libucrtd:output.obj
 0001:0003b4f0       ?state_case_flag@?$output_processor@_WV?$string_output_adapter@_W@__crt_stdio_output@@V?$format_validation_base@_WV?$string_output_adapter@_W@__crt_stdio_output@@@2@@__crt_stdio_output@@AAE_NXZ 1003c4f0 f i libucrtd:output.obj
 0001:0003b5a0       ?state_case_flag@?$output_processor@_WV?$string_output_adapter@_W@__crt_stdio_output@@V?$positional_parameter_base@_WV?$string_output_adapter@_W@__crt_stdio_output@@@2@@__crt_stdio_output@@AAE_NXZ 1003c5a0 f i libucrtd:output.obj
 0001:0003b650       ?state_case_flag@?$output_processor@_WV?$string_output_adapter@_W@__crt_stdio_output@@V?$standard_base@_WV?$string_output_adapter@_W@__crt_stdio_output@@@2@@__crt_stdio_output@@AAE_NXZ 1003c650 f i libucrtd:output.obj
 0001:0003b700       ?state_case_normal@?$output_processor@DV?$stream_output_adapter@D@__crt_stdio_output@@V?$format_validation_base@DV?$stream_output_adapter@D@__crt_stdio_output@@@2@@__crt_stdio_output@@AAE_NXZ 1003c700 f i libucrtd:output.obj
 0001:0003b7c0       ?state_case_normal@?$output_processor@DV?$stream_output_adapter@D@__crt_stdio_output@@V?$positional_parameter_base@DV?$stream_output_adapter@D@__crt_stdio_output@@@2@@__crt_stdio_output@@AAE_NXZ 1003c7c0 f i libucrtd:output.obj
 0001:0003b880       ?state_case_normal@?$output_processor@DV?$stream_output_adapter@D@__crt_stdio_output@@V?$standard_base@DV?$stream_output_adapter@D@__crt_stdio_output@@@2@@__crt_stdio_output@@AAE_NXZ 1003c880 f i libucrtd:output.obj
 0001:0003b940       ?state_case_normal@?$output_processor@DV?$string_output_adapter@D@__crt_stdio_output@@V?$format_validation_base@DV?$string_output_adapter@D@__crt_stdio_output@@@2@@__crt_stdio_output@@AAE_NXZ 1003c940 f i libucrtd:output.obj
 0001:0003ba00       ?state_case_normal@?$output_processor@DV?$string_output_adapter@D@__crt_stdio_output@@V?$positional_parameter_base@DV?$string_output_adapter@D@__crt_stdio_output@@@2@@__crt_stdio_output@@AAE_NXZ 1003ca00 f i libucrtd:output.obj
 0001:0003bac0       ?state_case_normal@?$output_processor@DV?$string_output_adapter@D@__crt_stdio_output@@V?$standard_base@DV?$string_output_adapter@D@__crt_stdio_output@@@2@@__crt_stdio_output@@AAE_NXZ 1003cac0 f i libucrtd:output.obj
 0001:0003bb80       ?state_case_normal@?$output_processor@_WV?$stream_output_adapter@_W@__crt_stdio_output@@V?$format_validation_base@_WV?$stream_output_adapter@_W@__crt_stdio_output@@@2@@__crt_stdio_output@@AAE_NXZ 1003cb80 f i libucrtd:output.obj
 0001:0003bc40       ?state_case_normal@?$output_processor@_WV?$stream_output_adapter@_W@__crt_stdio_output@@V?$positional_parameter_base@_WV?$stream_output_adapter@_W@__crt_stdio_output@@@2@@__crt_stdio_output@@AAE_NXZ 1003cc40 f i libucrtd:output.obj
 0001:0003bd00       ?state_case_normal@?$output_processor@_WV?$stream_output_adapter@_W@__crt_stdio_output@@V?$standard_base@_WV?$stream_output_adapter@_W@__crt_stdio_output@@@2@@__crt_stdio_output@@AAE_NXZ 1003cd00 f i libucrtd:output.obj
 0001:0003bdc0       ?state_case_normal@?$output_processor@_WV?$string_output_adapter@_W@__crt_stdio_output@@V?$format_validation_base@_WV?$string_output_adapter@_W@__crt_stdio_output@@@2@@__crt_stdio_output@@AAE_NXZ 1003cdc0 f i libucrtd:output.obj
 0001:0003be80       ?state_case_normal@?$output_processor@_WV?$string_output_adapter@_W@__crt_stdio_output@@V?$positional_parameter_base@_WV?$string_output_adapter@_W@__crt_stdio_output@@@2@@__crt_stdio_output@@AAE_NXZ 1003ce80 f i libucrtd:output.obj
 0001:0003bf40       ?state_case_normal@?$output_processor@_WV?$string_output_adapter@_W@__crt_stdio_output@@V?$standard_base@_WV?$string_output_adapter@_W@__crt_stdio_output@@@2@@__crt_stdio_output@@AAE_NXZ 1003cf40 f i libucrtd:output.obj
 0001:0003c000       ?state_case_normal_common@?$output_processor@DV?$stream_output_adapter@D@__crt_stdio_output@@V?$format_validation_base@DV?$stream_output_adapter@D@__crt_stdio_output@@@2@@__crt_stdio_output@@AAE_NXZ 1003d000 f i libucrtd:output.obj
 0001:0003c050       ?state_case_normal_common@?$output_processor@DV?$stream_output_adapter@D@__crt_stdio_output@@V?$positional_parameter_base@DV?$stream_output_adapter@D@__crt_stdio_output@@@2@@__crt_stdio_output@@AAE_NXZ 1003d050 f i libucrtd:output.obj
 0001:0003c0a0       ?state_case_normal_common@?$output_processor@DV?$stream_output_adapter@D@__crt_stdio_output@@V?$standard_base@DV?$stream_output_adapter@D@__crt_stdio_output@@@2@@__crt_stdio_output@@AAE_NXZ 1003d0a0 f i libucrtd:output.obj
 0001:0003c0f0       ?state_case_normal_common@?$output_processor@DV?$string_output_adapter@D@__crt_stdio_output@@V?$format_validation_base@DV?$string_output_adapter@D@__crt_stdio_output@@@2@@__crt_stdio_output@@AAE_NXZ 1003d0f0 f i libucrtd:output.obj
 0001:0003c140       ?state_case_normal_common@?$output_processor@DV?$string_output_adapter@D@__crt_stdio_output@@V?$positional_parameter_base@DV?$string_output_adapter@D@__crt_stdio_output@@@2@@__crt_stdio_output@@AAE_NXZ 1003d140 f i libucrtd:output.obj
 0001:0003c190       ?state_case_normal_common@?$output_processor@DV?$string_output_adapter@D@__crt_stdio_output@@V?$standard_base@DV?$string_output_adapter@D@__crt_stdio_output@@@2@@__crt_stdio_output@@AAE_NXZ 1003d190 f i libucrtd:output.obj
 0001:0003c1e0       ?state_case_normal_common@?$output_processor@_WV?$stream_output_adapter@_W@__crt_stdio_output@@V?$format_validation_base@_WV?$stream_output_adapter@_W@__crt_stdio_output@@@2@@__crt_stdio_output@@AAE_NXZ 1003d1e0 f i libucrtd:output.obj
 0001:0003c230       ?state_case_normal_common@?$output_processor@_WV?$stream_output_adapter@_W@__crt_stdio_output@@V?$positional_parameter_base@_WV?$stream_output_adapter@_W@__crt_stdio_output@@@2@@__crt_stdio_output@@AAE_NXZ 1003d230 f i libucrtd:output.obj
 0001:0003c280       ?state_case_normal_common@?$output_processor@_WV?$stream_output_adapter@_W@__crt_stdio_output@@V?$standard_base@_WV?$stream_output_adapter@_W@__crt_stdio_output@@@2@@__crt_stdio_output@@AAE_NXZ 1003d280 f i libucrtd:output.obj
 0001:0003c2d0       ?state_case_normal_common@?$output_processor@_WV?$string_output_adapter@_W@__crt_stdio_output@@V?$format_validation_base@_WV?$string_output_adapter@_W@__crt_stdio_output@@@2@@__crt_stdio_output@@AAE_NXZ 1003d2d0 f i libucrtd:output.obj
 0001:0003c320       ?state_case_normal_common@?$output_processor@_WV?$string_output_adapter@_W@__crt_stdio_output@@V?$positional_parameter_base@_WV?$string_output_adapter@_W@__crt_stdio_output@@@2@@__crt_stdio_output@@AAE_NXZ 1003d320 f i libucrtd:output.obj
 0001:0003c370       ?state_case_normal_common@?$output_processor@_WV?$string_output_adapter@_W@__crt_stdio_output@@V?$standard_base@_WV?$string_output_adapter@_W@__crt_stdio_output@@@2@@__crt_stdio_output@@AAE_NXZ 1003d370 f i libucrtd:output.obj
 0001:0003c3c0       ?state_case_normal_tchar@?$output_processor@DV?$stream_output_adapter@D@__crt_stdio_output@@V?$format_validation_base@DV?$stream_output_adapter@D@__crt_stdio_output@@@2@@__crt_stdio_output@@AAE_ND@Z 1003d3c0 f i libucrtd:output.obj
 0001:0003c4f0       ?state_case_normal_tchar@?$output_processor@DV?$stream_output_adapter@D@__crt_stdio_output@@V?$positional_parameter_base@DV?$stream_output_adapter@D@__crt_stdio_output@@@2@@__crt_stdio_output@@AAE_ND@Z 1003d4f0 f i libucrtd:output.obj
 0001:0003c620       ?state_case_normal_tchar@?$output_processor@DV?$stream_output_adapter@D@__crt_stdio_output@@V?$standard_base@DV?$stream_output_adapter@D@__crt_stdio_output@@@2@@__crt_stdio_output@@AAE_ND@Z 1003d620 f i libucrtd:output.obj
 0001:0003c750       ?state_case_normal_tchar@?$output_processor@DV?$string_output_adapter@D@__crt_stdio_output@@V?$format_validation_base@DV?$string_output_adapter@D@__crt_stdio_output@@@2@@__crt_stdio_output@@AAE_ND@Z 1003d750 f i libucrtd:output.obj
 0001:0003c880       ?state_case_normal_tchar@?$output_processor@DV?$string_output_adapter@D@__crt_stdio_output@@V?$positional_parameter_base@DV?$string_output_adapter@D@__crt_stdio_output@@@2@@__crt_stdio_output@@AAE_ND@Z 1003d880 f i libucrtd:output.obj
 0001:0003c9b0       ?state_case_normal_tchar@?$output_processor@DV?$string_output_adapter@D@__crt_stdio_output@@V?$standard_base@DV?$string_output_adapter@D@__crt_stdio_output@@@2@@__crt_stdio_output@@AAE_ND@Z 1003d9b0 f i libucrtd:output.obj
 0001:0003cae0       ?state_case_normal_tchar@?$output_processor@_WV?$stream_output_adapter@_W@__crt_stdio_output@@V?$format_validation_base@_WV?$stream_output_adapter@_W@__crt_stdio_output@@@2@@__crt_stdio_output@@AAE_N_W@Z 1003dae0 f i libucrtd:output.obj
 0001:0003cb00       ?state_case_normal_tchar@?$output_processor@_WV?$stream_output_adapter@_W@__crt_stdio_output@@V?$positional_parameter_base@_WV?$stream_output_adapter@_W@__crt_stdio_output@@@2@@__crt_stdio_output@@AAE_N_W@Z 1003db00 f i libucrtd:output.obj
 0001:0003cb20       ?state_case_normal_tchar@?$output_processor@_WV?$stream_output_adapter@_W@__crt_stdio_output@@V?$standard_base@_WV?$stream_output_adapter@_W@__crt_stdio_output@@@2@@__crt_stdio_output@@AAE_N_W@Z 1003db20 f i libucrtd:output.obj
 0001:0003cb40       ?state_case_normal_tchar@?$output_processor@_WV?$string_output_adapter@_W@__crt_stdio_output@@V?$format_validation_base@_WV?$string_output_adapter@_W@__crt_stdio_output@@@2@@__crt_stdio_output@@AAE_N_W@Z 1003db40 f i libucrtd:output.obj
 0001:0003cb60       ?state_case_normal_tchar@?$output_processor@_WV?$string_output_adapter@_W@__crt_stdio_output@@V?$positional_parameter_base@_WV?$string_output_adapter@_W@__crt_stdio_output@@@2@@__crt_stdio_output@@AAE_N_W@Z 1003db60 f i libucrtd:output.obj
 0001:0003cb80       ?state_case_normal_tchar@?$output_processor@_WV?$string_output_adapter@_W@__crt_stdio_output@@V?$standard_base@_WV?$string_output_adapter@_W@__crt_stdio_output@@@2@@__crt_stdio_output@@AAE_N_W@Z 1003db80 f i libucrtd:output.obj
 0001:0003cba0       ?state_case_percent@?$output_processor@DV?$stream_output_adapter@D@__crt_stdio_output@@V?$format_validation_base@DV?$stream_output_adapter@D@__crt_stdio_output@@@2@@__crt_stdio_output@@AAE_NXZ 1003dba0 f i libucrtd:output.obj
 0001:0003cbf0       ?state_case_percent@?$output_processor@DV?$stream_output_adapter@D@__crt_stdio_output@@V?$positional_parameter_base@DV?$stream_output_adapter@D@__crt_stdio_output@@@2@@__crt_stdio_output@@AAE_NXZ 1003dbf0 f i libucrtd:output.obj
 0001:0003cc40       ?state_case_percent@?$output_processor@DV?$stream_output_adapter@D@__crt_stdio_output@@V?$standard_base@DV?$stream_output_adapter@D@__crt_stdio_output@@@2@@__crt_stdio_output@@AAE_NXZ 1003dc40 f i libucrtd:output.obj
 0001:0003cc90       ?state_case_percent@?$output_processor@DV?$string_output_adapter@D@__crt_stdio_output@@V?$format_validation_base@DV?$string_output_adapter@D@__crt_stdio_output@@@2@@__crt_stdio_output@@AAE_NXZ 1003dc90 f i libucrtd:output.obj
 0001:0003cce0       ?state_case_percent@?$output_processor@DV?$string_output_adapter@D@__crt_stdio_output@@V?$positional_parameter_base@DV?$string_output_adapter@D@__crt_stdio_output@@@2@@__crt_stdio_output@@AAE_NXZ 1003dce0 f i libucrtd:output.obj
 0001:0003cd30       ?state_case_percent@?$output_processor@DV?$string_output_adapter@D@__crt_stdio_output@@V?$standard_base@DV?$string_output_adapter@D@__crt_stdio_output@@@2@@__crt_stdio_output@@AAE_NXZ 1003dd30 f i libucrtd:output.obj
 0001:0003cd80       ?state_case_percent@?$output_processor@_WV?$stream_output_adapter@_W@__crt_stdio_output@@V?$format_validation_base@_WV?$stream_output_adapter@_W@__crt_stdio_output@@@2@@__crt_stdio_output@@AAE_NXZ 1003dd80 f i libucrtd:output.obj
 0001:0003cdd0       ?state_case_percent@?$output_processor@_WV?$stream_output_adapter@_W@__crt_stdio_output@@V?$positional_parameter_base@_WV?$stream_output_adapter@_W@__crt_stdio_output@@@2@@__crt_stdio_output@@AAE_NXZ 1003ddd0 f i libucrtd:output.obj
 0001:0003ce20       ?state_case_percent@?$output_processor@_WV?$stream_output_adapter@_W@__crt_stdio_output@@V?$standard_base@_WV?$stream_output_adapter@_W@__crt_stdio_output@@@2@@__crt_stdio_output@@AAE_NXZ 1003de20 f i libucrtd:output.obj
 0001:0003ce70       ?state_case_percent@?$output_processor@_WV?$string_output_adapter@_W@__crt_stdio_output@@V?$format_validation_base@_WV?$string_output_adapter@_W@__crt_stdio_output@@@2@@__crt_stdio_output@@AAE_NXZ 1003de70 f i libucrtd:output.obj
 0001:0003cec0       ?state_case_percent@?$output_processor@_WV?$string_output_adapter@_W@__crt_stdio_output@@V?$positional_parameter_base@_WV?$string_output_adapter@_W@__crt_stdio_output@@@2@@__crt_stdio_output@@AAE_NXZ 1003dec0 f i libucrtd:output.obj
 0001:0003cf10       ?state_case_percent@?$output_processor@_WV?$string_output_adapter@_W@__crt_stdio_output@@V?$standard_base@_WV?$string_output_adapter@_W@__crt_stdio_output@@@2@@__crt_stdio_output@@AAE_NXZ 1003df10 f i libucrtd:output.obj
 0001:0003cf60       ?state_case_precision@?$output_processor@DV?$stream_output_adapter@D@__crt_stdio_output@@V?$format_validation_base@DV?$stream_output_adapter@D@__crt_stdio_output@@@2@@__crt_stdio_output@@AAE_NXZ 1003df60 f i libucrtd:output.obj
 0001:0003cfd0       ?state_case_precision@?$output_processor@DV?$stream_output_adapter@D@__crt_stdio_output@@V?$positional_parameter_base@DV?$stream_output_adapter@D@__crt_stdio_output@@@2@@__crt_stdio_output@@AAE_NXZ 1003dfd0 f i libucrtd:output.obj
 0001:0003d040       ?state_case_precision@?$output_processor@DV?$stream_output_adapter@D@__crt_stdio_output@@V?$standard_base@DV?$stream_output_adapter@D@__crt_stdio_output@@@2@@__crt_stdio_output@@AAE_NXZ 1003e040 f i libucrtd:output.obj
 0001:0003d0b0       ?state_case_precision@?$output_processor@DV?$string_output_adapter@D@__crt_stdio_output@@V?$format_validation_base@DV?$string_output_adapter@D@__crt_stdio_output@@@2@@__crt_stdio_output@@AAE_NXZ 1003e0b0 f i libucrtd:output.obj
 0001:0003d120       ?state_case_precision@?$output_processor@DV?$string_output_adapter@D@__crt_stdio_output@@V?$positional_parameter_base@DV?$string_output_adapter@D@__crt_stdio_output@@@2@@__crt_stdio_output@@AAE_NXZ 1003e120 f i libucrtd:output.obj
 0001:0003d190       ?state_case_precision@?$output_processor@DV?$string_output_adapter@D@__crt_stdio_output@@V?$standard_base@DV?$string_output_adapter@D@__crt_stdio_output@@@2@@__crt_stdio_output@@AAE_NXZ 1003e190 f i libucrtd:output.obj
 0001:0003d200       ?state_case_precision@?$output_processor@_WV?$stream_output_adapter@_W@__crt_stdio_output@@V?$format_validation_base@_WV?$stream_output_adapter@_W@__crt_stdio_output@@@2@@__crt_stdio_output@@AAE_NXZ 1003e200 f i libucrtd:output.obj
 0001:0003d270       ?state_case_precision@?$output_processor@_WV?$stream_output_adapter@_W@__crt_stdio_output@@V?$positional_parameter_base@_WV?$stream_output_adapter@_W@__crt_stdio_output@@@2@@__crt_stdio_output@@AAE_NXZ 1003e270 f i libucrtd:output.obj
 0001:0003d2e0       ?state_case_precision@?$output_processor@_WV?$stream_output_adapter@_W@__crt_stdio_output@@V?$standard_base@_WV?$stream_output_adapter@_W@__crt_stdio_output@@@2@@__crt_stdio_output@@AAE_NXZ 1003e2e0 f i libucrtd:output.obj
 0001:0003d350       ?state_case_precision@?$output_processor@_WV?$string_output_adapter@_W@__crt_stdio_output@@V?$format_validation_base@_WV?$string_output_adapter@_W@__crt_stdio_output@@@2@@__crt_stdio_output@@AAE_NXZ 1003e350 f i libucrtd:output.obj
 0001:0003d3c0       ?state_case_precision@?$output_processor@_WV?$string_output_adapter@_W@__crt_stdio_output@@V?$positional_parameter_base@_WV?$string_output_adapter@_W@__crt_stdio_output@@@2@@__crt_stdio_output@@AAE_NXZ 1003e3c0 f i libucrtd:output.obj
 0001:0003d430       ?state_case_precision@?$output_processor@_WV?$string_output_adapter@_W@__crt_stdio_output@@V?$standard_base@_WV?$string_output_adapter@_W@__crt_stdio_output@@@2@@__crt_stdio_output@@AAE_NXZ 1003e430 f i libucrtd:output.obj
 0001:0003d4a0       ?state_case_size@?$output_processor@DV?$stream_output_adapter@D@__crt_stdio_output@@V?$format_validation_base@DV?$stream_output_adapter@D@__crt_stdio_output@@@2@@__crt_stdio_output@@AAE_NXZ 1003e4a0 f i libucrtd:output.obj
 0001:0003d890       ?state_case_size@?$output_processor@DV?$stream_output_adapter@D@__crt_stdio_output@@V?$positional_parameter_base@DV?$stream_output_adapter@D@__crt_stdio_output@@@2@@__crt_stdio_output@@AAE_NXZ 1003e890 f i libucrtd:output.obj
 0001:0003dc80       ?state_case_size@?$output_processor@DV?$stream_output_adapter@D@__crt_stdio_output@@V?$standard_base@DV?$stream_output_adapter@D@__crt_stdio_output@@@2@@__crt_stdio_output@@AAE_NXZ 1003ec80 f i libucrtd:output.obj
 0001:0003e070       ?state_case_size@?$output_processor@DV?$string_output_adapter@D@__crt_stdio_output@@V?$format_validation_base@DV?$string_output_adapter@D@__crt_stdio_output@@@2@@__crt_stdio_output@@AAE_NXZ 1003f070 f i libucrtd:output.obj
 0001:0003e460       ?state_case_size@?$output_processor@DV?$string_output_adapter@D@__crt_stdio_output@@V?$positional_parameter_base@DV?$string_output_adapter@D@__crt_stdio_output@@@2@@__crt_stdio_output@@AAE_NXZ 1003f460 f i libucrtd:output.obj
 0001:0003e850       ?state_case_size@?$output_processor@DV?$string_output_adapter@D@__crt_stdio_output@@V?$standard_base@DV?$string_output_adapter@D@__crt_stdio_output@@@2@@__crt_stdio_output@@AAE_NXZ 1003f850 f i libucrtd:output.obj
 0001:0003ec40       ?state_case_size@?$output_processor@_WV?$stream_output_adapter@_W@__crt_stdio_output@@V?$format_validation_base@_WV?$stream_output_adapter@_W@__crt_stdio_output@@@2@@__crt_stdio_output@@AAE_NXZ 1003fc40 f i libucrtd:output.obj
 0001:0003f030       ?state_case_size@?$output_processor@_WV?$stream_output_adapter@_W@__crt_stdio_output@@V?$positional_parameter_base@_WV?$stream_output_adapter@_W@__crt_stdio_output@@@2@@__crt_stdio_output@@AAE_NXZ 10040030 f i libucrtd:output.obj
 0001:0003f420       ?state_case_size@?$output_processor@_WV?$stream_output_adapter@_W@__crt_stdio_output@@V?$standard_base@_WV?$stream_output_adapter@_W@__crt_stdio_output@@@2@@__crt_stdio_output@@AAE_NXZ 10040420 f i libucrtd:output.obj
 0001:0003f810       ?state_case_size@?$output_processor@_WV?$string_output_adapter@_W@__crt_stdio_output@@V?$format_validation_base@_WV?$string_output_adapter@_W@__crt_stdio_output@@@2@@__crt_stdio_output@@AAE_NXZ 10040810 f i libucrtd:output.obj
 0001:0003fc00       ?state_case_size@?$output_processor@_WV?$string_output_adapter@_W@__crt_stdio_output@@V?$positional_parameter_base@_WV?$string_output_adapter@_W@__crt_stdio_output@@@2@@__crt_stdio_output@@AAE_NXZ 10040c00 f i libucrtd:output.obj
 0001:0003fff0       ?state_case_size@?$output_processor@_WV?$string_output_adapter@_W@__crt_stdio_output@@V?$standard_base@_WV?$string_output_adapter@_W@__crt_stdio_output@@@2@@__crt_stdio_output@@AAE_NXZ 10040ff0 f i libucrtd:output.obj
 0001:000403e0       ?state_case_type@?$output_processor@DV?$stream_output_adapter@D@__crt_stdio_output@@V?$format_validation_base@DV?$stream_output_adapter@D@__crt_stdio_output@@@2@@__crt_stdio_output@@AAE_NXZ 100413e0 f i libucrtd:output.obj
 0001:000407b0       ?state_case_type@?$output_processor@DV?$stream_output_adapter@D@__crt_stdio_output@@V?$positional_parameter_base@DV?$stream_output_adapter@D@__crt_stdio_output@@@2@@__crt_stdio_output@@AAE_NXZ 100417b0 f i libucrtd:output.obj
 0001:00040b80       ?state_case_type@?$output_processor@DV?$stream_output_adapter@D@__crt_stdio_output@@V?$standard_base@DV?$stream_output_adapter@D@__crt_stdio_output@@@2@@__crt_stdio_output@@AAE_NXZ 10041b80 f i libucrtd:output.obj
 0001:00040f50       ?state_case_type@?$output_processor@DV?$string_output_adapter@D@__crt_stdio_output@@V?$format_validation_base@DV?$string_output_adapter@D@__crt_stdio_output@@@2@@__crt_stdio_output@@AAE_NXZ 10041f50 f i libucrtd:output.obj
 0001:00041320       ?state_case_type@?$output_processor@DV?$string_output_adapter@D@__crt_stdio_output@@V?$positional_parameter_base@DV?$string_output_adapter@D@__crt_stdio_output@@@2@@__crt_stdio_output@@AAE_NXZ 10042320 f i libucrtd:output.obj
 0001:000416f0       ?state_case_type@?$output_processor@DV?$string_output_adapter@D@__crt_stdio_output@@V?$standard_base@DV?$string_output_adapter@D@__crt_stdio_output@@@2@@__crt_stdio_output@@AAE_NXZ 100426f0 f i libucrtd:output.obj
 0001:00041ac0       ?state_case_type@?$output_processor@_WV?$stream_output_adapter@_W@__crt_stdio_output@@V?$format_validation_base@_WV?$stream_output_adapter@_W@__crt_stdio_output@@@2@@__crt_stdio_output@@AAE_NXZ 10042ac0 f i libucrtd:output.obj
 0001:00041ec0       ?state_case_type@?$output_processor@_WV?$stream_output_adapter@_W@__crt_stdio_output@@V?$positional_parameter_base@_WV?$stream_output_adapter@_W@__crt_stdio_output@@@2@@__crt_stdio_output@@AAE_NXZ 10042ec0 f i libucrtd:output.obj
 0001:000422c0       ?state_case_type@?$output_processor@_WV?$stream_output_adapter@_W@__crt_stdio_output@@V?$standard_base@_WV?$stream_output_adapter@_W@__crt_stdio_output@@@2@@__crt_stdio_output@@AAE_NXZ 100432c0 f i libucrtd:output.obj
 0001:000426c0       ?state_case_type@?$output_processor@_WV?$string_output_adapter@_W@__crt_stdio_output@@V?$format_validation_base@_WV?$string_output_adapter@_W@__crt_stdio_output@@@2@@__crt_stdio_output@@AAE_NXZ 100436c0 f i libucrtd:output.obj
 0001:00042ac0       ?state_case_type@?$output_processor@_WV?$string_output_adapter@_W@__crt_stdio_output@@V?$positional_parameter_base@_WV?$string_output_adapter@_W@__crt_stdio_output@@@2@@__crt_stdio_output@@AAE_NXZ 10043ac0 f i libucrtd:output.obj
 0001:00042ec0       ?state_case_type@?$output_processor@_WV?$string_output_adapter@_W@__crt_stdio_output@@V?$standard_base@_WV?$string_output_adapter@_W@__crt_stdio_output@@@2@@__crt_stdio_output@@AAE_NXZ 10043ec0 f i libucrtd:output.obj
 0001:000432c0       ?state_case_width@?$output_processor@DV?$stream_output_adapter@D@__crt_stdio_output@@V?$format_validation_base@DV?$stream_output_adapter@D@__crt_stdio_output@@@2@@__crt_stdio_output@@AAE_NXZ 100442c0 f i libucrtd:output.obj
 0001:00043340       ?state_case_width@?$output_processor@DV?$stream_output_adapter@D@__crt_stdio_output@@V?$positional_parameter_base@DV?$stream_output_adapter@D@__crt_stdio_output@@@2@@__crt_stdio_output@@AAE_NXZ 10044340 f i libucrtd:output.obj
 0001:000433c0       ?state_case_width@?$output_processor@DV?$stream_output_adapter@D@__crt_stdio_output@@V?$standard_base@DV?$stream_output_adapter@D@__crt_stdio_output@@@2@@__crt_stdio_output@@AAE_NXZ 100443c0 f i libucrtd:output.obj
 0001:00043440       ?state_case_width@?$output_processor@DV?$string_output_adapter@D@__crt_stdio_output@@V?$format_validation_base@DV?$string_output_adapter@D@__crt_stdio_output@@@2@@__crt_stdio_output@@AAE_NXZ 10044440 f i libucrtd:output.obj
 0001:000434c0       ?state_case_width@?$output_processor@DV?$string_output_adapter@D@__crt_stdio_output@@V?$positional_parameter_base@DV?$string_output_adapter@D@__crt_stdio_output@@@2@@__crt_stdio_output@@AAE_NXZ 100444c0 f i libucrtd:output.obj
 0001:00043540       ?state_case_width@?$output_processor@DV?$string_output_adapter@D@__crt_stdio_output@@V?$standard_base@DV?$string_output_adapter@D@__crt_stdio_output@@@2@@__crt_stdio_output@@AAE_NXZ 10044540 f i libucrtd:output.obj
 0001:000435c0       ?state_case_width@?$output_processor@_WV?$stream_output_adapter@_W@__crt_stdio_output@@V?$format_validation_base@_WV?$stream_output_adapter@_W@__crt_stdio_output@@@2@@__crt_stdio_output@@AAE_NXZ 100445c0 f i libucrtd:output.obj
 0001:00043640       ?state_case_width@?$output_processor@_WV?$stream_output_adapter@_W@__crt_stdio_output@@V?$positional_parameter_base@_WV?$stream_output_adapter@_W@__crt_stdio_output@@@2@@__crt_stdio_output@@AAE_NXZ 10044640 f i libucrtd:output.obj
 0001:000436c0       ?state_case_width@?$output_processor@_WV?$stream_output_adapter@_W@__crt_stdio_output@@V?$standard_base@_WV?$stream_output_adapter@_W@__crt_stdio_output@@@2@@__crt_stdio_output@@AAE_NXZ 100446c0 f i libucrtd:output.obj
 0001:00043740       ?state_case_width@?$output_processor@_WV?$string_output_adapter@_W@__crt_stdio_output@@V?$format_validation_base@_WV?$string_output_adapter@_W@__crt_stdio_output@@@2@@__crt_stdio_output@@AAE_NXZ 10044740 f i libucrtd:output.obj
 0001:000437c0       ?state_case_width@?$output_processor@_WV?$string_output_adapter@_W@__crt_stdio_output@@V?$positional_parameter_base@_WV?$string_output_adapter@_W@__crt_stdio_output@@@2@@__crt_stdio_output@@AAE_NXZ 100447c0 f i libucrtd:output.obj
 0001:00043840       ?state_case_width@?$output_processor@_WV?$string_output_adapter@_W@__crt_stdio_output@@V?$standard_base@_WV?$string_output_adapter@_W@__crt_stdio_output@@@2@@__crt_stdio_output@@AAE_NXZ 10044840 f i libucrtd:output.obj
 0001:000438c0       ?state_count@?$format_validation_base@DV?$stream_output_adapter@D@__crt_stdio_output@@@__crt_stdio_output@@KAIXZ 100448c0 f i libucrtd:output.obj
 0001:000438d0       ?state_count@?$format_validation_base@DV?$string_output_adapter@D@__crt_stdio_output@@@__crt_stdio_output@@KAIXZ 100448d0 f i libucrtd:output.obj
 0001:000438e0       ?state_count@?$format_validation_base@_WV?$stream_output_adapter@_W@__crt_stdio_output@@@__crt_stdio_output@@KAIXZ 100448e0 f i libucrtd:output.obj
 0001:000438f0       ?state_count@?$format_validation_base@_WV?$string_output_adapter@_W@__crt_stdio_output@@@__crt_stdio_output@@KAIXZ 100448f0 f i libucrtd:output.obj
 0001:00043900       ?state_count@?$standard_base@DV?$stream_output_adapter@D@__crt_stdio_output@@@__crt_stdio_output@@KAIXZ 10044900 f i libucrtd:output.obj
 0001:00043910       ?state_count@?$standard_base@DV?$string_output_adapter@D@__crt_stdio_output@@@__crt_stdio_output@@KAIXZ 10044910 f i libucrtd:output.obj
 0001:00043920       ?state_count@?$standard_base@_WV?$stream_output_adapter@_W@__crt_stdio_output@@@__crt_stdio_output@@KAIXZ 10044920 f i libucrtd:output.obj
 0001:00043930       ?state_count@?$standard_base@_WV?$string_output_adapter@_W@__crt_stdio_output@@@__crt_stdio_output@@KAIXZ 10044930 f i libucrtd:output.obj
 0001:00043940       ?state_transition_table@?$format_validation_base@DV?$stream_output_adapter@D@__crt_stdio_output@@@__crt_stdio_output@@KAABV?$spectre_mitigated_lookup_table@Ustate_transition_pair@__crt_stdio_output@@$0IA@@2@XZ 10044940 f i libucrtd:output.obj
 0001:00043950       ?state_transition_table@?$format_validation_base@DV?$string_output_adapter@D@__crt_stdio_output@@@__crt_stdio_output@@KAABV?$spectre_mitigated_lookup_table@Ustate_transition_pair@__crt_stdio_output@@$0IA@@2@XZ 10044950 f i libucrtd:output.obj
 0001:00043960       ?state_transition_table@?$format_validation_base@_WV?$stream_output_adapter@_W@__crt_stdio_output@@@__crt_stdio_output@@KAABV?$spectre_mitigated_lookup_table@Ustate_transition_pair@__crt_stdio_output@@$0IA@@2@XZ 10044960 f i libucrtd:output.obj
 0001:00043970       ?state_transition_table@?$format_validation_base@_WV?$string_output_adapter@_W@__crt_stdio_output@@@__crt_stdio_output@@KAABV?$spectre_mitigated_lookup_table@Ustate_transition_pair@__crt_stdio_output@@$0IA@@2@XZ 10044970 f i libucrtd:output.obj
 0001:00043980       ?state_transition_table@?$standard_base@DV?$stream_output_adapter@D@__crt_stdio_output@@@__crt_stdio_output@@KAABV?$spectre_mitigated_lookup_table@Ustate_transition_pair@__crt_stdio_output@@$0IA@@2@XZ 10044980 f i libucrtd:output.obj
 0001:00043990       ?state_transition_table@?$standard_base@DV?$string_output_adapter@D@__crt_stdio_output@@@__crt_stdio_output@@KAABV?$spectre_mitigated_lookup_table@Ustate_transition_pair@__crt_stdio_output@@$0IA@@2@XZ 10044990 f i libucrtd:output.obj
 0001:000439a0       ?state_transition_table@?$standard_base@_WV?$stream_output_adapter@_W@__crt_stdio_output@@@__crt_stdio_output@@KAABV?$spectre_mitigated_lookup_table@Ustate_transition_pair@__crt_stdio_output@@$0IA@@2@XZ 100449a0 f i libucrtd:output.obj
 0001:000439b0       ?state_transition_table@?$standard_base@_WV?$string_output_adapter@_W@__crt_stdio_output@@@__crt_stdio_output@@KAABV?$spectre_mitigated_lookup_table@Ustate_transition_pair@__crt_stdio_output@@$0IA@@2@XZ 100449b0 f i libucrtd:output.obj
 0001:000439c0       ?tchar_string@?$common_data@D@__crt_stdio_output@@IAEAAPADD@Z 100449c0 f i libucrtd:output.obj
 0001:000439e0       ?tchar_string@?$common_data@D@__crt_stdio_output@@IAEAAPADXZ 100449e0 f i libucrtd:output.obj
 0001:00043a00       ?tchar_string@?$common_data@_W@__crt_stdio_output@@IAEAAPA_WXZ 10044a00 f i libucrtd:output.obj
 0001:00043a20       ?tchar_string@?$common_data@_W@__crt_stdio_output@@IAEAAPA_W_W@Z 10044a20 f i libucrtd:output.obj
 0001:00043a40       ?to_integer_size@__crt_stdio_output@@YAIW4length_modifier@1@@Z 10044a40 f i libucrtd:output.obj
 0001:00043ae0       ?type_case_X@?$output_processor@DV?$stream_output_adapter@D@__crt_stdio_output@@V?$format_validation_base@DV?$stream_output_adapter@D@__crt_stdio_output@@@2@@__crt_stdio_output@@AAE_NXZ 10044ae0 f i libucrtd:output.obj
 0001:00043b00       ?type_case_X@?$output_processor@DV?$stream_output_adapter@D@__crt_stdio_output@@V?$positional_parameter_base@DV?$stream_output_adapter@D@__crt_stdio_output@@@2@@__crt_stdio_output@@AAE_NXZ 10044b00 f i libucrtd:output.obj
 0001:00043b20       ?type_case_X@?$output_processor@DV?$stream_output_adapter@D@__crt_stdio_output@@V?$standard_base@DV?$stream_output_adapter@D@__crt_stdio_output@@@2@@__crt_stdio_output@@AAE_NXZ 10044b20 f i libucrtd:output.obj
 0001:00043b40       ?type_case_X@?$output_processor@DV?$string_output_adapter@D@__crt_stdio_output@@V?$format_validation_base@DV?$string_output_adapter@D@__crt_stdio_output@@@2@@__crt_stdio_output@@AAE_NXZ 10044b40 f i libucrtd:output.obj
 0001:00043b60       ?type_case_X@?$output_processor@DV?$string_output_adapter@D@__crt_stdio_output@@V?$positional_parameter_base@DV?$string_output_adapter@D@__crt_stdio_output@@@2@@__crt_stdio_output@@AAE_NXZ 10044b60 f i libucrtd:output.obj
 0001:00043b80       ?type_case_X@?$output_processor@DV?$string_output_adapter@D@__crt_stdio_output@@V?$standard_base@DV?$string_output_adapter@D@__crt_stdio_output@@@2@@__crt_stdio_output@@AAE_NXZ 10044b80 f i libucrtd:output.obj
 0001:00043ba0       ?type_case_X@?$output_processor@_WV?$stream_output_adapter@_W@__crt_stdio_output@@V?$format_validation_base@_WV?$stream_output_adapter@_W@__crt_stdio_output@@@2@@__crt_stdio_output@@AAE_NXZ 10044ba0 f i libucrtd:output.obj
 0001:00043bc0       ?type_case_X@?$output_processor@_WV?$stream_output_adapter@_W@__crt_stdio_output@@V?$positional_parameter_base@_WV?$stream_output_adapter@_W@__crt_stdio_output@@@2@@__crt_stdio_output@@AAE_NXZ 10044bc0 f i libucrtd:output.obj
 0001:00043be0       ?type_case_X@?$output_processor@_WV?$stream_output_adapter@_W@__crt_stdio_output@@V?$standard_base@_WV?$stream_output_adapter@_W@__crt_stdio_output@@@2@@__crt_stdio_output@@AAE_NXZ 10044be0 f i libucrtd:output.obj
 0001:00043c00       ?type_case_X@?$output_processor@_WV?$string_output_adapter@_W@__crt_stdio_output@@V?$format_validation_base@_WV?$string_output_adapter@_W@__crt_stdio_output@@@2@@__crt_stdio_output@@AAE_NXZ 10044c00 f i libucrtd:output.obj
 0001:00043c20       ?type_case_X@?$output_processor@_WV?$string_output_adapter@_W@__crt_stdio_output@@V?$positional_parameter_base@_WV?$string_output_adapter@_W@__crt_stdio_output@@@2@@__crt_stdio_output@@AAE_NXZ 10044c20 f i libucrtd:output.obj
 0001:00043c40       ?type_case_X@?$output_processor@_WV?$string_output_adapter@_W@__crt_stdio_output@@V?$standard_base@_WV?$string_output_adapter@_W@__crt_stdio_output@@@2@@__crt_stdio_output@@AAE_NXZ 10044c40 f i libucrtd:output.obj
 0001:00043c60       ?type_case_Z@?$output_processor@DV?$stream_output_adapter@D@__crt_stdio_output@@V?$format_validation_base@DV?$stream_output_adapter@D@__crt_stdio_output@@@2@@__crt_stdio_output@@AAE_NXZ 10044c60 f i libucrtd:output.obj
 0001:00043d50       ?type_case_Z@?$output_processor@DV?$stream_output_adapter@D@__crt_stdio_output@@V?$positional_parameter_base@DV?$stream_output_adapter@D@__crt_stdio_output@@@2@@__crt_stdio_output@@AAE_NXZ 10044d50 f i libucrtd:output.obj
 0001:00043e40       ?type_case_Z@?$output_processor@DV?$stream_output_adapter@D@__crt_stdio_output@@V?$standard_base@DV?$stream_output_adapter@D@__crt_stdio_output@@@2@@__crt_stdio_output@@AAE_NXZ 10044e40 f i libucrtd:output.obj
 0001:00043f30       ?type_case_Z@?$output_processor@DV?$string_output_adapter@D@__crt_stdio_output@@V?$format_validation_base@DV?$string_output_adapter@D@__crt_stdio_output@@@2@@__crt_stdio_output@@AAE_NXZ 10044f30 f i libucrtd:output.obj
 0001:00044020       ?type_case_Z@?$output_processor@DV?$string_output_adapter@D@__crt_stdio_output@@V?$positional_parameter_base@DV?$string_output_adapter@D@__crt_stdio_output@@@2@@__crt_stdio_output@@AAE_NXZ 10045020 f i libucrtd:output.obj
 0001:00044110       ?type_case_Z@?$output_processor@DV?$string_output_adapter@D@__crt_stdio_output@@V?$standard_base@DV?$string_output_adapter@D@__crt_stdio_output@@@2@@__crt_stdio_output@@AAE_NXZ 10045110 f i libucrtd:output.obj
 0001:00044200       ?type_case_Z@?$output_processor@_WV?$stream_output_adapter@_W@__crt_stdio_output@@V?$format_validation_base@_WV?$stream_output_adapter@_W@__crt_stdio_output@@@2@@__crt_stdio_output@@AAE_NXZ 10045200 f i libucrtd:output.obj
 0001:000442f0       ?type_case_Z@?$output_processor@_WV?$stream_output_adapter@_W@__crt_stdio_output@@V?$positional_parameter_base@_WV?$stream_output_adapter@_W@__crt_stdio_output@@@2@@__crt_stdio_output@@AAE_NXZ 100452f0 f i libucrtd:output.obj
 0001:000443e0       ?type_case_Z@?$output_processor@_WV?$stream_output_adapter@_W@__crt_stdio_output@@V?$standard_base@_WV?$stream_output_adapter@_W@__crt_stdio_output@@@2@@__crt_stdio_output@@AAE_NXZ 100453e0 f i libucrtd:output.obj
 0001:000444d0       ?type_case_Z@?$output_processor@_WV?$string_output_adapter@_W@__crt_stdio_output@@V?$format_validation_base@_WV?$string_output_adapter@_W@__crt_stdio_output@@@2@@__crt_stdio_output@@AAE_NXZ 100454d0 f i libucrtd:output.obj
 0001:000445c0       ?type_case_Z@?$output_processor@_WV?$string_output_adapter@_W@__crt_stdio_output@@V?$positional_parameter_base@_WV?$string_output_adapter@_W@__crt_stdio_output@@@2@@__crt_stdio_output@@AAE_NXZ 100455c0 f i libucrtd:output.obj
 0001:000446b0       ?type_case_Z@?$output_processor@_WV?$string_output_adapter@_W@__crt_stdio_output@@V?$standard_base@_WV?$string_output_adapter@_W@__crt_stdio_output@@@2@@__crt_stdio_output@@AAE_NXZ 100456b0 f i libucrtd:output.obj
 0001:000447a0       ?type_case_a@?$output_processor@DV?$stream_output_adapter@D@__crt_stdio_output@@V?$format_validation_base@DV?$stream_output_adapter@D@__crt_stdio_output@@@2@@__crt_stdio_output@@AAE_NXZ 100457a0 f i libucrtd:output.obj
 0001:00044a70       ?type_case_a@?$output_processor@DV?$stream_output_adapter@D@__crt_stdio_output@@V?$positional_parameter_base@DV?$stream_output_adapter@D@__crt_stdio_output@@@2@@__crt_stdio_output@@AAE_NXZ 10045a70 f i libucrtd:output.obj
 0001:00044d40       ?type_case_a@?$output_processor@DV?$stream_output_adapter@D@__crt_stdio_output@@V?$standard_base@DV?$stream_output_adapter@D@__crt_stdio_output@@@2@@__crt_stdio_output@@AAE_NXZ 10045d40 f i libucrtd:output.obj
 0001:00045010       ?type_case_a@?$output_processor@DV?$string_output_adapter@D@__crt_stdio_output@@V?$format_validation_base@DV?$string_output_adapter@D@__crt_stdio_output@@@2@@__crt_stdio_output@@AAE_NXZ 10046010 f i libucrtd:output.obj
 0001:000452e0       ?type_case_a@?$output_processor@DV?$string_output_adapter@D@__crt_stdio_output@@V?$positional_parameter_base@DV?$string_output_adapter@D@__crt_stdio_output@@@2@@__crt_stdio_output@@AAE_NXZ 100462e0 f i libucrtd:output.obj
 0001:000455b0       ?type_case_a@?$output_processor@DV?$string_output_adapter@D@__crt_stdio_output@@V?$standard_base@DV?$string_output_adapter@D@__crt_stdio_output@@@2@@__crt_stdio_output@@AAE_NXZ 100465b0 f i libucrtd:output.obj
 0001:00045880       ?type_case_a@?$output_processor@_WV?$stream_output_adapter@_W@__crt_stdio_output@@V?$format_validation_base@_WV?$stream_output_adapter@_W@__crt_stdio_output@@@2@@__crt_stdio_output@@AAE_NXZ 10046880 f i libucrtd:output.obj
 0001:00045b50       ?type_case_a@?$output_processor@_WV?$stream_output_adapter@_W@__crt_stdio_output@@V?$positional_parameter_base@_WV?$stream_output_adapter@_W@__crt_stdio_output@@@2@@__crt_stdio_output@@AAE_NXZ 10046b50 f i libucrtd:output.obj
 0001:00045e20       ?type_case_a@?$output_processor@_WV?$stream_output_adapter@_W@__crt_stdio_output@@V?$standard_base@_WV?$stream_output_adapter@_W@__crt_stdio_output@@@2@@__crt_stdio_output@@AAE_NXZ 10046e20 f i libucrtd:output.obj
 0001:000460f0       ?type_case_a@?$output_processor@_WV?$string_output_adapter@_W@__crt_stdio_output@@V?$format_validation_base@_WV?$string_output_adapter@_W@__crt_stdio_output@@@2@@__crt_stdio_output@@AAE_NXZ 100470f0 f i libucrtd:output.obj
 0001:000463c0       ?type_case_a@?$output_processor@_WV?$string_output_adapter@_W@__crt_stdio_output@@V?$positional_parameter_base@_WV?$string_output_adapter@_W@__crt_stdio_output@@@2@@__crt_stdio_output@@AAE_NXZ 100473c0 f i libucrtd:output.obj
 0001:00046690       ?type_case_a@?$output_processor@_WV?$string_output_adapter@_W@__crt_stdio_output@@V?$standard_base@_WV?$string_output_adapter@_W@__crt_stdio_output@@@2@@__crt_stdio_output@@AAE_NXZ 10047690 f i libucrtd:output.obj
 0001:00046960       ?type_case_c@?$output_processor@DV?$stream_output_adapter@D@__crt_stdio_output@@V?$format_validation_base@DV?$stream_output_adapter@D@__crt_stdio_output@@@2@@__crt_stdio_output@@AAE_NXZ 10047960 f i libucrtd:output.obj
 0001:00046980       ?type_case_c@?$output_processor@DV?$stream_output_adapter@D@__crt_stdio_output@@V?$positional_parameter_base@DV?$stream_output_adapter@D@__crt_stdio_output@@@2@@__crt_stdio_output@@AAE_NXZ 10047980 f i libucrtd:output.obj
 0001:000469a0       ?type_case_c@?$output_processor@DV?$stream_output_adapter@D@__crt_stdio_output@@V?$standard_base@DV?$stream_output_adapter@D@__crt_stdio_output@@@2@@__crt_stdio_output@@AAE_NXZ 100479a0 f i libucrtd:output.obj
 0001:000469c0       ?type_case_c@?$output_processor@DV?$string_output_adapter@D@__crt_stdio_output@@V?$format_validation_base@DV?$string_output_adapter@D@__crt_stdio_output@@@2@@__crt_stdio_output@@AAE_NXZ 100479c0 f i libucrtd:output.obj
 0001:000469e0       ?type_case_c@?$output_processor@DV?$string_output_adapter@D@__crt_stdio_output@@V?$positional_parameter_base@DV?$string_output_adapter@D@__crt_stdio_output@@@2@@__crt_stdio_output@@AAE_NXZ 100479e0 f i libucrtd:output.obj
 0001:00046a00       ?type_case_c@?$output_processor@DV?$string_output_adapter@D@__crt_stdio_output@@V?$standard_base@DV?$string_output_adapter@D@__crt_stdio_output@@@2@@__crt_stdio_output@@AAE_NXZ 10047a00 f i libucrtd:output.obj
 0001:00046a20       ?type_case_c@?$output_processor@_WV?$stream_output_adapter@_W@__crt_stdio_output@@V?$format_validation_base@_WV?$stream_output_adapter@_W@__crt_stdio_output@@@2@@__crt_stdio_output@@AAE_NXZ 10047a20 f i libucrtd:output.obj
 0001:00046a40       ?type_case_c@?$output_processor@_WV?$stream_output_adapter@_W@__crt_stdio_output@@V?$positional_parameter_base@_WV?$stream_output_adapter@_W@__crt_stdio_output@@@2@@__crt_stdio_output@@AAE_NXZ 10047a40 f i libucrtd:output.obj
 0001:00046a60       ?type_case_c@?$output_processor@_WV?$stream_output_adapter@_W@__crt_stdio_output@@V?$standard_base@_WV?$stream_output_adapter@_W@__crt_stdio_output@@@2@@__crt_stdio_output@@AAE_NXZ 10047a60 f i libucrtd:output.obj
 0001:00046a80       ?type_case_c@?$output_processor@_WV?$string_output_adapter@_W@__crt_stdio_output@@V?$format_validation_base@_WV?$string_output_adapter@_W@__crt_stdio_output@@@2@@__crt_stdio_output@@AAE_NXZ 10047a80 f i libucrtd:output.obj
 0001:00046aa0       ?type_case_c@?$output_processor@_WV?$string_output_adapter@_W@__crt_stdio_output@@V?$positional_parameter_base@_WV?$string_output_adapter@_W@__crt_stdio_output@@@2@@__crt_stdio_output@@AAE_NXZ 10047aa0 f i libucrtd:output.obj
 0001:00046ac0       ?type_case_c@?$output_processor@_WV?$string_output_adapter@_W@__crt_stdio_output@@V?$standard_base@_WV?$string_output_adapter@_W@__crt_stdio_output@@@2@@__crt_stdio_output@@AAE_NXZ 10047ac0 f i libucrtd:output.obj
 0001:00046ae0       ?type_case_c_tchar@?$output_processor@DV?$stream_output_adapter@D@__crt_stdio_output@@V?$format_validation_base@DV?$stream_output_adapter@D@__crt_stdio_output@@@2@@__crt_stdio_output@@AAE_ND@Z 10047ae0 f i libucrtd:output.obj
 0001:00046c10       ?type_case_c_tchar@?$output_processor@DV?$stream_output_adapter@D@__crt_stdio_output@@V?$positional_parameter_base@DV?$stream_output_adapter@D@__crt_stdio_output@@@2@@__crt_stdio_output@@AAE_ND@Z 10047c10 f i libucrtd:output.obj
 0001:00046d40       ?type_case_c_tchar@?$output_processor@DV?$stream_output_adapter@D@__crt_stdio_output@@V?$standard_base@DV?$stream_output_adapter@D@__crt_stdio_output@@@2@@__crt_stdio_output@@AAE_ND@Z 10047d40 f i libucrtd:output.obj
 0001:00046e70       ?type_case_c_tchar@?$output_processor@DV?$string_output_adapter@D@__crt_stdio_output@@V?$format_validation_base@DV?$string_output_adapter@D@__crt_stdio_output@@@2@@__crt_stdio_output@@AAE_ND@Z 10047e70 f i libucrtd:output.obj
 0001:00046fa0       ?type_case_c_tchar@?$output_processor@DV?$string_output_adapter@D@__crt_stdio_output@@V?$positional_parameter_base@DV?$string_output_adapter@D@__crt_stdio_output@@@2@@__crt_stdio_output@@AAE_ND@Z 10047fa0 f i libucrtd:output.obj
 0001:000470d0       ?type_case_c_tchar@?$output_processor@DV?$string_output_adapter@D@__crt_stdio_output@@V?$standard_base@DV?$string_output_adapter@D@__crt_stdio_output@@@2@@__crt_stdio_output@@AAE_ND@Z 100480d0 f i libucrtd:output.obj
 0001:00047200       ?type_case_c_tchar@?$output_processor@_WV?$stream_output_adapter@_W@__crt_stdio_output@@V?$format_validation_base@_WV?$stream_output_adapter@_W@__crt_stdio_output@@@2@@__crt_stdio_output@@AAE_N_W@Z 10048200 f i libucrtd:output.obj
 0001:00047320       ?type_case_c_tchar@?$output_processor@_WV?$stream_output_adapter@_W@__crt_stdio_output@@V?$positional_parameter_base@_WV?$stream_output_adapter@_W@__crt_stdio_output@@@2@@__crt_stdio_output@@AAE_N_W@Z 10048320 f i libucrtd:output.obj
 0001:00047440       ?type_case_c_tchar@?$output_processor@_WV?$stream_output_adapter@_W@__crt_stdio_output@@V?$standard_base@_WV?$stream_output_adapter@_W@__crt_stdio_output@@@2@@__crt_stdio_output@@AAE_N_W@Z 10048440 f i libucrtd:output.obj
 0001:00047560       ?type_case_c_tchar@?$output_processor@_WV?$string_output_adapter@_W@__crt_stdio_output@@V?$format_validation_base@_WV?$string_output_adapter@_W@__crt_stdio_output@@@2@@__crt_stdio_output@@AAE_N_W@Z 10048560 f i libucrtd:output.obj
 0001:00047680       ?type_case_c_tchar@?$output_processor@_WV?$string_output_adapter@_W@__crt_stdio_output@@V?$positional_parameter_base@_WV?$string_output_adapter@_W@__crt_stdio_output@@@2@@__crt_stdio_output@@AAE_N_W@Z 10048680 f i libucrtd:output.obj
 0001:000477a0       ?type_case_c_tchar@?$output_processor@_WV?$string_output_adapter@_W@__crt_stdio_output@@V?$standard_base@_WV?$string_output_adapter@_W@__crt_stdio_output@@@2@@__crt_stdio_output@@AAE_N_W@Z 100487a0 f i libucrtd:output.obj
 0001:000478c0       ?type_case_d@?$output_processor@DV?$stream_output_adapter@D@__crt_stdio_output@@V?$format_validation_base@DV?$stream_output_adapter@D@__crt_stdio_output@@@2@@__crt_stdio_output@@AAE_NXZ 100488c0 f i libucrtd:output.obj
 0001:000478f0       ?type_case_d@?$output_processor@DV?$stream_output_adapter@D@__crt_stdio_output@@V?$positional_parameter_base@DV?$stream_output_adapter@D@__crt_stdio_output@@@2@@__crt_stdio_output@@AAE_NXZ 100488f0 f i libucrtd:output.obj
 0001:00047920       ?type_case_d@?$output_processor@DV?$stream_output_adapter@D@__crt_stdio_output@@V?$standard_base@DV?$stream_output_adapter@D@__crt_stdio_output@@@2@@__crt_stdio_output@@AAE_NXZ 10048920 f i libucrtd:output.obj
 0001:00047950       ?type_case_d@?$output_processor@DV?$string_output_adapter@D@__crt_stdio_output@@V?$format_validation_base@DV?$string_output_adapter@D@__crt_stdio_output@@@2@@__crt_stdio_output@@AAE_NXZ 10048950 f i libucrtd:output.obj
 0001:00047980       ?type_case_d@?$output_processor@DV?$string_output_adapter@D@__crt_stdio_output@@V?$positional_parameter_base@DV?$string_output_adapter@D@__crt_stdio_output@@@2@@__crt_stdio_output@@AAE_NXZ 10048980 f i libucrtd:output.obj
 0001:000479b0       ?type_case_d@?$output_processor@DV?$string_output_adapter@D@__crt_stdio_output@@V?$standard_base@DV?$string_output_adapter@D@__crt_stdio_output@@@2@@__crt_stdio_output@@AAE_NXZ 100489b0 f i libucrtd:output.obj
 0001:000479e0       ?type_case_d@?$output_processor@_WV?$stream_output_adapter@_W@__crt_stdio_output@@V?$format_validation_base@_WV?$stream_output_adapter@_W@__crt_stdio_output@@@2@@__crt_stdio_output@@AAE_NXZ 100489e0 f i libucrtd:output.obj
 0001:00047a10       ?type_case_d@?$output_processor@_WV?$stream_output_adapter@_W@__crt_stdio_output@@V?$positional_parameter_base@_WV?$stream_output_adapter@_W@__crt_stdio_output@@@2@@__crt_stdio_output@@AAE_NXZ 10048a10 f i libucrtd:output.obj
 0001:00047a40       ?type_case_d@?$output_processor@_WV?$stream_output_adapter@_W@__crt_stdio_output@@V?$standard_base@_WV?$stream_output_adapter@_W@__crt_stdio_output@@@2@@__crt_stdio_output@@AAE_NXZ 10048a40 f i libucrtd:output.obj
 0001:00047a70       ?type_case_d@?$output_processor@_WV?$string_output_adapter@_W@__crt_stdio_output@@V?$format_validation_base@_WV?$string_output_adapter@_W@__crt_stdio_output@@@2@@__crt_stdio_output@@AAE_NXZ 10048a70 f i libucrtd:output.obj
 0001:00047aa0       ?type_case_d@?$output_processor@_WV?$string_output_adapter@_W@__crt_stdio_output@@V?$positional_parameter_base@_WV?$string_output_adapter@_W@__crt_stdio_output@@@2@@__crt_stdio_output@@AAE_NXZ 10048aa0 f i libucrtd:output.obj
 0001:00047ad0       ?type_case_d@?$output_processor@_WV?$string_output_adapter@_W@__crt_stdio_output@@V?$standard_base@_WV?$string_output_adapter@_W@__crt_stdio_output@@@2@@__crt_stdio_output@@AAE_NXZ 10048ad0 f i libucrtd:output.obj
 0001:00047b00       ?type_case_n@?$output_processor@DV?$stream_output_adapter@D@__crt_stdio_output@@V?$format_validation_base@DV?$stream_output_adapter@D@__crt_stdio_output@@@2@@__crt_stdio_output@@AAE_NXZ 10048b00 f i libucrtd:output.obj
 0001:00047d20       ?type_case_n@?$output_processor@DV?$stream_output_adapter@D@__crt_stdio_output@@V?$positional_parameter_base@DV?$stream_output_adapter@D@__crt_stdio_output@@@2@@__crt_stdio_output@@AAE_NXZ 10048d20 f i libucrtd:output.obj
 0001:00047f40       ?type_case_n@?$output_processor@DV?$stream_output_adapter@D@__crt_stdio_output@@V?$standard_base@DV?$stream_output_adapter@D@__crt_stdio_output@@@2@@__crt_stdio_output@@AAE_NXZ 10048f40 f i libucrtd:output.obj
 0001:00048160       ?type_case_n@?$output_processor@DV?$string_output_adapter@D@__crt_stdio_output@@V?$format_validation_base@DV?$string_output_adapter@D@__crt_stdio_output@@@2@@__crt_stdio_output@@AAE_NXZ 10049160 f i libucrtd:output.obj
 0001:00048380       ?type_case_n@?$output_processor@DV?$string_output_adapter@D@__crt_stdio_output@@V?$positional_parameter_base@DV?$string_output_adapter@D@__crt_stdio_output@@@2@@__crt_stdio_output@@AAE_NXZ 10049380 f i libucrtd:output.obj
 0001:000485a0       ?type_case_n@?$output_processor@DV?$string_output_adapter@D@__crt_stdio_output@@V?$standard_base@DV?$string_output_adapter@D@__crt_stdio_output@@@2@@__crt_stdio_output@@AAE_NXZ 100495a0 f i libucrtd:output.obj
 0001:000487c0       ?type_case_n@?$output_processor@_WV?$stream_output_adapter@_W@__crt_stdio_output@@V?$format_validation_base@_WV?$stream_output_adapter@_W@__crt_stdio_output@@@2@@__crt_stdio_output@@AAE_NXZ 100497c0 f i libucrtd:output.obj
 0001:000489e0       ?type_case_n@?$output_processor@_WV?$stream_output_adapter@_W@__crt_stdio_output@@V?$positional_parameter_base@_WV?$stream_output_adapter@_W@__crt_stdio_output@@@2@@__crt_stdio_output@@AAE_NXZ 100499e0 f i libucrtd:output.obj
 0001:00048c00       ?type_case_n@?$output_processor@_WV?$stream_output_adapter@_W@__crt_stdio_output@@V?$standard_base@_WV?$stream_output_adapter@_W@__crt_stdio_output@@@2@@__crt_stdio_output@@AAE_NXZ 10049c00 f i libucrtd:output.obj
 0001:00048e20       ?type_case_n@?$output_processor@_WV?$string_output_adapter@_W@__crt_stdio_output@@V?$format_validation_base@_WV?$string_output_adapter@_W@__crt_stdio_output@@@2@@__crt_stdio_output@@AAE_NXZ 10049e20 f i libucrtd:output.obj
 0001:00049040       ?type_case_n@?$output_processor@_WV?$string_output_adapter@_W@__crt_stdio_output@@V?$positional_parameter_base@_WV?$string_output_adapter@_W@__crt_stdio_output@@@2@@__crt_stdio_output@@AAE_NXZ 1004a040 f i libucrtd:output.obj
 0001:00049260       ?type_case_n@?$output_processor@_WV?$string_output_adapter@_W@__crt_stdio_output@@V?$standard_base@_WV?$string_output_adapter@_W@__crt_stdio_output@@@2@@__crt_stdio_output@@AAE_NXZ 1004a260 f i libucrtd:output.obj
 0001:00049480       ?type_case_o@?$output_processor@DV?$stream_output_adapter@D@__crt_stdio_output@@V?$format_validation_base@DV?$stream_output_adapter@D@__crt_stdio_output@@@2@@__crt_stdio_output@@AAE_NXZ 1004a480 f i libucrtd:output.obj
 0001:000494c0       ?type_case_o@?$output_processor@DV?$stream_output_adapter@D@__crt_stdio_output@@V?$positional_parameter_base@DV?$stream_output_adapter@D@__crt_stdio_output@@@2@@__crt_stdio_output@@AAE_NXZ 1004a4c0 f i libucrtd:output.obj
 0001:00049500       ?type_case_o@?$output_processor@DV?$stream_output_adapter@D@__crt_stdio_output@@V?$standard_base@DV?$stream_output_adapter@D@__crt_stdio_output@@@2@@__crt_stdio_output@@AAE_NXZ 1004a500 f i libucrtd:output.obj
 0001:00049540       ?type_case_o@?$output_processor@DV?$string_output_adapter@D@__crt_stdio_output@@V?$format_validation_base@DV?$string_output_adapter@D@__crt_stdio_output@@@2@@__crt_stdio_output@@AAE_NXZ 1004a540 f i libucrtd:output.obj
 0001:00049580       ?type_case_o@?$output_processor@DV?$string_output_adapter@D@__crt_stdio_output@@V?$positional_parameter_base@DV?$string_output_adapter@D@__crt_stdio_output@@@2@@__crt_stdio_output@@AAE_NXZ 1004a580 f i libucrtd:output.obj
 0001:000495c0       ?type_case_o@?$output_processor@DV?$string_output_adapter@D@__crt_stdio_output@@V?$standard_base@DV?$string_output_adapter@D@__crt_stdio_output@@@2@@__crt_stdio_output@@AAE_NXZ 1004a5c0 f i libucrtd:output.obj
 0001:00049600       ?type_case_o@?$output_processor@_WV?$stream_output_adapter@_W@__crt_stdio_output@@V?$format_validation_base@_WV?$stream_output_adapter@_W@__crt_stdio_output@@@2@@__crt_stdio_output@@AAE_NXZ 1004a600 f i libucrtd:output.obj
 0001:00049640       ?type_case_o@?$output_processor@_WV?$stream_output_adapter@_W@__crt_stdio_output@@V?$positional_parameter_base@_WV?$stream_output_adapter@_W@__crt_stdio_output@@@2@@__crt_stdio_output@@AAE_NXZ 1004a640 f i libucrtd:output.obj
 0001:00049680       ?type_case_o@?$output_processor@_WV?$stream_output_adapter@_W@__crt_stdio_output@@V?$standard_base@_WV?$stream_output_adapter@_W@__crt_stdio_output@@@2@@__crt_stdio_output@@AAE_NXZ 1004a680 f i libucrtd:output.obj
 0001:000496c0       ?type_case_o@?$output_processor@_WV?$string_output_adapter@_W@__crt_stdio_output@@V?$format_validation_base@_WV?$string_output_adapter@_W@__crt_stdio_output@@@2@@__crt_stdio_output@@AAE_NXZ 1004a6c0 f i libucrtd:output.obj
 0001:00049700       ?type_case_o@?$output_processor@_WV?$string_output_adapter@_W@__crt_stdio_output@@V?$positional_parameter_base@_WV?$string_output_adapter@_W@__crt_stdio_output@@@2@@__crt_stdio_output@@AAE_NXZ 1004a700 f i libucrtd:output.obj
 0001:00049740       ?type_case_o@?$output_processor@_WV?$string_output_adapter@_W@__crt_stdio_output@@V?$standard_base@_WV?$string_output_adapter@_W@__crt_stdio_output@@@2@@__crt_stdio_output@@AAE_NXZ 1004a740 f i libucrtd:output.obj
 0001:00049780       ?type_case_p@?$output_processor@DV?$stream_output_adapter@D@__crt_stdio_output@@V?$format_validation_base@DV?$stream_output_adapter@D@__crt_stdio_output@@@2@@__crt_stdio_output@@AAE_NXZ 1004a780 f i libucrtd:output.obj
 0001:000497b0       ?type_case_p@?$output_processor@DV?$stream_output_adapter@D@__crt_stdio_output@@V?$positional_parameter_base@DV?$stream_output_adapter@D@__crt_stdio_output@@@2@@__crt_stdio_output@@AAE_NXZ 1004a7b0 f i libucrtd:output.obj
 0001:000497e0       ?type_case_p@?$output_processor@DV?$stream_output_adapter@D@__crt_stdio_output@@V?$standard_base@DV?$stream_output_adapter@D@__crt_stdio_output@@@2@@__crt_stdio_output@@AAE_NXZ 1004a7e0 f i libucrtd:output.obj
 0001:00049810       ?type_case_p@?$output_processor@DV?$string_output_adapter@D@__crt_stdio_output@@V?$format_validation_base@DV?$string_output_adapter@D@__crt_stdio_output@@@2@@__crt_stdio_output@@AAE_NXZ 1004a810 f i libucrtd:output.obj
 0001:00049840       ?type_case_p@?$output_processor@DV?$string_output_adapter@D@__crt_stdio_output@@V?$positional_parameter_base@DV?$string_output_adapter@D@__crt_stdio_output@@@2@@__crt_stdio_output@@AAE_NXZ 1004a840 f i libucrtd:output.obj
 0001:00049870       ?type_case_p@?$output_processor@DV?$string_output_adapter@D@__crt_stdio_output@@V?$standard_base@DV?$string_output_adapter@D@__crt_stdio_output@@@2@@__crt_stdio_output@@AAE_NXZ 1004a870 f i libucrtd:output.obj
 0001:000498a0       ?type_case_p@?$output_processor@_WV?$stream_output_adapter@_W@__crt_stdio_output@@V?$format_validation_base@_WV?$stream_output_adapter@_W@__crt_stdio_output@@@2@@__crt_stdio_output@@AAE_NXZ 1004a8a0 f i libucrtd:output.obj
 0001:000498d0       ?type_case_p@?$output_processor@_WV?$stream_output_adapter@_W@__crt_stdio_output@@V?$positional_parameter_base@_WV?$stream_output_adapter@_W@__crt_stdio_output@@@2@@__crt_stdio_output@@AAE_NXZ 1004a8d0 f i libucrtd:output.obj
 0001:00049900       ?type_case_p@?$output_processor@_WV?$stream_output_adapter@_W@__crt_stdio_output@@V?$standard_base@_WV?$stream_output_adapter@_W@__crt_stdio_output@@@2@@__crt_stdio_output@@AAE_NXZ 1004a900 f i libucrtd:output.obj
 0001:00049930       ?type_case_p@?$output_processor@_WV?$string_output_adapter@_W@__crt_stdio_output@@V?$format_validation_base@_WV?$string_output_adapter@_W@__crt_stdio_output@@@2@@__crt_stdio_output@@AAE_NXZ 1004a930 f i libucrtd:output.obj
 0001:00049960       ?type_case_p@?$output_processor@_WV?$string_output_adapter@_W@__crt_stdio_output@@V?$positional_parameter_base@_WV?$string_output_adapter@_W@__crt_stdio_output@@@2@@__crt_stdio_output@@AAE_NXZ 1004a960 f i libucrtd:output.obj
 0001:00049990       ?type_case_p@?$output_processor@_WV?$string_output_adapter@_W@__crt_stdio_output@@V?$standard_base@_WV?$string_output_adapter@_W@__crt_stdio_output@@@2@@__crt_stdio_output@@AAE_NXZ 1004a990 f i libucrtd:output.obj
 0001:000499c0       ?type_case_s@?$output_processor@DV?$stream_output_adapter@D@__crt_stdio_output@@V?$format_validation_base@DV?$stream_output_adapter@D@__crt_stdio_output@@@2@@__crt_stdio_output@@AAE_NXZ 1004a9c0 f i libucrtd:output.obj
 0001:00049ab0       ?type_case_s@?$output_processor@DV?$stream_output_adapter@D@__crt_stdio_output@@V?$positional_parameter_base@DV?$stream_output_adapter@D@__crt_stdio_output@@@2@@__crt_stdio_output@@AAE_NXZ 1004aab0 f i libucrtd:output.obj
 0001:00049ba0       ?type_case_s@?$output_processor@DV?$stream_output_adapter@D@__crt_stdio_output@@V?$standard_base@DV?$stream_output_adapter@D@__crt_stdio_output@@@2@@__crt_stdio_output@@AAE_NXZ 1004aba0 f i libucrtd:output.obj
 0001:00049c90       ?type_case_s@?$output_processor@DV?$string_output_adapter@D@__crt_stdio_output@@V?$format_validation_base@DV?$string_output_adapter@D@__crt_stdio_output@@@2@@__crt_stdio_output@@AAE_NXZ 1004ac90 f i libucrtd:output.obj
 0001:00049d80       ?type_case_s@?$output_processor@DV?$string_output_adapter@D@__crt_stdio_output@@V?$positional_parameter_base@DV?$string_output_adapter@D@__crt_stdio_output@@@2@@__crt_stdio_output@@AAE_NXZ 1004ad80 f i libucrtd:output.obj
 0001:00049e70       ?type_case_s@?$output_processor@DV?$string_output_adapter@D@__crt_stdio_output@@V?$standard_base@DV?$string_output_adapter@D@__crt_stdio_output@@@2@@__crt_stdio_output@@AAE_NXZ 1004ae70 f i libucrtd:output.obj
 0001:00049f60       ?type_case_s@?$output_processor@_WV?$stream_output_adapter@_W@__crt_stdio_output@@V?$format_validation_base@_WV?$stream_output_adapter@_W@__crt_stdio_output@@@2@@__crt_stdio_output@@AAE_NXZ 1004af60 f i libucrtd:output.obj
 0001:0004a050       ?type_case_s@?$output_processor@_WV?$stream_output_adapter@_W@__crt_stdio_output@@V?$positional_parameter_base@_WV?$stream_output_adapter@_W@__crt_stdio_output@@@2@@__crt_stdio_output@@AAE_NXZ 1004b050 f i libucrtd:output.obj
 0001:0004a140       ?type_case_s@?$output_processor@_WV?$stream_output_adapter@_W@__crt_stdio_output@@V?$standard_base@_WV?$stream_output_adapter@_W@__crt_stdio_output@@@2@@__crt_stdio_output@@AAE_NXZ 1004b140 f i libucrtd:output.obj
 0001:0004a230       ?type_case_s@?$output_processor@_WV?$string_output_adapter@_W@__crt_stdio_output@@V?$format_validation_base@_WV?$string_output_adapter@_W@__crt_stdio_output@@@2@@__crt_stdio_output@@AAE_NXZ 1004b230 f i libucrtd:output.obj
 0001:0004a320       ?type_case_s@?$output_processor@_WV?$string_output_adapter@_W@__crt_stdio_output@@V?$positional_parameter_base@_WV?$string_output_adapter@_W@__crt_stdio_output@@@2@@__crt_stdio_output@@AAE_NXZ 1004b320 f i libucrtd:output.obj
 0001:0004a410       ?type_case_s@?$output_processor@_WV?$string_output_adapter@_W@__crt_stdio_output@@V?$standard_base@_WV?$string_output_adapter@_W@__crt_stdio_output@@@2@@__crt_stdio_output@@AAE_NXZ 1004b410 f i libucrtd:output.obj
 0001:0004a500       ?type_case_s_compute_narrow_string_length@?$output_processor@DV?$stream_output_adapter@D@__crt_stdio_output@@V?$format_validation_base@DV?$stream_output_adapter@D@__crt_stdio_output@@@2@@__crt_stdio_output@@AAEHHD@Z 1004b500 f i libucrtd:output.obj
 0001:0004a530       ?type_case_s_compute_narrow_string_length@?$output_processor@DV?$stream_output_adapter@D@__crt_stdio_output@@V?$positional_parameter_base@DV?$stream_output_adapter@D@__crt_stdio_output@@@2@@__crt_stdio_output@@AAEHHD@Z 1004b530 f i libucrtd:output.obj
 0001:0004a560       ?type_case_s_compute_narrow_string_length@?$output_processor@DV?$stream_output_adapter@D@__crt_stdio_output@@V?$standard_base@DV?$stream_output_adapter@D@__crt_stdio_output@@@2@@__crt_stdio_output@@AAEHHD@Z 1004b560 f i libucrtd:output.obj
 0001:0004a590       ?type_case_s_compute_narrow_string_length@?$output_processor@DV?$string_output_adapter@D@__crt_stdio_output@@V?$format_validation_base@DV?$string_output_adapter@D@__crt_stdio_output@@@2@@__crt_stdio_output@@AAEHHD@Z 1004b590 f i libucrtd:output.obj
 0001:0004a5c0       ?type_case_s_compute_narrow_string_length@?$output_processor@DV?$string_output_adapter@D@__crt_stdio_output@@V?$positional_parameter_base@DV?$string_output_adapter@D@__crt_stdio_output@@@2@@__crt_stdio_output@@AAEHHD@Z 1004b5c0 f i libucrtd:output.obj
 0001:0004a5f0       ?type_case_s_compute_narrow_string_length@?$output_processor@DV?$string_output_adapter@D@__crt_stdio_output@@V?$standard_base@DV?$string_output_adapter@D@__crt_stdio_output@@@2@@__crt_stdio_output@@AAEHHD@Z 1004b5f0 f i libucrtd:output.obj
 0001:0004a620       ?type_case_s_compute_narrow_string_length@?$output_processor@_WV?$stream_output_adapter@_W@__crt_stdio_output@@V?$format_validation_base@_WV?$stream_output_adapter@_W@__crt_stdio_output@@@2@@__crt_stdio_output@@AAEHH_W@Z 1004b620 f i libucrtd:output.obj
 0001:0004a6a0       ?type_case_s_compute_narrow_string_length@?$output_processor@_WV?$stream_output_adapter@_W@__crt_stdio_output@@V?$positional_parameter_base@_WV?$stream_output_adapter@_W@__crt_stdio_output@@@2@@__crt_stdio_output@@AAEHH_W@Z 1004b6a0 f i libucrtd:output.obj
 0001:0004a720       ?type_case_s_compute_narrow_string_length@?$output_processor@_WV?$stream_output_adapter@_W@__crt_stdio_output@@V?$standard_base@_WV?$stream_output_adapter@_W@__crt_stdio_output@@@2@@__crt_stdio_output@@AAEHH_W@Z 1004b720 f i libucrtd:output.obj
 0001:0004a7a0       ?type_case_s_compute_narrow_string_length@?$output_processor@_WV?$string_output_adapter@_W@__crt_stdio_output@@V?$format_validation_base@_WV?$string_output_adapter@_W@__crt_stdio_output@@@2@@__crt_stdio_output@@AAEHH_W@Z 1004b7a0 f i libucrtd:output.obj
 0001:0004a820       ?type_case_s_compute_narrow_string_length@?$output_processor@_WV?$string_output_adapter@_W@__crt_stdio_output@@V?$positional_parameter_base@_WV?$string_output_adapter@_W@__crt_stdio_output@@@2@@__crt_stdio_output@@AAEHH_W@Z 1004b820 f i libucrtd:output.obj
 0001:0004a8a0       ?type_case_s_compute_narrow_string_length@?$output_processor@_WV?$string_output_adapter@_W@__crt_stdio_output@@V?$standard_base@_WV?$string_output_adapter@_W@__crt_stdio_output@@@2@@__crt_stdio_output@@AAEHH_W@Z 1004b8a0 f i libucrtd:output.obj
 0001:0004a920       ?type_case_u@?$output_processor@DV?$stream_output_adapter@D@__crt_stdio_output@@V?$format_validation_base@DV?$stream_output_adapter@D@__crt_stdio_output@@@2@@__crt_stdio_output@@AAE_NXZ 1004b920 f i libucrtd:output.obj
 0001:0004a940       ?type_case_u@?$output_processor@DV?$stream_output_adapter@D@__crt_stdio_output@@V?$positional_parameter_base@DV?$stream_output_adapter@D@__crt_stdio_output@@@2@@__crt_stdio_output@@AAE_NXZ 1004b940 f i libucrtd:output.obj
 0001:0004a960       ?type_case_u@?$output_processor@DV?$stream_output_adapter@D@__crt_stdio_output@@V?$standard_base@DV?$stream_output_adapter@D@__crt_stdio_output@@@2@@__crt_stdio_output@@AAE_NXZ 1004b960 f i libucrtd:output.obj
 0001:0004a980       ?type_case_u@?$output_processor@DV?$string_output_adapter@D@__crt_stdio_output@@V?$format_validation_base@DV?$string_output_adapter@D@__crt_stdio_output@@@2@@__crt_stdio_output@@AAE_NXZ 1004b980 f i libucrtd:output.obj
 0001:0004a9a0       ?type_case_u@?$output_processor@DV?$string_output_adapter@D@__crt_stdio_output@@V?$positional_parameter_base@DV?$string_output_adapter@D@__crt_stdio_output@@@2@@__crt_stdio_output@@AAE_NXZ 1004b9a0 f i libucrtd:output.obj
 0001:0004a9c0       ?type_case_u@?$output_processor@DV?$string_output_adapter@D@__crt_stdio_output@@V?$standard_base@DV?$string_output_adapter@D@__crt_stdio_output@@@2@@__crt_stdio_output@@AAE_NXZ 1004b9c0 f i libucrtd:output.obj
 0001:0004a9e0       ?type_case_u@?$output_processor@_WV?$stream_output_adapter@_W@__crt_stdio_output@@V?$format_validation_base@_WV?$stream_output_adapter@_W@__crt_stdio_output@@@2@@__crt_stdio_output@@AAE_NXZ 1004b9e0 f i libucrtd:output.obj
 0001:0004aa00       ?type_case_u@?$output_processor@_WV?$stream_output_adapter@_W@__crt_stdio_output@@V?$positional_parameter_base@_WV?$stream_output_adapter@_W@__crt_stdio_output@@@2@@__crt_stdio_output@@AAE_NXZ 1004ba00 f i libucrtd:output.obj
 0001:0004aa20       ?type_case_u@?$output_processor@_WV?$stream_output_adapter@_W@__crt_stdio_output@@V?$standard_base@_WV?$stream_output_adapter@_W@__crt_stdio_output@@@2@@__crt_stdio_output@@AAE_NXZ 1004ba20 f i libucrtd:output.obj
 0001:0004aa40       ?type_case_u@?$output_processor@_WV?$string_output_adapter@_W@__crt_stdio_output@@V?$format_validation_base@_WV?$string_output_adapter@_W@__crt_stdio_output@@@2@@__crt_stdio_output@@AAE_NXZ 1004ba40 f i libucrtd:output.obj
 0001:0004aa60       ?type_case_u@?$output_processor@_WV?$string_output_adapter@_W@__crt_stdio_output@@V?$positional_parameter_base@_WV?$string_output_adapter@_W@__crt_stdio_output@@@2@@__crt_stdio_output@@AAE_NXZ 1004ba60 f i libucrtd:output.obj
 0001:0004aa80       ?type_case_u@?$output_processor@_WV?$string_output_adapter@_W@__crt_stdio_output@@V?$standard_base@_WV?$string_output_adapter@_W@__crt_stdio_output@@@2@@__crt_stdio_output@@AAE_NXZ 1004ba80 f i libucrtd:output.obj
 0001:0004aaa0       ?type_case_x@?$output_processor@DV?$stream_output_adapter@D@__crt_stdio_output@@V?$format_validation_base@DV?$stream_output_adapter@D@__crt_stdio_output@@@2@@__crt_stdio_output@@AAE_NXZ 1004baa0 f i libucrtd:output.obj
 0001:0004aac0       ?type_case_x@?$output_processor@DV?$stream_output_adapter@D@__crt_stdio_output@@V?$positional_parameter_base@DV?$stream_output_adapter@D@__crt_stdio_output@@@2@@__crt_stdio_output@@AAE_NXZ 1004bac0 f i libucrtd:output.obj
 0001:0004aae0       ?type_case_x@?$output_processor@DV?$stream_output_adapter@D@__crt_stdio_output@@V?$standard_base@DV?$stream_output_adapter@D@__crt_stdio_output@@@2@@__crt_stdio_output@@AAE_NXZ 1004bae0 f i libucrtd:output.obj
 0001:0004ab00       ?type_case_x@?$output_processor@DV?$string_output_adapter@D@__crt_stdio_output@@V?$format_validation_base@DV?$string_output_adapter@D@__crt_stdio_output@@@2@@__crt_stdio_output@@AAE_NXZ 1004bb00 f i libucrtd:output.obj
 0001:0004ab20       ?type_case_x@?$output_processor@DV?$string_output_adapter@D@__crt_stdio_output@@V?$positional_parameter_base@DV?$string_output_adapter@D@__crt_stdio_output@@@2@@__crt_stdio_output@@AAE_NXZ 1004bb20 f i libucrtd:output.obj
 0001:0004ab40       ?type_case_x@?$output_processor@DV?$string_output_adapter@D@__crt_stdio_output@@V?$standard_base@DV?$string_output_adapter@D@__crt_stdio_output@@@2@@__crt_stdio_output@@AAE_NXZ 1004bb40 f i libucrtd:output.obj
 0001:0004ab60       ?type_case_x@?$output_processor@_WV?$stream_output_adapter@_W@__crt_stdio_output@@V?$format_validation_base@_WV?$stream_output_adapter@_W@__crt_stdio_output@@@2@@__crt_stdio_output@@AAE_NXZ 1004bb60 f i libucrtd:output.obj
 0001:0004ab80       ?type_case_x@?$output_processor@_WV?$stream_output_adapter@_W@__crt_stdio_output@@V?$positional_parameter_base@_WV?$stream_output_adapter@_W@__crt_stdio_output@@@2@@__crt_stdio_output@@AAE_NXZ 1004bb80 f i libucrtd:output.obj
 0001:0004aba0       ?type_case_x@?$output_processor@_WV?$stream_output_adapter@_W@__crt_stdio_output@@V?$standard_base@_WV?$stream_output_adapter@_W@__crt_stdio_output@@@2@@__crt_stdio_output@@AAE_NXZ 1004bba0 f i libucrtd:output.obj
 0001:0004abc0       ?type_case_x@?$output_processor@_WV?$string_output_adapter@_W@__crt_stdio_output@@V?$format_validation_base@_WV?$string_output_adapter@_W@__crt_stdio_output@@@2@@__crt_stdio_output@@AAE_NXZ 1004bbc0 f i libucrtd:output.obj
 0001:0004abe0       ?type_case_x@?$output_processor@_WV?$string_output_adapter@_W@__crt_stdio_output@@V?$positional_parameter_base@_WV?$string_output_adapter@_W@__crt_stdio_output@@@2@@__crt_stdio_output@@AAE_NXZ 1004bbe0 f i libucrtd:output.obj
 0001:0004ac00       ?type_case_x@?$output_processor@_WV?$string_output_adapter@_W@__crt_stdio_output@@V?$standard_base@_WV?$string_output_adapter@_W@__crt_stdio_output@@@2@@__crt_stdio_output@@AAE_NXZ 1004bc00 f i libucrtd:output.obj
 0001:0004ac20       ?unget@?$c_string_character_source@D@__crt_strtox@@QAEXD@Z 1004bc20 f i libucrtd:output.obj
 0001:0004acd0       ?unget@?$c_string_character_source@_W@__crt_strtox@@QAEX_W@Z 1004bcd0 f i libucrtd:output.obj
 0001:0004ad80       ?unsafe_value@?$cached@H@__crt_cached_ptd_host@@QAEHXZ 1004bd80 f i libucrtd:output.obj
 0001:0004ada0       ?unsafe_value@?$cached@K@__crt_cached_ptd_host@@QAEKXZ 1004bda0 f i libucrtd:output.obj
 0001:0004adc0       ?unset_flag@?$output_processor@DV?$stream_output_adapter@D@__crt_stdio_output@@V?$format_validation_base@DV?$stream_output_adapter@D@__crt_stdio_output@@@2@@__crt_stdio_output@@AAEXI@Z 1004bdc0 f i libucrtd:output.obj
 0001:0004ade0       ?unset_flag@?$output_processor@DV?$stream_output_adapter@D@__crt_stdio_output@@V?$positional_parameter_base@DV?$stream_output_adapter@D@__crt_stdio_output@@@2@@__crt_stdio_output@@AAEXI@Z 1004bde0 f i libucrtd:output.obj
 0001:0004ae00       ?unset_flag@?$output_processor@DV?$stream_output_adapter@D@__crt_stdio_output@@V?$standard_base@DV?$stream_output_adapter@D@__crt_stdio_output@@@2@@__crt_stdio_output@@AAEXI@Z 1004be00 f i libucrtd:output.obj
 0001:0004ae20       ?unset_flag@?$output_processor@DV?$string_output_adapter@D@__crt_stdio_output@@V?$format_validation_base@DV?$string_output_adapter@D@__crt_stdio_output@@@2@@__crt_stdio_output@@AAEXI@Z 1004be20 f i libucrtd:output.obj
 0001:0004ae40       ?unset_flag@?$output_processor@DV?$string_output_adapter@D@__crt_stdio_output@@V?$positional_parameter_base@DV?$string_output_adapter@D@__crt_stdio_output@@@2@@__crt_stdio_output@@AAEXI@Z 1004be40 f i libucrtd:output.obj
 0001:0004ae60       ?unset_flag@?$output_processor@DV?$string_output_adapter@D@__crt_stdio_output@@V?$standard_base@DV?$string_output_adapter@D@__crt_stdio_output@@@2@@__crt_stdio_output@@AAEXI@Z 1004be60 f i libucrtd:output.obj
 0001:0004ae80       ?unset_flag@?$output_processor@_WV?$stream_output_adapter@_W@__crt_stdio_output@@V?$format_validation_base@_WV?$stream_output_adapter@_W@__crt_stdio_output@@@2@@__crt_stdio_output@@AAEXI@Z 1004be80 f i libucrtd:output.obj
 0001:0004aea0       ?unset_flag@?$output_processor@_WV?$stream_output_adapter@_W@__crt_stdio_output@@V?$positional_parameter_base@_WV?$stream_output_adapter@_W@__crt_stdio_output@@@2@@__crt_stdio_output@@AAEXI@Z 1004bea0 f i libucrtd:output.obj
 0001:0004aec0       ?unset_flag@?$output_processor@_WV?$stream_output_adapter@_W@__crt_stdio_output@@V?$standard_base@_WV?$stream_output_adapter@_W@__crt_stdio_output@@@2@@__crt_stdio_output@@AAEXI@Z 1004bec0 f i libucrtd:output.obj
 0001:0004aee0       ?unset_flag@?$output_processor@_WV?$string_output_adapter@_W@__crt_stdio_output@@V?$format_validation_base@_WV?$string_output_adapter@_W@__crt_stdio_output@@@2@@__crt_stdio_output@@AAEXI@Z 1004bee0 f i libucrtd:output.obj
 0001:0004af00       ?unset_flag@?$output_processor@_WV?$string_output_adapter@_W@__crt_stdio_output@@V?$positional_parameter_base@_WV?$string_output_adapter@_W@__crt_stdio_output@@@2@@__crt_stdio_output@@AAEXI@Z 1004bf00 f i libucrtd:output.obj
 0001:0004af20       ?unset_flag@?$output_processor@_WV?$string_output_adapter@_W@__crt_stdio_output@@V?$standard_base@_WV?$string_output_adapter@_W@__crt_stdio_output@@@2@@__crt_stdio_output@@AAEXI@Z 1004bf20 f i libucrtd:output.obj
 0001:0004af40       ?update_field_width@?$positional_parameter_base@DV?$stream_output_adapter@D@__crt_stdio_output@@@__crt_stdio_output@@IAE_NXZ 1004bf40 f i libucrtd:output.obj
 0001:0004b0d0       ?update_field_width@?$positional_parameter_base@DV?$string_output_adapter@D@__crt_stdio_output@@@__crt_stdio_output@@IAE_NXZ 1004c0d0 f i libucrtd:output.obj
 0001:0004b260       ?update_field_width@?$positional_parameter_base@_WV?$stream_output_adapter@_W@__crt_stdio_output@@@__crt_stdio_output@@IAE_NXZ 1004c260 f i libucrtd:output.obj
 0001:0004b3f0       ?update_field_width@?$positional_parameter_base@_WV?$string_output_adapter@_W@__crt_stdio_output@@@__crt_stdio_output@@IAE_NXZ 1004c3f0 f i libucrtd:output.obj
 0001:0004b580       ?update_field_width@?$standard_base@DV?$stream_output_adapter@D@__crt_stdio_output@@@__crt_stdio_output@@IAE_NXZ 1004c580 f i libucrtd:output.obj
 0001:0004b5b0       ?update_field_width@?$standard_base@DV?$string_output_adapter@D@__crt_stdio_output@@@__crt_stdio_output@@IAE_NXZ 1004c5b0 f i libucrtd:output.obj
 0001:0004b5e0       ?update_field_width@?$standard_base@_WV?$stream_output_adapter@_W@__crt_stdio_output@@@__crt_stdio_output@@IAE_NXZ 1004c5e0 f i libucrtd:output.obj
 0001:0004b610       ?update_field_width@?$standard_base@_WV?$string_output_adapter@_W@__crt_stdio_output@@@__crt_stdio_output@@IAE_NXZ 1004c610 f i libucrtd:output.obj
 0001:0004b640       ?update_locale@__crt_cached_ptd_host@@AAEXXZ 1004c640 f i libucrtd:output.obj
 0001:0004b660       ?update_locale_slow@__crt_cached_ptd_host@@AAEXXZ 1004c660 f i libucrtd:output.obj
 0001:0004b6f0       ?update_precision@?$positional_parameter_base@DV?$stream_output_adapter@D@__crt_stdio_output@@@__crt_stdio_output@@IAE_NXZ 1004c6f0 f i libucrtd:output.obj
 0001:0004b880       ?update_precision@?$positional_parameter_base@DV?$string_output_adapter@D@__crt_stdio_output@@@__crt_stdio_output@@IAE_NXZ 1004c880 f i libucrtd:output.obj
 0001:0004ba10       ?update_precision@?$positional_parameter_base@_WV?$stream_output_adapter@_W@__crt_stdio_output@@@__crt_stdio_output@@IAE_NXZ 1004ca10 f i libucrtd:output.obj
 0001:0004bba0       ?update_precision@?$positional_parameter_base@_WV?$string_output_adapter@_W@__crt_stdio_output@@@__crt_stdio_output@@IAE_NXZ 1004cba0 f i libucrtd:output.obj
 0001:0004bd30       ?update_precision@?$standard_base@DV?$stream_output_adapter@D@__crt_stdio_output@@@__crt_stdio_output@@IAE_NXZ 1004cd30 f i libucrtd:output.obj
 0001:0004bd60       ?update_precision@?$standard_base@DV?$string_output_adapter@D@__crt_stdio_output@@@__crt_stdio_output@@IAE_NXZ 1004cd60 f i libucrtd:output.obj
 0001:0004bd90       ?update_precision@?$standard_base@_WV?$stream_output_adapter@_W@__crt_stdio_output@@@__crt_stdio_output@@IAE_NXZ 1004cd90 f i libucrtd:output.obj
 0001:0004bdc0       ?update_precision@?$standard_base@_WV?$string_output_adapter@_W@__crt_stdio_output@@@__crt_stdio_output@@IAE_NXZ 1004cdc0 f i libucrtd:output.obj
 0001:0004bdf0       ?valid@?$cached@H@__crt_cached_ptd_host@@QBE_NXZ 1004cdf0 f i libucrtd:output.obj
 0001:0004be10       ?valid@?$cached@K@__crt_cached_ptd_host@@QBE_NXZ 1004ce10 f i libucrtd:output.obj
 0001:0004be30       ?valid@__crt_stdio_stream@@QBE_NXZ 1004ce30 f i libucrtd:output.obj
 0001:0004be60       ?validate@?$c_string_character_source@D@__crt_strtox@@QBE_NXZ 1004ce60 f i libucrtd:output.obj
 0001:0004bef0       ?validate@?$c_string_character_source@_W@__crt_strtox@@QBE_NXZ 1004cef0 f i libucrtd:output.obj
 0001:0004bf80       ?validate@?$stream_output_adapter@D@__crt_stdio_output@@QBE_NAAV__crt_cached_ptd_host@@@Z 1004cf80 f i libucrtd:output.obj
 0001:0004c040       ?validate@?$stream_output_adapter@_W@__crt_stdio_output@@QBE_NAAV__crt_cached_ptd_host@@@Z 1004d040 f i libucrtd:output.obj
 0001:0004c100       ?validate@?$string_output_adapter@D@__crt_stdio_output@@QBE_NAAV__crt_cached_ptd_host@@@Z 1004d100 f i libucrtd:output.obj
 0001:0004c1a0       ?validate@?$string_output_adapter@_W@__crt_stdio_output@@QBE_NAAV__crt_cached_ptd_host@@@Z 1004d1a0 f i libucrtd:output.obj
 0001:0004c240       ?validate_and_store_parameter_data@?$positional_parameter_base@DV?$stream_output_adapter@D@__crt_stdio_output@@@__crt_stdio_output@@AAE_NAAUparameter_data@12@W4parameter_type@12@DW4length_modifier@2@@Z 1004d240 f i libucrtd:output.obj
 0001:0004c330       ?validate_and_store_parameter_data@?$positional_parameter_base@DV?$string_output_adapter@D@__crt_stdio_output@@@__crt_stdio_output@@AAE_NAAUparameter_data@12@W4parameter_type@12@DW4length_modifier@2@@Z 1004d330 f i libucrtd:output.obj
 0001:0004c420       ?validate_and_store_parameter_data@?$positional_parameter_base@_WV?$stream_output_adapter@_W@__crt_stdio_output@@@__crt_stdio_output@@AAE_NAAUparameter_data@12@W4parameter_type@12@_WW4length_modifier@2@@Z 1004d420 f i libucrtd:output.obj
 0001:0004c510       ?validate_and_store_parameter_data@?$positional_parameter_base@_WV?$string_output_adapter@_W@__crt_stdio_output@@@__crt_stdio_output@@AAE_NAAUparameter_data@12@W4parameter_type@12@_WW4length_modifier@2@@Z 1004d510 f i libucrtd:output.obj
 0001:0004c600       ?validate_and_update_state_at_beginning_of_format_character@?$positional_parameter_base@DV?$stream_output_adapter@D@__crt_stdio_output@@@__crt_stdio_output@@IAE_NXZ 1004d600 f i libucrtd:output.obj
 0001:0004c830       ?validate_and_update_state_at_beginning_of_format_character@?$positional_parameter_base@DV?$string_output_adapter@D@__crt_stdio_output@@@__crt_stdio_output@@IAE_NXZ 1004d830 f i libucrtd:output.obj
 0001:0004ca60       ?validate_and_update_state_at_beginning_of_format_character@?$positional_parameter_base@_WV?$stream_output_adapter@_W@__crt_stdio_output@@@__crt_stdio_output@@IAE_NXZ 1004da60 f i libucrtd:output.obj
 0001:0004cc90       ?validate_and_update_state_at_beginning_of_format_character@?$positional_parameter_base@_WV?$string_output_adapter@_W@__crt_stdio_output@@@__crt_stdio_output@@IAE_NXZ 1004dc90 f i libucrtd:output.obj
 0001:0004cec0       ?validate_and_update_state_at_beginning_of_format_character@?$standard_base@DV?$stream_output_adapter@D@__crt_stdio_output@@@__crt_stdio_output@@IAE_NXZ 1004dec0 f i libucrtd:output.obj
 0001:0004ced0       ?validate_and_update_state_at_beginning_of_format_character@?$standard_base@DV?$string_output_adapter@D@__crt_stdio_output@@@__crt_stdio_output@@IAE_NXZ 1004ded0 f i libucrtd:output.obj
 0001:0004cee0       ?validate_and_update_state_at_beginning_of_format_character@?$standard_base@_WV?$stream_output_adapter@_W@__crt_stdio_output@@@__crt_stdio_output@@IAE_NXZ 1004dee0 f i libucrtd:output.obj
 0001:0004cef0       ?validate_and_update_state_at_beginning_of_format_character@?$standard_base@_WV?$string_output_adapter@_W@__crt_stdio_output@@@__crt_stdio_output@@IAE_NXZ 1004def0 f i libucrtd:output.obj
 0001:0004cf00       ?validate_and_update_state_at_end_of_format_string@?$format_validation_base@DV?$stream_output_adapter@D@__crt_stdio_output@@@__crt_stdio_output@@IAE_NXZ 1004df00 f i libucrtd:output.obj
 0001:0004cfb0       ?validate_and_update_state_at_end_of_format_string@?$format_validation_base@DV?$string_output_adapter@D@__crt_stdio_output@@@__crt_stdio_output@@IAE_NXZ 1004dfb0 f i libucrtd:output.obj
 0001:0004d060       ?validate_and_update_state_at_end_of_format_string@?$format_validation_base@_WV?$stream_output_adapter@_W@__crt_stdio_output@@@__crt_stdio_output@@IAE_NXZ 1004e060 f i libucrtd:output.obj
 0001:0004d110       ?validate_and_update_state_at_end_of_format_string@?$format_validation_base@_WV?$string_output_adapter@_W@__crt_stdio_output@@@__crt_stdio_output@@IAE_NXZ 1004e110 f i libucrtd:output.obj
 0001:0004d1c0       ?validate_and_update_state_at_end_of_format_string@?$positional_parameter_base@DV?$stream_output_adapter@D@__crt_stdio_output@@@__crt_stdio_output@@IAE_NXZ 1004e1c0 f i libucrtd:output.obj
 0001:0004d370       ?validate_and_update_state_at_end_of_format_string@?$positional_parameter_base@DV?$string_output_adapter@D@__crt_stdio_output@@@__crt_stdio_output@@IAE_NXZ 1004e370 f i libucrtd:output.obj
 0001:0004d520       ?validate_and_update_state_at_end_of_format_string@?$positional_parameter_base@_WV?$stream_output_adapter@_W@__crt_stdio_output@@@__crt_stdio_output@@IAE_NXZ 1004e520 f i libucrtd:output.obj
 0001:0004d6d0       ?validate_and_update_state_at_end_of_format_string@?$positional_parameter_base@_WV?$string_output_adapter@_W@__crt_stdio_output@@@__crt_stdio_output@@IAE_NXZ 1004e6d0 f i libucrtd:output.obj
 0001:0004d880       ?validate_and_update_state_at_end_of_format_string@?$standard_base@DV?$stream_output_adapter@D@__crt_stdio_output@@@__crt_stdio_output@@IBE_NXZ 1004e880 f i libucrtd:output.obj
 0001:0004d890       ?validate_and_update_state_at_end_of_format_string@?$standard_base@DV?$string_output_adapter@D@__crt_stdio_output@@@__crt_stdio_output@@IBE_NXZ 1004e890 f i libucrtd:output.obj
 0001:0004d8a0       ?validate_and_update_state_at_end_of_format_string@?$standard_base@_WV?$stream_output_adapter@_W@__crt_stdio_output@@@__crt_stdio_output@@IBE_NXZ 1004e8a0 f i libucrtd:output.obj
 0001:0004d8b0       ?validate_and_update_state_at_end_of_format_string@?$standard_base@_WV?$string_output_adapter@_W@__crt_stdio_output@@@__crt_stdio_output@@IBE_NXZ 1004e8b0 f i libucrtd:output.obj
 0001:0004d8c0       ?validate_state_for_type_case_a@?$positional_parameter_base@DV?$stream_output_adapter@D@__crt_stdio_output@@@__crt_stdio_output@@IAE_NXZ 1004e8c0 f i libucrtd:output.obj
 0001:0004d9d0       ?validate_state_for_type_case_a@?$positional_parameter_base@DV?$string_output_adapter@D@__crt_stdio_output@@@__crt_stdio_output@@IAE_NXZ 1004e9d0 f i libucrtd:output.obj
 0001:0004dae0       ?validate_state_for_type_case_a@?$positional_parameter_base@_WV?$stream_output_adapter@_W@__crt_stdio_output@@@__crt_stdio_output@@IAE_NXZ 1004eae0 f i libucrtd:output.obj
 0001:0004dbf0       ?validate_state_for_type_case_a@?$positional_parameter_base@_WV?$string_output_adapter@_W@__crt_stdio_output@@@__crt_stdio_output@@IAE_NXZ 1004ebf0 f i libucrtd:output.obj
 0001:0004dd00       ?validate_state_for_type_case_a@?$standard_base@DV?$stream_output_adapter@D@__crt_stdio_output@@@__crt_stdio_output@@IBE_NXZ 1004ed00 f i libucrtd:output.obj
 0001:0004dd10       ?validate_state_for_type_case_a@?$standard_base@DV?$string_output_adapter@D@__crt_stdio_output@@@__crt_stdio_output@@IBE_NXZ 1004ed10 f i libucrtd:output.obj
 0001:0004dd20       ?validate_state_for_type_case_a@?$standard_base@_WV?$stream_output_adapter@_W@__crt_stdio_output@@@__crt_stdio_output@@IBE_NXZ 1004ed20 f i libucrtd:output.obj
 0001:0004dd30       ?validate_state_for_type_case_a@?$standard_base@_WV?$string_output_adapter@_W@__crt_stdio_output@@@__crt_stdio_output@@IBE_NXZ 1004ed30 f i libucrtd:output.obj
 0001:0004dd40       ?validate_stream_is_ansi_if_required@?$__acrt_stdio_char_traits@D@@SA_NQAU_iobuf@@@Z 1004ed40 f i libucrtd:output.obj
 0001:0004de70       ?validate_stream_is_ansi_if_required@?$__acrt_stdio_char_traits@_W@@SA_NQAU_iobuf@@@Z 1004ee70 f i libucrtd:output.obj
 0001:0004de80       ?wide_character_to_digit@__crt_strtox@@YAH_W@Z 1004ee80 f i libucrtd:output.obj
 0001:0004e1b0       ?wide_null_string@?$output_processor@DV?$stream_output_adapter@D@__crt_stdio_output@@V?$format_validation_base@DV?$stream_output_adapter@D@__crt_stdio_output@@@2@@__crt_stdio_output@@CAPA_WXZ 1004f1b0 f i libucrtd:output.obj
 0001:0004e1c0       ?wide_null_string@?$output_processor@DV?$stream_output_adapter@D@__crt_stdio_output@@V?$positional_parameter_base@DV?$stream_output_adapter@D@__crt_stdio_output@@@2@@__crt_stdio_output@@CAPA_WXZ 1004f1c0 f i libucrtd:output.obj
 0001:0004e1d0       ?wide_null_string@?$output_processor@DV?$stream_output_adapter@D@__crt_stdio_output@@V?$standard_base@DV?$stream_output_adapter@D@__crt_stdio_output@@@2@@__crt_stdio_output@@CAPA_WXZ 1004f1d0 f i libucrtd:output.obj
 0001:0004e1e0       ?wide_null_string@?$output_processor@DV?$string_output_adapter@D@__crt_stdio_output@@V?$format_validation_base@DV?$string_output_adapter@D@__crt_stdio_output@@@2@@__crt_stdio_output@@CAPA_WXZ 1004f1e0 f i libucrtd:output.obj
 0001:0004e1f0       ?wide_null_string@?$output_processor@DV?$string_output_adapter@D@__crt_stdio_output@@V?$positional_parameter_base@DV?$string_output_adapter@D@__crt_stdio_output@@@2@@__crt_stdio_output@@CAPA_WXZ 1004f1f0 f i libucrtd:output.obj
 0001:0004e200       ?wide_null_string@?$output_processor@DV?$string_output_adapter@D@__crt_stdio_output@@V?$standard_base@DV?$string_output_adapter@D@__crt_stdio_output@@@2@@__crt_stdio_output@@CAPA_WXZ 1004f200 f i libucrtd:output.obj
 0001:0004e210       ?wide_null_string@?$output_processor@_WV?$stream_output_adapter@_W@__crt_stdio_output@@V?$format_validation_base@_WV?$stream_output_adapter@_W@__crt_stdio_output@@@2@@__crt_stdio_output@@CAPA_WXZ 1004f210 f i libucrtd:output.obj
 0001:0004e220       ?wide_null_string@?$output_processor@_WV?$stream_output_adapter@_W@__crt_stdio_output@@V?$positional_parameter_base@_WV?$stream_output_adapter@_W@__crt_stdio_output@@@2@@__crt_stdio_output@@CAPA_WXZ 1004f220 f i libucrtd:output.obj
 0001:0004e230       ?wide_null_string@?$output_processor@_WV?$stream_output_adapter@_W@__crt_stdio_output@@V?$standard_base@_WV?$stream_output_adapter@_W@__crt_stdio_output@@@2@@__crt_stdio_output@@CAPA_WXZ 1004f230 f i libucrtd:output.obj
 0001:0004e240       ?wide_null_string@?$output_processor@_WV?$string_output_adapter@_W@__crt_stdio_output@@V?$format_validation_base@_WV?$string_output_adapter@_W@__crt_stdio_output@@@2@@__crt_stdio_output@@CAPA_WXZ 1004f240 f i libucrtd:output.obj
 0001:0004e250       ?wide_null_string@?$output_processor@_WV?$string_output_adapter@_W@__crt_stdio_output@@V?$positional_parameter_base@_WV?$string_output_adapter@_W@__crt_stdio_output@@@2@@__crt_stdio_output@@CAPA_WXZ 1004f250 f i libucrtd:output.obj
 0001:0004e260       ?wide_null_string@?$output_processor@_WV?$string_output_adapter@_W@__crt_stdio_output@@V?$standard_base@_WV?$string_output_adapter@_W@__crt_stdio_output@@@2@@__crt_stdio_output@@CAPA_WXZ 1004f260 f i libucrtd:output.obj
 0001:0004e270       ?write_character@?$output_adapter_common@DV?$stream_output_adapter@D@__crt_stdio_output@@@__crt_stdio_output@@QBEXDQAHAAV__crt_cached_ptd_host@@@Z 1004f270 f i libucrtd:output.obj
 0001:0004e2b0       ?write_character@?$output_adapter_common@_WV?$stream_output_adapter@_W@__crt_stdio_output@@@__crt_stdio_output@@QBEX_WQAHAAV__crt_cached_ptd_host@@@Z 1004f2b0 f i libucrtd:output.obj
 0001:0004e2f0       ?write_character@?$string_output_adapter@D@__crt_stdio_output@@QBE_NDQAHAAV__crt_cached_ptd_host@@@Z 1004f2f0 f i libucrtd:output.obj
 0001:0004e380       ?write_character@?$string_output_adapter@_W@__crt_stdio_output@@QBE_N_WQAHAAV__crt_cached_ptd_host@@@Z 1004f380 f i libucrtd:output.obj
 0001:0004e420       ?write_character_without_count_update@?$stream_output_adapter@D@__crt_stdio_output@@QBE_NDAAV__crt_cached_ptd_host@@@Z 1004f420 f i libucrtd:output.obj
 0001:0004e490       ?write_character_without_count_update@?$stream_output_adapter@_W@__crt_stdio_output@@QBE_N_WAAV__crt_cached_ptd_host@@@Z 1004f490 f i libucrtd:output.obj
 0001:0004e500       ?write_stored_string_tchar@?$output_processor@DV?$stream_output_adapter@D@__crt_stdio_output@@V?$format_validation_base@DV?$stream_output_adapter@D@__crt_stdio_output@@@2@@__crt_stdio_output@@AAE_ND@Z 1004f500 f i libucrtd:output.obj
 0001:0004e620       ?write_stored_string_tchar@?$output_processor@DV?$stream_output_adapter@D@__crt_stdio_output@@V?$positional_parameter_base@DV?$stream_output_adapter@D@__crt_stdio_output@@@2@@__crt_stdio_output@@AAE_ND@Z 1004f620 f i libucrtd:output.obj
 0001:0004e740       ?write_stored_string_tchar@?$output_processor@DV?$stream_output_adapter@D@__crt_stdio_output@@V?$standard_base@DV?$stream_output_adapter@D@__crt_stdio_output@@@2@@__crt_stdio_output@@AAE_ND@Z 1004f740 f i libucrtd:output.obj
 0001:0004e860       ?write_stored_string_tchar@?$output_processor@DV?$string_output_adapter@D@__crt_stdio_output@@V?$format_validation_base@DV?$string_output_adapter@D@__crt_stdio_output@@@2@@__crt_stdio_output@@AAE_ND@Z 1004f860 f i libucrtd:output.obj
 0001:0004e980       ?write_stored_string_tchar@?$output_processor@DV?$string_output_adapter@D@__crt_stdio_output@@V?$positional_parameter_base@DV?$string_output_adapter@D@__crt_stdio_output@@@2@@__crt_stdio_output@@AAE_ND@Z 1004f980 f i libucrtd:output.obj
 0001:0004eaa0       ?write_stored_string_tchar@?$output_processor@DV?$string_output_adapter@D@__crt_stdio_output@@V?$standard_base@DV?$string_output_adapter@D@__crt_stdio_output@@@2@@__crt_stdio_output@@AAE_ND@Z 1004faa0 f i libucrtd:output.obj
 0001:0004ebc0       ?write_stored_string_tchar@?$output_processor@_WV?$stream_output_adapter@_W@__crt_stdio_output@@V?$format_validation_base@_WV?$stream_output_adapter@_W@__crt_stdio_output@@@2@@__crt_stdio_output@@AAE_N_W@Z 1004fbc0 f i libucrtd:output.obj
 0001:0004ecd0       ?write_stored_string_tchar@?$output_processor@_WV?$stream_output_adapter@_W@__crt_stdio_output@@V?$positional_parameter_base@_WV?$stream_output_adapter@_W@__crt_stdio_output@@@2@@__crt_stdio_output@@AAE_N_W@Z 1004fcd0 f i libucrtd:output.obj
 0001:0004ede0       ?write_stored_string_tchar@?$output_processor@_WV?$stream_output_adapter@_W@__crt_stdio_output@@V?$standard_base@_WV?$stream_output_adapter@_W@__crt_stdio_output@@@2@@__crt_stdio_output@@AAE_N_W@Z 1004fde0 f i libucrtd:output.obj
 0001:0004eef0       ?write_stored_string_tchar@?$output_processor@_WV?$string_output_adapter@_W@__crt_stdio_output@@V?$format_validation_base@_WV?$string_output_adapter@_W@__crt_stdio_output@@@2@@__crt_stdio_output@@AAE_N_W@Z 1004fef0 f i libucrtd:output.obj
 0001:0004f000       ?write_stored_string_tchar@?$output_processor@_WV?$string_output_adapter@_W@__crt_stdio_output@@V?$positional_parameter_base@_WV?$string_output_adapter@_W@__crt_stdio_output@@@2@@__crt_stdio_output@@AAE_N_W@Z 10050000 f i libucrtd:output.obj
 0001:0004f110       ?write_stored_string_tchar@?$output_processor@_WV?$string_output_adapter@_W@__crt_stdio_output@@V?$standard_base@_WV?$string_output_adapter@_W@__crt_stdio_output@@@2@@__crt_stdio_output@@AAE_N_W@Z 10050110 f i libucrtd:output.obj
 0001:0004f220       ?write_string@?$stream_output_adapter@D@__crt_stdio_output@@QBEXQBDHQAHAAV__crt_cached_ptd_host@@@Z 10050220 f i libucrtd:output.obj
 0001:0004f280       ?write_string@?$stream_output_adapter@_W@__crt_stdio_output@@QBEXQB_WHQAHAAV__crt_cached_ptd_host@@@Z 10050280 f i libucrtd:output.obj
 0001:0004f2e0       ?write_string@?$string_output_adapter@D@__crt_stdio_output@@QBEXQBDHQAHAAV__crt_cached_ptd_host@@@Z 100502e0 f i libucrtd:output.obj
 0001:0004f3e0       ?write_string@?$string_output_adapter@_W@__crt_stdio_output@@QBEXQB_WHQAHAAV__crt_cached_ptd_host@@@Z 100503e0 f i libucrtd:output.obj
 0001:0004f4f0       ?write_string_impl@?$output_adapter_common@DV?$stream_output_adapter@D@__crt_stdio_output@@@__crt_stdio_output@@IBEXQBDHQAHAAV__crt_cached_ptd_host@@@Z 100504f0 f i libucrtd:output.obj
 0001:0004f5b0       ?write_string_impl@?$output_adapter_common@_WV?$stream_output_adapter@_W@__crt_stdio_output@@@__crt_stdio_output@@IBEXQB_WHQAHAAV__crt_cached_ptd_host@@@Z 100505b0 f i libucrtd:output.obj
 0001:0004f670       ___acrt_disable_global_locale_sync 10050670 f i libucrtd:output.obj
 0001:0004f690       ___acrt_enable_global_locale_sync 10050690 f i libucrtd:output.obj
 0001:0004f6b0       ___acrt_isleadbyte_l_noupdate 100506b0 f i libucrtd:output.obj
 0001:0004f6d0       ___acrt_locale_changed     100506d0 f i libucrtd:output.obj
 0001:0004f700       ___acrt_locale_get_ctype_array_value 10050700 f i libucrtd:output.obj
 0001:0004f730       ___ascii_iswalpha          10050730 f i libucrtd:output.obj
 0001:0004f770       ___ascii_toupper           10050770 f i libucrtd:output.obj
 0001:0004f790       ___ascii_towupper          10050790 f i libucrtd:output.obj
 0001:0004f7b0       ___stdio_common_vfprintf   100507b0 f   libucrtd:output.obj
 0001:0004f800       ___stdio_common_vfprintf_p 10050800 f   libucrtd:output.obj
 0001:0004f850       ___stdio_common_vfprintf_s 10050850 f   libucrtd:output.obj
 0001:0004f8a0       ___stdio_common_vfwprintf  100508a0 f   libucrtd:output.obj
 0001:0004f8f0       ___stdio_common_vfwprintf_p 100508f0 f   libucrtd:output.obj
 0001:0004f940       ___stdio_common_vfwprintf_s 10050940 f   libucrtd:output.obj
 0001:0004f990       ___stdio_common_vsnprintf_s 10050990 f   libucrtd:output.obj
 0001:0004f9e0       ___stdio_common_vsnwprintf_s 100509e0 f   libucrtd:output.obj
 0001:0004fa30       ___stdio_common_vsprintf   10050a30 f   libucrtd:output.obj
 0001:0004fa80       ___stdio_common_vsprintf_p 10050a80 f   libucrtd:output.obj
 0001:0004fad0       ___stdio_common_vsprintf_s 10050ad0 f   libucrtd:output.obj
 0001:0004fb20       ___stdio_common_vswprintf  10050b20 f   libucrtd:output.obj
 0001:0004fb70       ___stdio_common_vswprintf_p 10050b70 f   libucrtd:output.obj
 0001:0004fbc0       ___stdio_common_vswprintf_s 10050bc0 f   libucrtd:output.obj
 0001:0004fc10       __ctype_fast_check_internal 10050c10 f i libucrtd:output.obj
 0001:0004fc30       __isdigit_fast_internal    10050c30 f i libucrtd:output.obj
 0001:0004fc50       __tolower_fast_internal    10050c50 f i libucrtd:output.obj
 0001:0004fc70       _free                      10050c70 f   libucrtd:free.obj
 0001:0004fca0       _malloc                    10050ca0 f   libucrtd:malloc.obj
 0001:0004ffd0       _strcpy_s                  10050fd0 f   libucrtd:strcpy_s.obj
 0001:00050110       __get_sys_err_msg          10051110 f i libucrtd:perror.obj
 0001:00050190       _perror                    10051190 f   libucrtd:perror.obj
 0001:000501c0       __strdup                   100511c0 f   libucrtd:strdup.obj
 0001:000501e0       __strdup_dbg               100511e0 f   libucrtd:strdup.obj
 0001:00050260       ??$?R_W@__crt_internal_free_policy@@QBEXQB_W@Z 10051260 f i libucrtd:strerror.obj
 0001:00050720       ??0?$__crt_unique_heap_ptr@_WU__crt_internal_free_policy@@@@QAE@QA_W@Z 10051720 f i libucrtd:strerror.obj
 0001:00050740       ??1?$__crt_unique_heap_ptr@_WU__crt_internal_free_policy@@@@QAE@XZ 10051740 f i libucrtd:strerror.obj
 0001:000507b0       ?detach@?$__crt_unique_heap_ptr@DU__crt_internal_free_policy@@@@QAEPADXZ 100517b0 f i libucrtd:strerror.obj
 0001:000507e0       ?detach@?$__crt_unique_heap_ptr@_WU__crt_internal_free_policy@@@@QAEPA_WXZ 100517e0 f i libucrtd:strerror.obj
 0001:00050850       ?release@?$__crt_unique_heap_ptr@_WU__crt_internal_free_policy@@@@QAEXXZ 10051850 f i libucrtd:strerror.obj
 0001:00050880       __invoke_watson_if_oneof   10051880 f i libucrtd:strerror.obj
 0001:000508c0       __wcserror                 100518c0 f   libucrtd:strerror.obj
 0001:000508e0       __wcserror_s               100518e0 f   libucrtd:strerror.obj
 0001:00050900       _strerror                  10051900 f   libucrtd:strerror.obj
 0001:00050920       _strerror_s                10051920 f   libucrtd:strerror.obj
 0001:00050940       ??$?RU?$__crt_report_hook_node@D@@@__crt_internal_free_policy@@QBEXQBU?$__crt_report_hook_node@D@@@Z 10051940 f i libucrtd:dbgrpt.obj
 0001:00050960       ??$?RU?$__crt_report_hook_node@_W@@@__crt_internal_free_policy@@QBEXQBU?$__crt_report_hook_node@_W@@@Z 10051960 f i libucrtd:dbgrpt.obj
 0001:00051930       ??0?$__crt_unique_heap_ptr@U?$__crt_report_hook_node@D@@U__crt_internal_free_policy@@@@QAE@QAU?$__crt_report_hook_node@D@@@Z 10052930 f i libucrtd:dbgrpt.obj
 0001:00051950       ??0?$__crt_unique_heap_ptr@U?$__crt_report_hook_node@_W@@U__crt_internal_free_policy@@@@QAE@QAU?$__crt_report_hook_node@_W@@@Z 10052950 f i libucrtd:dbgrpt.obj
 0001:00051970       ??1?$__crt_unique_heap_ptr@U?$__crt_report_hook_node@D@@U__crt_internal_free_policy@@@@QAE@XZ 10052970 f i libucrtd:dbgrpt.obj
 0001:00051990       ??1?$__crt_unique_heap_ptr@U?$__crt_report_hook_node@_W@@U__crt_internal_free_policy@@@@QAE@XZ 10052990 f i libucrtd:dbgrpt.obj
 0001:000519b0       ??B?$__crt_unique_heap_ptr@U?$__crt_report_hook_node@D@@U__crt_internal_free_policy@@@@QBE_NXZ 100529b0 f i libucrtd:dbgrpt.obj
 0001:000519d0       ??B?$__crt_unique_heap_ptr@U?$__crt_report_hook_node@_W@@U__crt_internal_free_policy@@@@QBE_NXZ 100529d0 f i libucrtd:dbgrpt.obj
 0001:00051f30       ?detach@?$__crt_unique_heap_ptr@U?$__crt_report_hook_node@D@@U__crt_internal_free_policy@@@@QAEPAU?$__crt_report_hook_node@D@@XZ 10052f30 f i libucrtd:dbgrpt.obj
 0001:00051f60       ?detach@?$__crt_unique_heap_ptr@U?$__crt_report_hook_node@_W@@U__crt_internal_free_policy@@@@QAEPAU?$__crt_report_hook_node@_W@@XZ 10052f60 f i libucrtd:dbgrpt.obj
 0001:00051f90       ?get@?$__crt_unique_heap_ptr@U?$__crt_report_hook_node@D@@U__crt_internal_free_policy@@@@QBEPAU?$__crt_report_hook_node@D@@XZ 10052f90 f i libucrtd:dbgrpt.obj
 0001:00051fb0       ?get@?$__crt_unique_heap_ptr@U?$__crt_report_hook_node@_W@@U__crt_internal_free_policy@@@@QBEPAU?$__crt_report_hook_node@_W@@XZ 10052fb0 f i libucrtd:dbgrpt.obj
 0001:00052030       ?is_valid@?$__crt_unique_heap_ptr@U?$__crt_report_hook_node@D@@U__crt_internal_free_policy@@@@QBE_NXZ 10053030 f i libucrtd:dbgrpt.obj
 0001:00052060       ?is_valid@?$__crt_unique_heap_ptr@U?$__crt_report_hook_node@_W@@U__crt_internal_free_policy@@@@QBE_NXZ 10053060 f i libucrtd:dbgrpt.obj
 0001:00052090       ?release@?$__crt_unique_heap_ptr@U?$__crt_report_hook_node@D@@U__crt_internal_free_policy@@@@QAEXXZ 10053090 f i libucrtd:dbgrpt.obj
 0001:000520c0       ?release@?$__crt_unique_heap_ptr@U?$__crt_report_hook_node@_W@@U__crt_internal_free_policy@@@@QAEXXZ 100530c0 f i libucrtd:dbgrpt.obj
 0001:000520f0       __CrtDbgReport             100530f0 f   libucrtd:dbgrpt.obj
 0001:00052140       __CrtDbgReportW            10053140 f   libucrtd:dbgrpt.obj
 0001:00052190       __CrtSetReportHook2        10053190 f   libucrtd:dbgrpt.obj
 0001:000521b0       __CrtSetReportHookW2       100531b0 f   libucrtd:dbgrpt.obj
 0001:000521d0       ___acrt_MessageWindowA     100531d0 f   libucrtd:dbgrpt.obj
 0001:00052200       ___acrt_MessageWindowW     10053200 f   libucrtd:dbgrpt.obj
 0001:00052230       __snwprintf_s              10053230 f i libucrtd:dbgrpt.obj
 0001:00052270       __vsnwprintf_s_l           10053270 f i libucrtd:dbgrpt.obj
 0001:000522d0       __initterm                 100532d0 f   libucrtd:initterm.obj
 0001:00052320       __initterm_e               10053320 f   libucrtd:initterm.obj
 0001:000523d0       __seh_filter_dll           100533d0 f   libucrtd:exception_filter.obj
 0001:00052400       __seh_filter_exe           10053400 f   libucrtd:exception_filter.obj
 0001:00052620       ??$?B$$A6GXPAXK0@Z@__crt_fast_encoded_nullptr_t@@QBEP6GXPAXK0@ZXZ 10053620 f i libucrtd:exit.obj
 0001:00052730       ??$__crt_fast_decode_pointer@P6GXPAXK0@Z@@YAP6GXPAXK0@ZQ6GX0K0@Z@Z 10053730 f i libucrtd:exit.obj
 0001:00052760       ??$__crt_fast_encode_pointer@P6GXPAXK0@Z@@YAP6GXPAXK0@ZQ6GX0K0@Z@Z 10053760 f i libucrtd:exit.obj
 0001:00052790       ??$__crt_get_proc_address@P6GXI@Z@@YAP6GXI@ZQAUHINSTANCE__@@QBD@Z 10053790 f i libucrtd:exit.obj
 0001:00052820       ??0?$__crt_unique_handle_t@U__crt_hmodule_traits@@@@QAE@QAUHINSTANCE__@@@Z 10053820 f i libucrtd:exit.obj
 0001:00052840       ??1?$__crt_unique_handle_t@U__crt_hmodule_traits@@@@QAE@XZ 10053840 f i libucrtd:exit.obj
 0001:00052a00       ?__acrt_select_exit_lock@@YA?AW4__acrt_lock_id@@XZ 10053a00 f i libucrtd:exit.obj
 0001:00052a10       ?__crt_fast_encode_pointer@@YA?AU__crt_fast_encoded_nullptr_t@@$$T@Z 10053a10 f i libucrtd:exit.obj
 0001:00052a20       ?__crt_rotate_pointer_value@@YAIIH@Z 10053a20 f i libucrtd:exit.obj
 0001:00052a50       ?close@?$__crt_unique_handle_t@U__crt_hmodule_traits@@@@QAEXXZ 10053a50 f i libucrtd:exit.obj
 0001:00052a90       ?close@__crt_hmodule_traits@@SA_NPAUHINSTANCE__@@@Z 10053a90 f i libucrtd:exit.obj
 0001:00052bc0       ?get@?$__crt_unique_handle_t@U__crt_hmodule_traits@@@@QBEPAUHINSTANCE__@@XZ 10053bc0 f i libucrtd:exit.obj
 0001:00052be0       ?get_address_of@?$__crt_unique_handle_t@U__crt_hmodule_traits@@@@QAEPAPAUHINSTANCE__@@XZ 10053be0 f i libucrtd:exit.obj
 0001:00052bf0       ?get_invalid_value@__crt_hmodule_traits@@SAPAUHINSTANCE__@@XZ 10053bf0 f i libucrtd:exit.obj
 0001:00052d80       __Exit                     10053d80 f   libucrtd:exit.obj
 0001:00052da0       ___acrt_initialize_thread_local_exit_callback 10053da0 f   libucrtd:exit.obj
 0001:00052db0       __c_exit                   10053db0 f   libucrtd:exit.obj
 0001:00052dd0       __cexit                    10053dd0 f   libucrtd:exit.obj
 0001:00052df0       __exit                     10053df0 f   libucrtd:exit.obj
 0001:00052e10       __is_c_termination_complete 10053e10 f   libucrtd:exit.obj
 0001:00052e30       __register_thread_local_exe_atexit_callback 10053e30 f   libucrtd:exit.obj
 0001:00052e70       _exit                      10053e70 f   libucrtd:exit.obj
 0001:00052e90       _quick_exit                10053e90 f   libucrtd:exit.obj
 0001:00052eb0       ??$?RE@__crt_internal_free_policy@@QBEXQBE@Z 10053eb0 f i libucrtd:argv_parsing.obj
 0001:00052ed0       ??$?RPAD@__crt_internal_free_policy@@QBEXQBQAD@Z 10053ed0 f i libucrtd:argv_parsing.obj
 0001:00052ef0       ??$?RPA_W@__crt_internal_free_policy@@QBEXQBQA_W@Z 10053ef0 f i libucrtd:argv_parsing.obj
 0001:000534b0       ??$get_module_file_name@$$TAAY0BAF@DH@?$__crt_char_traits@D@@SAK$$QA$$TAAY0BAF@D$$QAH@Z 100544b0 f i libucrtd:argv_parsing.obj
 0001:000534d0       ??$get_module_file_name@$$TAAY0BAF@_WH@?$__crt_char_traits@_W@@SAK$$QA$$TAAY0BAF@_W$$QAH@Z 100544d0 f i libucrtd:argv_parsing.obj
 0001:00053c10       ??$set_program_name@PAD@?$__crt_char_traits@D@@SAX$$QAPAD@Z 10054c10 f i libucrtd:argv_parsing.obj
 0001:00053c30       ??$set_program_name@PA_W@?$__crt_char_traits@_W@@SAX$$QAPA_W@Z 10054c30 f i libucrtd:argv_parsing.obj
 0001:00053c90       ??0?$__crt_unique_heap_ptr@EU__crt_internal_free_policy@@@@QAE@QAE@Z 10054c90 f i libucrtd:argv_parsing.obj
 0001:00053cb0       ??0?$__crt_unique_heap_ptr@PADU__crt_internal_free_policy@@@@QAE@QAPAD@Z 10054cb0 f i libucrtd:argv_parsing.obj
 0001:00053cd0       ??0?$__crt_unique_heap_ptr@PA_WU__crt_internal_free_policy@@@@QAE@QAPA_W@Z 10054cd0 f i libucrtd:argv_parsing.obj
 0001:00053cf0       ??1?$__crt_unique_heap_ptr@EU__crt_internal_free_policy@@@@QAE@XZ 10054cf0 f i libucrtd:argv_parsing.obj
 0001:00053d10       ??1?$__crt_unique_heap_ptr@PADU__crt_internal_free_policy@@@@QAE@XZ 10054d10 f i libucrtd:argv_parsing.obj
 0001:00053d30       ??1?$__crt_unique_heap_ptr@PA_WU__crt_internal_free_policy@@@@QAE@XZ 10054d30 f i libucrtd:argv_parsing.obj
 0001:00053d50       ??B?$__crt_unique_heap_ptr@EU__crt_internal_free_policy@@@@QBE_NXZ 10054d50 f i libucrtd:argv_parsing.obj
 0001:00053e10       ?detach@?$__crt_unique_heap_ptr@EU__crt_internal_free_policy@@@@QAEPAEXZ 10054e10 f i libucrtd:argv_parsing.obj
 0001:00053e40       ?detach@?$__crt_unique_heap_ptr@PADU__crt_internal_free_policy@@@@QAEPAPADXZ 10054e40 f i libucrtd:argv_parsing.obj
 0001:00053e70       ?detach@?$__crt_unique_heap_ptr@PA_WU__crt_internal_free_policy@@@@QAEPAPA_WXZ 10054e70 f i libucrtd:argv_parsing.obj
 0001:00053f00       ?get@?$__crt_unique_heap_ptr@EU__crt_internal_free_policy@@@@QBEPAEXZ 10054f00 f i libucrtd:argv_parsing.obj
 0001:00053f20       ?get@?$__crt_unique_heap_ptr@PADU__crt_internal_free_policy@@@@QBEPAPADXZ 10054f20 f i libucrtd:argv_parsing.obj
 0001:00053f40       ?get@?$__crt_unique_heap_ptr@PA_WU__crt_internal_free_policy@@@@QBEPAPA_WXZ 10054f40 f i libucrtd:argv_parsing.obj
 0001:00053f60       ?get_address_of@?$__crt_unique_heap_ptr@PADU__crt_internal_free_policy@@@@QAEPAPAPADXZ 10054f60 f i libucrtd:argv_parsing.obj
 0001:00053f70       ?get_address_of@?$__crt_unique_heap_ptr@PA_WU__crt_internal_free_policy@@@@QAEPAPAPA_WXZ 10054f70 f i libucrtd:argv_parsing.obj
 0001:00053fc0       ?is_valid@?$__crt_unique_heap_ptr@EU__crt_internal_free_policy@@@@QBE_NXZ 10054fc0 f i libucrtd:argv_parsing.obj
 0001:00053ff0       ?release@?$__crt_unique_heap_ptr@EU__crt_internal_free_policy@@@@QAEXXZ 10054ff0 f i libucrtd:argv_parsing.obj
 0001:00054020       ?release@?$__crt_unique_heap_ptr@PADU__crt_internal_free_policy@@@@QAEXXZ 10055020 f i libucrtd:argv_parsing.obj
 0001:00054050       ?release@?$__crt_unique_heap_ptr@PA_WU__crt_internal_free_policy@@@@QAEXXZ 10055050 f i libucrtd:argv_parsing.obj
 0001:000540c0       ___acrt_allocate_buffer_for_argv 100550c0 f   libucrtd:argv_parsing.obj
 0001:00054180       __configure_narrow_argv    10055180 f   libucrtd:argv_parsing.obj
 0001:000541a0       __configure_wide_argv      100551a0 f   libucrtd:argv_parsing.obj
 0001:000541c0       __set_pgmptr               100551c0 f i libucrtd:argv_parsing.obj
 0001:000541d0       __set_wpgmptr              100551d0 f i libucrtd:argv_parsing.obj
 0001:000549a0       ??$get_environment_from_os@$$V@?$__crt_char_traits@D@@SAPADXZ 100559a0 f i libucrtd:environment_initialization.obj
 0001:000549b0       ??$get_environment_from_os@$$V@?$__crt_char_traits@_W@@SAPA_WXZ 100559b0 f i libucrtd:environment_initialization.obj
 0001:00054c80       ??$set_variable_in_environment_nolock@PADH@?$__crt_char_traits@D@@SAH$$QAPAD$$QAH@Z 10055c80 f i libucrtd:environment_initialization.obj
 0001:00054ca0       ??$set_variable_in_environment_nolock@PA_WH@?$__crt_char_traits@_W@@SAH$$QAPA_W$$QAH@Z 10055ca0 f i libucrtd:environment_initialization.obj
 0001:00054cc0       ??$tcscpy_s@PADABIAAPAD@?$__crt_char_traits@D@@SAH$$QAPADABIAAPAD@Z 10055cc0 f i libucrtd:environment_initialization.obj
 0001:00054cf0       ??$tcscpy_s@PA_WABIAAPA_W@?$__crt_char_traits@_W@@SAH$$QAPA_WABIAAPA_W@Z 10055cf0 f i libucrtd:environment_initialization.obj
 0001:00054d20       ??$tcslen@AAPAD@?$__crt_char_traits@D@@SAIAAPAD@Z 10055d20 f i libucrtd:environment_initialization.obj
 0001:00054d40       ??$tcslen@AAPA_W@?$__crt_char_traits@_W@@SAIAAPA_W@Z 10055d40 f i libucrtd:environment_initialization.obj
 0001:00054d60       ??$uninitialize@A6AXAAPAPAD@_E@?$dual_state_global@PAPAD@__crt_state_management@@QAEXA6AXAAPAPAD@_E@Z 10055d60 f i libucrtd:environment_initialization.obj
 0001:00054de0       ??$uninitialize@A6AXAAPAPA_W@_E@?$dual_state_global@PAPA_W@__crt_state_management@@QAEXA6AXAAPAPA_W@_E@Z 10055de0 f i libucrtd:environment_initialization.obj
 0001:00054ec0       ??B?$__crt_unique_heap_ptr@PADU__crt_internal_free_policy@@@@QBE_NXZ 10055ec0 f i libucrtd:environment_initialization.obj
 0001:00054ee0       ??B?$__crt_unique_heap_ptr@PA_WU__crt_internal_free_policy@@@@QBE_NXZ 10055ee0 f i libucrtd:environment_initialization.obj
 0001:00054f00       ??B?$__crt_unique_heap_ptr@_WU__crt_internal_free_policy@@@@QBE_NXZ 10055f00 f i libucrtd:environment_initialization.obj
 0001:00054f20       ?__crt_compute_required_transform_buffer_count@@YAIIQBD@Z 10055f20 f i libucrtd:environment_initialization.obj
 0001:00054f40       ?__crt_compute_required_transform_buffer_count@@YAIIQB_W@Z 10055f40 f i libucrtd:environment_initialization.obj
 0001:00054f70       ?__crt_transform_string@@YAIIQBDQA_WI@Z 10055f70 f i libucrtd:environment_initialization.obj
 0001:00054fa0       ?__crt_transform_string@@YAIIQB_WQADI@Z 10055fa0 f i libucrtd:environment_initialization.obj
 0001:00054fd0       ?get@?$__crt_unique_heap_ptr@_WU__crt_internal_free_policy@@@@QBEPA_WXZ 10055fd0 f i libucrtd:environment_initialization.obj
 0001:00054ff0       ?get_current_state_index@__crt_state_management@@YAIXZ 10055ff0 f i libucrtd:environment_initialization.obj
 0001:00055080       ?initialize@?$dual_state_global@PAPAD@__crt_state_management@@QAEXQAPAD@Z 10056080 f i libucrtd:environment_initialization.obj
 0001:000550c0       ?initialize@?$dual_state_global@PAPA_W@__crt_state_management@@QAEXQAPA_W@Z 100560c0 f i libucrtd:environment_initialization.obj
 0001:00055100       ?is_valid@?$__crt_unique_heap_ptr@PADU__crt_internal_free_policy@@@@QBE_NXZ 10056100 f i libucrtd:environment_initialization.obj
 0001:00055130       ?is_valid@?$__crt_unique_heap_ptr@PA_WU__crt_internal_free_policy@@@@QBE_NXZ 10056130 f i libucrtd:environment_initialization.obj
 0001:00055160       ?is_valid@?$__crt_unique_heap_ptr@_WU__crt_internal_free_policy@@@@QBE_NXZ 10056160 f i libucrtd:environment_initialization.obj
 0001:000551b0       ?value@?$dual_state_global@PAPAD@__crt_state_management@@QAEAAPAPADXZ 100561b0 f i libucrtd:environment_initialization.obj
 0001:000551d0       ?value@?$dual_state_global@PAPA_W@__crt_state_management@@QAEAAPAPA_WXZ 100561d0 f i libucrtd:environment_initialization.obj
 0001:000551f0       ___dcrt_get_or_create_narrow_environment_nolock 100561f0 f   libucrtd:environment_initialization.obj
 0001:00055200       ___dcrt_get_or_create_wide_environment_nolock 10056200 f   libucrtd:environment_initialization.obj
 0001:00055210       ___dcrt_uninitialize_environments_nolock 10056210 f   libucrtd:environment_initialization.obj
 0001:00055260       ___p__environ              10056260 f   libucrtd:environment_initialization.obj
 0001:00055280       ___p__wenviron             10056280 f   libucrtd:environment_initialization.obj
 0001:000552a0       __get_initial_narrow_environment 100562a0 f   libucrtd:environment_initialization.obj
 0001:000552b0       __get_initial_wide_environment 100562b0 f   libucrtd:environment_initialization.obj
 0001:000552c0       __initialize_narrow_environment 100562c0 f   libucrtd:environment_initialization.obj
 0001:000552d0       __initialize_wide_environment 100562d0 f   libucrtd:environment_initialization.obj
 0001:000552e0       ??$?B$$A6AXXZ@__crt_fast_encoded_nullptr_t@@QBEP6AXXZXZ 100562e0 f i libucrtd:onexit.obj
 0001:00055300       ??$?BP6AXXZ@__crt_fast_encoded_nullptr_t@@QBEPAP6AXXZXZ 10056300 f i libucrtd:onexit.obj
 0001:00055320       ??$?RP6AXXZ@__crt_internal_free_policy@@QBEXQBQ6AXXZ@Z 10056320 f i libucrtd:onexit.obj
 0001:00055540       ??$__crt_fast_decode_pointer@P6AXXZ@@YAP6AXXZQ6AXXZ@Z 10056540 f i libucrtd:onexit.obj
 0001:00055570       ??$__crt_fast_decode_pointer@PAP6AXXZ@@YAPAP6AXXZQAP6AXXZ@Z 10056570 f i libucrtd:onexit.obj
 0001:000555a0       ??$__crt_fast_encode_pointer@P6AHXZ@@YAP6AHXZQ6AHXZ@Z 100565a0 f i libucrtd:onexit.obj
 0001:000555d0       ??$__crt_fast_encode_pointer@P6AXXZ@@YAP6AXXZQ6AXXZ@Z 100565d0 f i libucrtd:onexit.obj
 0001:00055600       ??$__crt_fast_encode_pointer@PAP6AXXZ@@YAPAP6AXXZQAP6AXXZ@Z 10056600 f i libucrtd:onexit.obj
 0001:00055700       ??0?$__crt_unique_heap_ptr@P6AXXZU__crt_internal_free_policy@@@@QAE@QAP6AXXZ@Z 10056700 f i libucrtd:onexit.obj
 0001:00055720       ??1?$__crt_unique_heap_ptr@P6AXXZU__crt_internal_free_policy@@@@QAE@XZ 10056720 f i libucrtd:onexit.obj
 0001:00055740       ??1scoped_global_state_reset@__crt_state_management@@QAE@XZ 10056740 f i libucrtd:onexit.obj
 0001:00055bc0       ?detach@?$__crt_unique_heap_ptr@P6AXXZU__crt_internal_free_policy@@@@QAEPAP6AXXZXZ 10056bc0 f i libucrtd:onexit.obj
 0001:00055bf0       ?release@?$__crt_unique_heap_ptr@P6AXXZU__crt_internal_free_policy@@@@QAEXXZ 10056bf0 f i libucrtd:onexit.obj
 0001:00055c20       __crt_at_quick_exit        10056c20 f   libucrtd:onexit.obj
 0001:00055c40       __crt_atexit               10056c40 f   libucrtd:onexit.obj
 0001:00055c60       __execute_onexit_table     10056c60 f   libucrtd:onexit.obj
 0001:00055ca0       __initialize_onexit_table  10056ca0 f   libucrtd:onexit.obj
 0001:00055d00       __register_onexit_function 10056d00 f   libucrtd:onexit.obj
 0001:00055f50       ??$?BX@__crt_fast_encoded_nullptr_t@@QBEPAXXZ 10056f50 f i libucrtd:initialization.obj
 0001:00055f70       ??$__crt_fast_encode_pointer@PAX@@YAPAXQAX@Z 10056f70 f i libucrtd:initialization.obj
 0001:00056060       ?initialize@?$dual_state_global@PAU__crt_locale_data@@@__crt_state_management@@QAEXQAU__crt_locale_data@@@Z 10057060 f i libucrtd:initialization.obj
 0001:000560a0       ___acrt_initialize         100570a0 f   libucrtd:initialization.obj
 0001:000560c0       ___acrt_thread_attach      100570c0 f   libucrtd:initialization.obj
 0001:000560e0       ___acrt_thread_detach      100570e0 f   libucrtd:initialization.obj
 0001:000560f0       ___acrt_uninitialize       100570f0 f   libucrtd:initialization.obj
 0001:00056110       ___acrt_uninitialize_critical 10057110 f   libucrtd:initialization.obj
 0001:00056160       __get_terminate            10057160 f   libucrtd:terminate.obj
 0001:00056180       _set_terminate             10057180 f   libucrtd:terminate.obj
 0001:000561b0       _terminate                 100571b0 f   libucrtd:terminate.obj
 0001:00056650       _strcat_s                  10057650 f   libucrtd:strcat_s.obj
 0001:00056fe0       __makepath                 10057fe0 f   libucrtd:makepath.obj
 0001:00057010       __makepath_s               10058010 f   libucrtd:makepath.obj
 0001:00057040       __wmakepath                10058040 f   libucrtd:makepath.obj
 0001:00057070       __wmakepath_s              10058070 f   libucrtd:makepath.obj
 0001:00058b40       ??$tcsncpy_s@AAPADIAAPBDABI@?$__crt_char_traits@D@@SAHAAPAD$$QAIAAPBDABI@Z 10059b40 f i libucrtd:splitpath.obj
 0001:00058b70       ??$tcsncpy_s@AAPADIAAPBDH@?$__crt_char_traits@D@@SAHAAPAD$$QAIAAPBD$$QAH@Z 10059b70 f i libucrtd:splitpath.obj
 0001:00058ba0       ??$tcsncpy_s@AAPA_WIAAPB_WABI@?$__crt_char_traits@_W@@SAHAAPA_W$$QAIAAPB_WABI@Z 10059ba0 f i libucrtd:splitpath.obj
 0001:00058bd0       ??$tcsncpy_s@AAPA_WIAAPB_WH@?$__crt_char_traits@_W@@SAHAAPA_W$$QAIAAPB_W$$QAH@Z 10059bd0 f i libucrtd:splitpath.obj
 0001:00058e10       __splitpath                10059e10 f   libucrtd:splitpath.obj
 0001:00058e40       __splitpath_s              10059e40 f   libucrtd:splitpath.obj
 0001:00058e90       __wsplitpath               10059e90 f   libucrtd:splitpath.obj
 0001:00058ec0       __wsplitpath_s             10059ec0 f   libucrtd:splitpath.obj
 0001:00059230       _wcscpy_s                  1005a230 f   libucrtd:wcscpy_s.obj
 0001:00059250       ??0_LocaleUpdate@@QAE@QAU__crt_locale_pointers@@@Z 1005a250 f i libucrtd:debug_heap.obj
 0001:00059320       ??1_LocaleUpdate@@QAE@XZ   1005a320 f i libucrtd:debug_heap.obj
 0001:00059350       ?GetLocaleT@_LocaleUpdate@@QAEPAU__crt_locale_pointers@@XZ 1005a350 f i libucrtd:debug_heap.obj
 0001:0005ada0       __CrtCheckMemory           1005bda0 f   libucrtd:debug_heap.obj
 0001:0005af30       __CrtDoForAllClientObjects 1005bf30 f   libucrtd:debug_heap.obj
 0001:0005b090       __CrtDumpMemoryLeaks       1005c090 f   libucrtd:debug_heap.obj
 0001:0005b130       __CrtGetAllocHook          1005c130 f   libucrtd:debug_heap.obj
 0001:0005b140       __CrtGetDumpClient         1005c140 f   libucrtd:debug_heap.obj
 0001:0005b150       __CrtIsMemoryBlock         1005c150 f   libucrtd:debug_heap.obj
 0001:0005b2a0       __CrtIsValidHeapPointer    1005c2a0 f   libucrtd:debug_heap.obj
 0001:0005b2e0       __CrtIsValidPointer        1005c2e0 f   libucrtd:debug_heap.obj
 0001:0005b310       __CrtMemCheckpoint         1005c310 f   libucrtd:debug_heap.obj
 0001:0005b540       __CrtMemDifference         1005c540 f   libucrtd:debug_heap.obj
 0001:0005b7b0       __CrtMemDumpAllObjectsSince 1005c7b0 f   libucrtd:debug_heap.obj
 0001:0005b850       __CrtMemDumpStatistics     1005c850 f   libucrtd:debug_heap.obj
 0001:0005b980       __CrtReportBlockType       1005c980 f   libucrtd:debug_heap.obj
 0001:0005b9b0       __CrtSetAllocHook          1005c9b0 f   libucrtd:debug_heap.obj
 0001:0005b9d0       __CrtSetBreakAlloc         1005c9d0 f   libucrtd:debug_heap.obj
 0001:0005b9f0       __CrtSetDbgBlockType       1005c9f0 f   libucrtd:debug_heap.obj
 0001:0005bad0       __CrtSetDbgFlag            1005cad0 f   libucrtd:debug_heap.obj
 0001:0005bc40       __CrtSetDumpClient         1005cc40 f   libucrtd:debug_heap.obj
 0001:0005bc60       ___acrt_get_locale_data_prefix 1005cc60 f i libucrtd:debug_heap.obj
 0001:0005bc80       ___p__crtBreakAlloc        1005cc80 f   libucrtd:debug_heap.obj
 0001:0005bc90       ___p__crtDbgFlag           1005cc90 f   libucrtd:debug_heap.obj
 0001:0005bca0       __aligned_free_dbg         1005cca0 f   libucrtd:debug_heap.obj
 0001:0005bd50       __aligned_malloc_dbg       1005cd50 f   libucrtd:debug_heap.obj
 0001:0005bd80       __aligned_msize_dbg        1005cd80 f   libucrtd:debug_heap.obj
 0001:0005beb0       __aligned_offset_malloc_dbg 1005ceb0 f   libucrtd:debug_heap.obj
 0001:0005c090       __aligned_offset_realloc_dbg 1005d090 f   libucrtd:debug_heap.obj
 0001:0005c3a0       __aligned_offset_recalloc_dbg 1005d3a0 f   libucrtd:debug_heap.obj
 0001:0005c460       __aligned_realloc_dbg      1005d460 f   libucrtd:debug_heap.obj
 0001:0005c490       __aligned_recalloc_dbg     1005d490 f   libucrtd:debug_heap.obj
 0001:0005c4c0       __calloc_dbg               1005d4c0 f   libucrtd:debug_heap.obj
 0001:0005c530       __chvalidchk_l             1005d530 f i libucrtd:debug_heap.obj
 0001:0005c550       __expand_dbg               1005d550 f   libucrtd:debug_heap.obj
 0001:0005c680       __free_dbg                 1005d680 f   libucrtd:debug_heap.obj
 0001:0005c730       __ischartype_l             1005d730 f i libucrtd:debug_heap.obj
 0001:0005c7b0       __malloc_dbg               1005d7b0 f   libucrtd:debug_heap.obj
 0001:0005c7d0       __msize_dbg                1005d7d0 f   libucrtd:debug_heap.obj
 0001:0005c960       __realloc_dbg              1005d960 f   libucrtd:debug_heap.obj
 0001:0005ca00       __recalloc_dbg             1005da00 f   libucrtd:debug_heap.obj
 0001:0005cab0       _strcmp                    1005dab0 f   libucrtd:strcmp.obj
 0001:0005cb40       _strlen                    1005db40 f   libucrtd:strlen.obj
 0001:0005cbd0       __set_abort_behavior       1005dbd0 f   libucrtd:abort.obj
 0001:0005cc00       _abort                     1005dc00 f   libucrtd:abort.obj
 0001:0005cc70       ??$__crt_fast_decode_pointer@P6AXPB_W00II@Z@@YAP6AXPB_W00II@ZQ6AX000II@Z@Z 1005dc70 f i libucrtd:invalid_parameter.obj
 0001:0005cca0       ??$__crt_fast_encode_pointer@P6AXPB_W00II@Z@@YAP6AXPB_W00II@ZQ6AX000II@Z@Z 1005dca0 f i libucrtd:invalid_parameter.obj
 0001:0005ccd0       ??$initialize_from_array@$$BY00Q6AXPB_W00II@Z@?$dual_state_global@P6AXPB_W00II@Z@__crt_state_management@@QAAXAAY00Q6AXPB_W00II@Z@Z 1005dcd0 f i libucrtd:invalid_parameter.obj
 0001:0005cd20       ?check_synchronize_global_state_index@__crt_cached_ptd_host@@AAEIXZ 1005dd20 f i libucrtd:invalid_parameter.obj
 0001:0005cd70       ?dangerous_get_state_array@?$dual_state_global@P6AXPB_W00II@Z@__crt_state_management@@QAEPAP6AXPB_W00II@ZXZ 1005dd70 f i libucrtd:invalid_parameter.obj
 0001:0005cd80       ?get_current_global_state_index@__crt_cached_ptd_host@@QAEIXZ 1005dd80 f i libucrtd:invalid_parameter.obj
 0001:0005cda0       ?get_raw_ptd_noexit@__crt_cached_ptd_host@@QAEPAU__acrt_ptd@@XZ 1005dda0 f i libucrtd:invalid_parameter.obj
 0001:0005cdc0       ?try_synchronize_per_thread_data@__crt_cached_ptd_host@@AAEPAU__acrt_ptd@@XZ 1005ddc0 f i libucrtd:invalid_parameter.obj
 0001:0005cdf0       ?value@?$dual_state_global@P6AXPB_W00II@Z@__crt_state_management@@QAEAAP6AXPB_W00II@ZAAV__crt_cached_ptd_host@@@Z 1005ddf0 f i libucrtd:invalid_parameter.obj
 0001:0005ce10       ?value@?$dual_state_global@P6AXPB_W00II@Z@__crt_state_management@@QAEAAP6AXPB_W00II@ZXZ 1005de10 f i libucrtd:invalid_parameter.obj
 0001:0005ce30       ___acrt_call_reportfault   1005de30 f   libucrtd:invalid_parameter.obj
 0001:0005cf90       ___acrt_initialize_invalid_parameter_handler 1005df90 f   libucrtd:invalid_parameter.obj
 0001:0005cfc0       __get_invalid_parameter_handler 1005dfc0 f   libucrtd:invalid_parameter.obj
 0001:0005cfe0       __get_thread_local_invalid_parameter_handler 1005dfe0 f   libucrtd:invalid_parameter.obj
 0001:0005d010       __invalid_parameter        1005e010 f   libucrtd:invalid_parameter.obj
 0001:0005d050       __invalid_parameter_internal 1005e050 f   libucrtd:invalid_parameter.obj
 0001:0005d120       __invalid_parameter_noinfo 1005e120 f   libucrtd:invalid_parameter.obj
 0001:0005d140       __invalid_parameter_noinfo_noreturn 1005e140 f   libucrtd:invalid_parameter.obj
 0001:0005d170       __invoke_watson            1005e170 f   libucrtd:invalid_parameter.obj
 0001:0005d1b0       __set_invalid_parameter_handler 1005e1b0 f   libucrtd:invalid_parameter.obj
 0001:0005d200       __set_thread_local_invalid_parameter_handler 1005e200 f   libucrtd:invalid_parameter.obj
 0001:0005d230       ??$is_overflow_condition@_K@__crt_strtox@@YA_NI_K@Z 1005e230 f i libucrtd:atox.obj
 0001:0005d2c0       ??$make_c_string_character_source@D$$T@__crt_strtox@@YA?AV?$c_string_character_source@D@0@QBD$$T@Z 1005e2c0 f i libucrtd:atox.obj
 0001:0005d2e0       ??$make_c_string_character_source@_W$$T@__crt_strtox@@YA?AV?$c_string_character_source@_W@0@QB_W$$T@Z 1005e2e0 f i libucrtd:atox.obj
 0001:0005d300       ??$parse_integer@KV?$c_string_character_source@D@__crt_strtox@@$00@__crt_strtox@@YAKAAV__crt_cached_ptd_host@@V?$c_string_character_source@D@0@H_N@Z 1005e300 f i libucrtd:atox.obj
 0001:0005d660       ??$parse_integer@KV?$c_string_character_source@_W@__crt_strtox@@$00@__crt_strtox@@YAKAAV__crt_cached_ptd_host@@V?$c_string_character_source@_W@0@H_N@Z 1005e660 f i libucrtd:atox.obj
 0001:0005d9d0       ??$parse_integer@_KV?$c_string_character_source@D@__crt_strtox@@$00@__crt_strtox@@YA_KAAV__crt_cached_ptd_host@@V?$c_string_character_source@D@0@H_N@Z 1005e9d0 f i libucrtd:atox.obj
 0001:0005ddc0       ??$parse_integer@_KV?$c_string_character_source@_W@__crt_strtox@@$00@__crt_strtox@@YA_KAAV__crt_cached_ptd_host@@V?$c_string_character_source@_W@0@H_N@Z 1005edc0 f i libucrtd:atox.obj
 0001:0005e1b0       ??$parse_integer_from_string@JD$$T@__crt_strtox@@YAJQBD$$THQAU__crt_locale_pointers@@@Z 1005f1b0 f i libucrtd:atox.obj
 0001:0005e210       ??$parse_integer_from_string@J_W$$T@__crt_strtox@@YAJQB_W$$THQAU__crt_locale_pointers@@@Z 1005f210 f i libucrtd:atox.obj
 0001:0005e270       ??$parse_integer_from_string@_JD$$T@__crt_strtox@@YA_JQBD$$THQAU__crt_locale_pointers@@@Z 1005f270 f i libucrtd:atox.obj
 0001:0005e2d0       ??$parse_integer_from_string@_J_W$$T@__crt_strtox@@YA_JQB_W$$THQAU__crt_locale_pointers@@@Z 1005f2d0 f i libucrtd:atox.obj
 0001:0005e330       ?is_space@__crt_strtox@@YA_NDQAU__crt_locale_pointers@@@Z 1005f330 f i libucrtd:atox.obj
 0001:0005e370       ?is_space@__crt_strtox@@YA_N_WPAU__crt_locale_pointers@@@Z 1005f370 f i libucrtd:atox.obj
 0001:0005e3a0       ?maximum_signed_value@__crt_strtox@@YA_J_K@Z 1005f3a0 f i libucrtd:atox.obj
 0001:0005e3b0       ?minimum_signed_value@__crt_strtox@@YA_J_K@Z 1005f3b0 f i libucrtd:atox.obj
 0001:0005e3c0       __atoi64                   1005f3c0 f   libucrtd:atox.obj
 0001:0005e3e0       __atoi64_l                 1005f3e0 f   libucrtd:atox.obj
 0001:0005e400       __atoi_l                   1005f400 f   libucrtd:atox.obj
 0001:0005e420       __atol_l                   1005f420 f   libucrtd:atox.obj
 0001:0005e440       __atoll_l                  1005f440 f   libucrtd:atox.obj
 0001:0005e460       __wtoi                     1005f460 f   libucrtd:atox.obj
 0001:0005e480       __wtoi64                   1005f480 f   libucrtd:atox.obj
 0001:0005e4a0       __wtoi64_l                 1005f4a0 f   libucrtd:atox.obj
 0001:0005e4c0       __wtoi_l                   1005f4c0 f   libucrtd:atox.obj
 0001:0005e4e0       __wtol                     1005f4e0 f   libucrtd:atox.obj
 0001:0005e500       __wtol_l                   1005f500 f   libucrtd:atox.obj
 0001:0005e520       __wtoll                    1005f520 f   libucrtd:atox.obj
 0001:0005e540       __wtoll_l                  1005f540 f   libucrtd:atox.obj
 0001:0005e560       _atoi                      1005f560 f   libucrtd:atox.obj
 0001:0005e580       _atol                      1005f580 f   libucrtd:atox.obj
 0001:0005e5a0       _atoll                     1005f5a0 f   libucrtd:atox.obj
 0001:0005e5c0       _strncmp                   1005f5c0 f   libucrtd:strncmp.obj
 0001:0005e640       _wcsncmp                   1005f640 f   libucrtd:wcsncmp.obj
 0001:0005e850       ___acrt_report_runtime_error 1005f850 f   libucrtd:report_runtime_error.obj
 0001:0005ea40       __query_app_type           1005fa40 f   libucrtd:report_runtime_error.obj
 0001:0005ea50       __set_app_type             1005fa50 f   libucrtd:report_runtime_error.obj
 0001:0005fb70       __i64toa                   10060b70 f   libucrtd:xtoa.obj
 0001:0005fbc0       __i64toa_s                 10060bc0 f   libucrtd:xtoa.obj
 0001:0005fc10       __i64tow                   10060c10 f   libucrtd:xtoa.obj
 0001:0005fc60       __i64tow_s                 10060c60 f   libucrtd:xtoa.obj
 0001:0005fcb0       __itoa                     10060cb0 f   libucrtd:xtoa.obj
 0001:0005fd00       __itoa_s                   10060d00 f   libucrtd:xtoa.obj
 0001:0005fd50       __itow                     10060d50 f   libucrtd:xtoa.obj
 0001:0005fda0       __itow_s                   10060da0 f   libucrtd:xtoa.obj
 0001:0005fdf0       __ltoa                     10060df0 f   libucrtd:xtoa.obj
 0001:0005fe40       __ltoa_s                   10060e40 f   libucrtd:xtoa.obj
 0001:0005fe90       __ltow                     10060e90 f   libucrtd:xtoa.obj
 0001:0005fee0       __ltow_s                   10060ee0 f   libucrtd:xtoa.obj
 0001:0005ff30       __ui64toa                  10060f30 f   libucrtd:xtoa.obj
 0001:0005ff60       __ui64toa_s                10060f60 f   libucrtd:xtoa.obj
 0001:0005ff90       __ui64tow                  10060f90 f   libucrtd:xtoa.obj
 0001:0005ffc0       __ui64tow_s                10060fc0 f   libucrtd:xtoa.obj
 0001:0005fff0       __ultoa                    10060ff0 f   libucrtd:xtoa.obj
 0001:00060020       __ultoa_s                  10061020 f   libucrtd:xtoa.obj
 0001:00060050       __ultow                    10061050 f   libucrtd:xtoa.obj
 0001:00060080       __ultow_s                  10061080 f   libucrtd:xtoa.obj
 0001:000600b0       __set_error_mode           100610b0 f   libucrtd:set_error_mode.obj
 0001:000605b0       _wcscat_s                  100615b0 f   libucrtd:wcscat_s.obj
 0001:00060ab0       _wcsncat_s                 10061ab0 f   libucrtd:wcsncat_s.obj
 0001:000617a0       ??1?$__crt_simd_cleanup_guard@$00@@QAE@XZ 100627a0 f i libucrtd:strnlen.obj
 0001:000617b0       ??1?$__crt_simd_cleanup_guard@$0A@@@QAE@XZ 100627b0 f i libucrtd:strnlen.obj
 0001:000617c0       ?compare_equals@?$__crt_simd_traits@$00E@@SA?AT__m256i@@T2@0@Z 100627c0 f i libucrtd:strnlen.obj
 0001:00061800       ?compare_equals@?$__crt_simd_traits@$00G@@SA?AT__m256i@@T2@0@Z 10062800 f i libucrtd:strnlen.obj
 0001:00061840       ?compare_equals@?$__crt_simd_traits@$0A@E@@SA?AT__m128i@@T2@0@Z 10062840 f i libucrtd:strnlen.obj
 0001:00061880       ?compare_equals@?$__crt_simd_traits@$0A@G@@SA?AT__m128i@@T2@0@Z 10062880 f i libucrtd:strnlen.obj
 0001:000618c0       ?compute_byte_mask@?$__crt_simd_pack_traits@$00@@SAHT__m256i@@@Z 100628c0 f i libucrtd:strnlen.obj
 0001:000618f0       ?compute_byte_mask@?$__crt_simd_pack_traits@$0A@@@SAHT__m128i@@@Z 100628f0 f i libucrtd:strnlen.obj
 0001:00061920       ?get_zero_pack@?$__crt_simd_pack_traits@$00@@SA?AT__m256i@@XZ 10062920 f i libucrtd:strnlen.obj
 0001:00061950       ?get_zero_pack@?$__crt_simd_pack_traits@$0A@@@SA?AT__m128i@@XZ 10062950 f i libucrtd:strnlen.obj
 0001:00061980       _strnlen                   10062980 f   libucrtd:strnlen.obj
 0001:000619a0       _wcslen                    100629a0 f   libucrtd:strnlen.obj
 0001:000619c0       _wcsnlen                   100629c0 f   libucrtd:strnlen.obj
 0001:00061ea0       _strncat_s                 10062ea0 f   libucrtd:strncat_s.obj
 0001:00061ec0       ??$__acrt_convert_wcs_mbs_cp@_WDV<lambda_0fec1a7b3f42a53036604e18c2d5e07e>@@U__crt_win32_buffer_no_resizing@@@@YAHQB_WAAV?$__crt_win32_buffer@DU__crt_win32_buffer_no_resizing@@@@ABV<lambda_0fec1a7b3f42a53036604e18c2d5e07e>@@I@Z 10062ec0 f i libucrtd:getmodulefilenamea.obj
 0001:00062000       ??$__acrt_wcs_to_mbs_cp@U__crt_win32_buffer_no_resizing@@@@YAHQB_WAAV?$__crt_win32_buffer@DU__crt_win32_buffer_no_resizing@@@@I@Z 10063000 f i libucrtd:getmodulefilenamea.obj
 0001:00062030       ??0?$__crt_win32_buffer@DU__crt_win32_buffer_no_resizing@@@@QAE@QADI@Z 10063030 f i libucrtd:getmodulefilenamea.obj
 0001:00062080       ??1?$__crt_win32_buffer@DU__crt_win32_buffer_no_resizing@@@@QAE@XZ 10063080 f i libucrtd:getmodulefilenamea.obj
 0001:000620d0       ??R<lambda_0fec1a7b3f42a53036604e18c2d5e07e>@@QBE@IQB_WQADI@Z 100630d0 f i libucrtd:getmodulefilenamea.obj
 0001:00062100       ?__acrt_get_utf8_acp_compatibility_codepage@@YAIXZ 10063100 f i libucrtd:getmodulefilenamea.obj
 0001:00062190       ?_deallocate@?$__crt_win32_buffer@DU__crt_win32_buffer_no_resizing@@@@AAEXXZ 10063190 f i libucrtd:getmodulefilenamea.obj
 0001:000621e0       ?allocate@?$__crt_win32_buffer@DU__crt_win32_buffer_no_resizing@@@@QAEHI@Z 100631e0 f i libucrtd:getmodulefilenamea.obj
 0001:00062250       ?allocate@__crt_win32_buffer_no_resizing@@SAHQAPAXIABV__crt_win32_buffer_empty_debug_info@@@Z 10063250 f i libucrtd:getmodulefilenamea.obj
 0001:00062270       ?capacity@?$__crt_win32_buffer@DU__crt_win32_buffer_no_resizing@@@@QBEIXZ 10063270 f i libucrtd:getmodulefilenamea.obj
 0001:00062290       ?data@?$__crt_win32_buffer@DU__crt_win32_buffer_no_resizing@@@@QAEPADXZ 10063290 f i libucrtd:getmodulefilenamea.obj
 0001:000622b0       ?deallocate@__crt_win32_buffer_no_resizing@@SAXQAXABV__crt_win32_buffer_empty_debug_info@@@Z 100632b0 f i libucrtd:getmodulefilenamea.obj
 0001:000622c0       ?debug_info@?$__crt_win32_buffer@DU__crt_win32_buffer_no_resizing@@@@QBEABV__crt_win32_buffer_empty_debug_info@@XZ 100632c0 f i libucrtd:getmodulefilenamea.obj
 0001:000622d0       ?set_to_nullptr@?$__crt_win32_buffer@DU__crt_win32_buffer_no_resizing@@@@QAEXXZ 100632d0 f i libucrtd:getmodulefilenamea.obj
 0001:00062310       ?size@?$__crt_win32_buffer@DU__crt_win32_buffer_no_resizing@@@@QAEXI@Z 10063310 f i libucrtd:getmodulefilenamea.obj
 0001:00062330       ?size@?$__crt_win32_buffer@DU__crt_win32_buffer_no_resizing@@@@QBEIXZ 10063330 f i libucrtd:getmodulefilenamea.obj
 0001:00062350       ___acrt_GetModuleFileNameA 10063350 f   libucrtd:getmodulefilenamea.obj
 0001:00062630       ??$message_box@$$TABQBDABQBDK@?$__crt_char_traits@D@@SAH$$QA$$TABQBD1$$QAK@Z 10063630 f i libucrtd:crtmbox.obj
 0001:00062660       ??$message_box@$$TABQB_WABQB_WK@?$__crt_char_traits@_W@@SAH$$QA$$TABQB_W1$$QAK@Z 10063660 f i libucrtd:crtmbox.obj
 0001:00062690       ??$message_box@PAUHWND__@@ABQBDABQBDABI@?$__crt_char_traits@D@@SAH$$QAPAUHWND__@@ABQBD1ABI@Z 10063690 f i libucrtd:crtmbox.obj
 0001:000626c0       ??$message_box@PAUHWND__@@ABQB_WABQB_WABI@?$__crt_char_traits@_W@@SAH$$QAPAUHWND__@@ABQB_W1ABI@Z 100636c0 f i libucrtd:crtmbox.obj
 0001:000626f0       ??$output_debug_string@ABQBD@?$__crt_char_traits@D@@SAXABQBD@Z 100636f0 f i libucrtd:crtmbox.obj
 0001:00062710       ??$output_debug_string@ABQB_W@?$__crt_char_traits@_W@@SAXABQB_W@Z 10063710 f i libucrtd:crtmbox.obj
 0001:00062730       ___acrt_show_narrow_message_box 10063730 f   libucrtd:crtmbox.obj
 0001:00062750       ___acrt_show_wide_message_box 10063750 f   libucrtd:crtmbox.obj
 0001:00062ba0       ??0__crt_stdio_stream@@QAE@QAU__crt_stdio_stream_data@@@Z 10063ba0 f i libucrtd:fflush.obj
 0001:00062de0       ?__acrt_stdio_reset_buffer@@YAXV__crt_stdio_stream@@@Z 10063de0 f i libucrtd:fflush.obj
 0001:00062fb0       ?has_all_of@__crt_stdio_stream@@QBE_NJ@Z 10063fb0 f i libucrtd:fflush.obj
 0001:00063080       ?set_flags@__crt_stdio_stream@@QBE_NJ@Z 10064080 f i libucrtd:fflush.obj
 0001:000630d0       ?unset_flags@__crt_stdio_stream@@QBE_NJ@Z 100640d0 f i libucrtd:fflush.obj
 0001:00063120       ___acrt_stdio_flush_nolock 10064120 f   libucrtd:fflush.obj
 0001:00063200       __fflush_nolock            10064200 f   libucrtd:fflush.obj
 0001:00063240       __flushall                 10064240 f   libucrtd:fflush.obj
 0001:00063260       _fflush                    10064260 f   libucrtd:fflush.obj
 0001:00063860       _setvbuf                   10064860 f   libucrtd:setvbuf.obj
 0001:000638a0       ??$?B$$A6AXH@Z@__crt_fast_encoded_nullptr_t@@QBEP6AXH@ZXZ 100648a0 f i libucrtd:signal.obj
 0001:000639c0       ??$__crt_fast_decode_pointer@P6AXH@Z@@YAP6AXH@ZQ6AXH@Z@Z 100649c0 f i libucrtd:signal.obj
 0001:000639f0       ??$__crt_fast_encode_pointer@P6AXH@Z@@YAP6AXH@ZQ6AXH@Z@Z 100649f0 f i libucrtd:signal.obj
 0001:00063ca0       ?initialize@?$dual_state_global@P6AXH@Z@__crt_state_management@@QAEXQ6AXH@Z@Z 10064ca0 f i libucrtd:signal.obj
 0001:00063de0       ?value@?$dual_state_global@P6AXH@Z@__crt_state_management@@QAEAAP6AXH@ZXZ 10064de0 f i libucrtd:signal.obj
 0001:00063e00       ___acrt_get_sigabrt_handler 10064e00 f   libucrtd:signal.obj
 0001:00063e20       ___acrt_initialize_signal_handlers 10064e20 f   libucrtd:signal.obj
 0001:00063e60       ___fpecode                 10064e60 f   libucrtd:signal.obj
 0001:00063e70       ___pxcptinfoptrs           10064e70 f   libucrtd:signal.obj
 0001:00063e80       _raise                     10064e80 f   libucrtd:signal.obj
 0001:00064260       _signal                    10065260 f   libucrtd:signal.obj
 0001:000644f0       ??$?RU__acrt_ptd@@@__crt_internal_free_policy@@QBEXQBU__acrt_ptd@@@Z 100654f0 f i libucrtd:per_thread_data.obj
 0001:00064a60       ??0?$__crt_unique_heap_ptr@U__acrt_ptd@@U__crt_internal_free_policy@@@@QAE@QAU__acrt_ptd@@@Z 10065a60 f i libucrtd:per_thread_data.obj
 0001:00064a80       ??1?$__crt_unique_heap_ptr@U__acrt_ptd@@U__crt_internal_free_policy@@@@QAE@XZ 10065a80 f i libucrtd:per_thread_data.obj
 0001:00064aa0       ??B?$__crt_unique_heap_ptr@U__acrt_ptd@@U__crt_internal_free_policy@@@@QBE_NXZ 10065aa0 f i libucrtd:per_thread_data.obj
 0001:00064db0       ?dangerous_get_state_array@?$dual_state_global@PAU__crt_locale_data@@@__crt_state_management@@QAEPAPAU__crt_locale_data@@XZ 10065db0 f i libucrtd:per_thread_data.obj
 0001:00064f50       ?detach@?$__crt_unique_heap_ptr@U__acrt_ptd@@U__crt_internal_free_policy@@@@QAEPAU__acrt_ptd@@XZ 10065f50 f i libucrtd:per_thread_data.obj
 0001:00064f80       ?get@?$__crt_unique_heap_ptr@U__acrt_ptd@@U__crt_internal_free_policy@@@@QBEPAU__acrt_ptd@@XZ 10065f80 f i libucrtd:per_thread_data.obj
 0001:00065120       ?is_valid@?$__crt_unique_heap_ptr@U__acrt_ptd@@U__crt_internal_free_policy@@@@QBE_NXZ 10066120 f i libucrtd:per_thread_data.obj
 0001:00065150       ?release@?$__crt_unique_heap_ptr@U__acrt_ptd@@U__crt_internal_free_policy@@@@QAEXXZ 10066150 f i libucrtd:per_thread_data.obj
 0001:00065240       ?value@?$dual_state_global@PAU__crt_locale_data@@@__crt_state_management@@QAEAAPAU__crt_locale_data@@XZ 10066240 f i libucrtd:per_thread_data.obj
 0001:00065260       ___acrt_freeptd            10066260 f   libucrtd:per_thread_data.obj
 0001:00065290       ___acrt_getptd             10066290 f   libucrtd:per_thread_data.obj
 0001:000652b0       ___acrt_getptd_head        100662b0 f   libucrtd:per_thread_data.obj
 0001:000652d0       ___acrt_getptd_noexit      100662d0 f   libucrtd:per_thread_data.obj
 0001:000652e0       ___acrt_getptd_noexit_explicit 100662e0 f   libucrtd:per_thread_data.obj
 0001:00065300       ___acrt_initialize_ptd     10066300 f   libucrtd:per_thread_data.obj
 0001:00065340       ___acrt_uninitialize_ptd   10066340 f   libucrtd:per_thread_data.obj
 0001:00065370       ___threadhandle            10066370 f   libucrtd:per_thread_data.obj
 0001:00065380       ___threadid                10066380 f   libucrtd:per_thread_data.obj
 0001:000653b0       ??$?B$$A6GHPA_WKJ@Z@__crt_fast_encoded_nullptr_t@@QBEP6GHPA_WKJ@ZXZ 100663b0 f i libucrtd:winapi_thunks.obj
 0001:000654d0       ??$__crt_fast_decode_pointer@P6GHPA_WKJ@Z@@YAP6GHPA_WKJ@ZQ6GH0KJ@Z@Z 100664d0 f i libucrtd:winapi_thunks.obj
 0001:00065500       ??$__crt_fast_decode_pointer@PAX@@YAPAXQAX@Z 10066500 f i libucrtd:winapi_thunks.obj
 0001:00065530       ??$__crt_fast_encode_pointer@P6GHPA_WKJ@Z@@YAP6GHPA_WKJ@ZQ6GH0KJ@Z@Z 10066530 f i libucrtd:winapi_thunks.obj
 0001:00065eb0       _GetCurrentThreadEffectiveToken 10066eb0 f i libucrtd:winapi_thunks.obj
 0001:00065ec0       ___acrt_AppPolicyGetProcessTerminationMethodInternal@4 10066ec0 f   libucrtd:winapi_thunks.obj
 0001:00065f10       ___acrt_AppPolicyGetShowDeveloperDiagnosticInternal@4 10066f10 f   libucrtd:winapi_thunks.obj
 0001:00065f60       ___acrt_AppPolicyGetThreadInitializationTypeInternal@4 10066f60 f   libucrtd:winapi_thunks.obj
 0001:00065fb0       ___acrt_AppPolicyGetWindowingModelInternal@4 10066fb0 f   libucrtd:winapi_thunks.obj
 0001:00066000       ___acrt_AreFileApisANSI@0  10067000 f   libucrtd:winapi_thunks.obj
 0001:00066040       ___acrt_CompareStringEx@36 10067040 f   libucrtd:winapi_thunks.obj
 0001:000660d0       ___acrt_EnumSystemLocalesEx@16 100670d0 f   libucrtd:winapi_thunks.obj
 0001:00066130       ___acrt_FlsAlloc@4         10067130 f   libucrtd:winapi_thunks.obj
 0001:00066170       ___acrt_FlsFree@4          10067170 f   libucrtd:winapi_thunks.obj
 0001:000661c0       ___acrt_FlsGetValue@4      100671c0 f   libucrtd:winapi_thunks.obj
 0001:00066210       ___acrt_FlsSetValue@8      10067210 f   libucrtd:winapi_thunks.obj
 0001:00066260       ___acrt_GetDateFormatEx@28 10067260 f   libucrtd:winapi_thunks.obj
 0001:000662e0       ___acrt_GetEnabledXStateFeatures@0 100672e0 f   libucrtd:winapi_thunks.obj
 0001:00066320       ___acrt_GetLocaleInfoEx@16 10067320 f   libucrtd:winapi_thunks.obj
 0001:00066390       ___acrt_GetSystemTimePreciseAsFileTime@4 10067390 f   libucrtd:winapi_thunks.obj
 0001:000663e0       ___acrt_GetTempPath2W@8    100673e0 f   libucrtd:winapi_thunks.obj
 0001:00066430       ___acrt_GetTimeFormatEx@24 10067430 f   libucrtd:winapi_thunks.obj
 0001:000664b0       ___acrt_GetUserDefaultLocaleName@8 100674b0 f   libucrtd:winapi_thunks.obj
 0001:00066510       ___acrt_GetXStateFeaturesMask@8 10067510 f   libucrtd:winapi_thunks.obj
 0001:00066560       ___acrt_InitializeCriticalSectionEx@12 10067560 f   libucrtd:winapi_thunks.obj
 0001:000665b0       ___acrt_IsValidLocaleName@4 100675b0 f   libucrtd:winapi_thunks.obj
 0001:00066600       ___acrt_LCIDToLocaleName@16 10067600 f   libucrtd:winapi_thunks.obj
 0001:00066660       ___acrt_LCMapStringEx@36   10067660 f   libucrtd:winapi_thunks.obj
 0001:000666e0       ___acrt_LocaleNameToLCID@8 100676e0 f   libucrtd:winapi_thunks.obj
 0001:00066730       ___acrt_LocateXStateFeature@12 10067730 f   libucrtd:winapi_thunks.obj
 0001:00066780       ___acrt_MessageBoxA@16     10067780 f   libucrtd:winapi_thunks.obj
 0001:000667d0       ___acrt_MessageBoxW@16     100677d0 f   libucrtd:winapi_thunks.obj
 0001:00066820       ___acrt_RoInitialize@4     10067820 f   libucrtd:winapi_thunks.obj
 0001:00066860       ___acrt_RoUninitialize@0   10067860 f   libucrtd:winapi_thunks.obj
 0001:00066890       ___acrt_RtlGenRandom@8     10067890 f   libucrtd:winapi_thunks.obj
 0001:000668e0       ___acrt_SetThreadStackGuarantee@4 100678e0 f   libucrtd:winapi_thunks.obj
 0001:00066920       ___acrt_can_show_message_box 10067920 f   libucrtd:winapi_thunks.obj
 0001:00066960       ___acrt_can_use_vista_locale_apis 10067960 f   libucrtd:winapi_thunks.obj
 0001:00066990       ___acrt_can_use_xstate_apis 10067990 f   libucrtd:winapi_thunks.obj
 0001:000669c0       ___acrt_eagerly_load_locale_apis 100679c0 f   libucrtd:winapi_thunks.obj
 0001:00066a00       ___acrt_get_parent_window  10067a00 f   libucrtd:winapi_thunks.obj
 0001:00066a70       ___acrt_initialize_winapi_thunks 10067a70 f   libucrtd:winapi_thunks.obj
 0001:00066ae0       ___acrt_is_interactive     10067ae0 f   libucrtd:winapi_thunks.obj
 0001:00066b90       ___acrt_uninitialize_winapi_thunks 10067b90 f   libucrtd:winapi_thunks.obj
 0001:00066c00       ?is_in_use@__crt_stdio_stream@@QBE_NXZ 10067c00 f i libucrtd:closeall.obj
 0001:00066c40       __fcloseall                10067c40 f   libucrtd:closeall.obj
 0001:00066d70       ?has_crt_buffer@__crt_stdio_stream@@QBE_NXZ 10067d70 f i libucrtd:_freebuf.obj
 0001:00066d90       ___acrt_stdio_free_buffer_nolock 10067d90 f   libucrtd:_freebuf.obj
 0001:00067100       ___acrt_initialize_lowio   10068100 f   libucrtd:ioinit.obj
 0001:000671a0       ___acrt_uninitialize_lowio 100681a0 f   libucrtd:ioinit.obj
 0001:00067200       __CrtGetDebugFillThreshold 10068200 f   libucrtd:debug_fill_threshold.obj
 0001:00067210       __CrtSetDebugFillThreshold 10068210 f   libucrtd:debug_fill_threshold.obj
 0001:00067230       ?value@?$dual_state_global@PAU__crt_multibyte_data@@@__crt_state_management@@QAEAAPAU__crt_multibyte_data@@XZ 10068230 f i libucrtd:locale_update.obj
 0001:00067250       ?value_explicit@?$dual_state_global@PAU__crt_locale_data@@@__crt_state_management@@QAEAAPAU__crt_locale_data@@I@Z 10068250 f i libucrtd:locale_update.obj
 0001:00067270       ?value_explicit@?$dual_state_global@PAU__crt_multibyte_data@@@__crt_state_management@@QAEAAPAU__crt_multibyte_data@@I@Z 10068270 f i libucrtd:locale_update.obj
 0001:00067290       ___acrt_should_sync_with_global_locale 10068290 f i libucrtd:locale_update.obj
 0001:000672c0       ___acrt_update_locale_info 100682c0 f   libucrtd:locale_update.obj
 0001:00067300       ___acrt_update_locale_info_explicit 10068300 f   libucrtd:locale_update.obj
 0001:00067340       ___acrt_update_multibyte_info 10068340 f   libucrtd:locale_update.obj
 0001:00067380       ___acrt_update_multibyte_info_explicit 10068380 f   libucrtd:locale_update.obj
 0001:000673c0       ?__acrt_fp_classify@@YA?AW4__acrt_fp_class@@ABN@Z 100683c0 f i libucrtd:cvt.obj
 0001:000674e0       ?__acrt_fp_is_negative@@YA_NABN@Z 100684e0 f i libucrtd:cvt.obj
 0001:000686f0       ?strrchr@@YAPADQADH@Z      100696f0 f i libucrtd:cvt.obj
 0001:00068710       ___acrt_fp_format          10069710 f   libucrtd:cvt.obj
 0001:00068b90       ?value_or@?$cached@H@__crt_cached_ptd_host@@QBEHH@Z 10069b90 f i libucrtd:wctomb.obj
 0001:00068bc0       __wctomb_internal          10069bc0 f   libucrtd:wctomb.obj
 0001:00068f40       __wctomb_l                 10069f40 f   libucrtd:wctomb.obj
 0001:00068fc0       __wctomb_s_l               10069fc0 f   libucrtd:wctomb.obj
 0001:00069010       _wctomb                    1006a010 f   libucrtd:wctomb.obj
 0001:00069080       _wctomb_s                  1006a080 f   libucrtd:wctomb.obj
 0001:000690d0       __isleadbyte_fast_internal 1006a0d0 f i libucrtd:mbtowc.obj
 0001:000690f0       __mbtowc_internal          1006a0f0 f   libucrtd:mbtowc.obj
 0001:00069380       __mbtowc_l                 1006a380 f   libucrtd:mbtowc.obj
 0001:000693c0       _mbtowc                    1006a3c0 f   libucrtd:mbtowc.obj
 0001:00069400       ?lowio_handle@__crt_stdio_stream@@QBEHXZ 1006a400 f i libucrtd:fileno.obj
 0001:00069420       __fileno                   1006a420 f   libucrtd:fileno.obj
 0001:000694c0       __get_printf_count_output  1006a4c0 f   libucrtd:printf_count_output.obj
 0001:000694f0       __set_printf_count_output  1006a4f0 f   libucrtd:printf_count_output.obj
 0001:000696f0       __fputwc_nolock            1006a6f0 f   libucrtd:fputwc.obj
 0001:00069730       __fputwc_nolock_internal   1006a730 f   libucrtd:fputwc.obj
 0001:00069940       __fputwchar                1006a940 f   libucrtd:fputwc.obj
 0001:00069960       __putwc_nolock             1006a960 f   libucrtd:fputwc.obj
 0001:00069980       _fputwc                    1006a980 f   libucrtd:fputwc.obj
 0001:000699c0       _putwc                     1006a9c0 f   libucrtd:fputwc.obj
 0001:000699e0       _putwchar                  1006a9e0 f   libucrtd:fputwc.obj
 0001:00069c60       __fputc_nolock             1006ac60 f   libucrtd:fputc.obj
 0001:00069ca0       __fputc_nolock_internal    1006aca0 f   libucrtd:fputc.obj
 0001:00069d30       __fputchar                 1006ad30 f   libucrtd:fputc.obj
 0001:00069d50       __putc_nolock              1006ad50 f   libucrtd:fputc.obj
 0001:00069d70       _fputc                     1006ad70 f   libucrtd:fputc.obj
 0001:00069db0       _putc                      1006adb0 f   libucrtd:fputc.obj
 0001:00069dd0       _putchar                   1006add0 f   libucrtd:fputc.obj
 0001:00069df0       ?has_temporary_buffer@__crt_stdio_stream@@QBE_NXZ 1006adf0 f i libucrtd:_sftbuf.obj
 0001:00069e10       ___acrt_should_use_temporary_buffer 1006ae10 f   libucrtd:_sftbuf.obj
 0001:00069e60       ___acrt_stdio_begin_temporary_buffering_nolock 1006ae60 f   libucrtd:_sftbuf.obj
 0001:0006a030       ___acrt_stdio_end_temporary_buffering_nolock 1006b030 f   libucrtd:_sftbuf.obj
 0001:0006a0c0       ??$?RU__crt_locale_data@@@__crt_internal_free_policy@@QBEXQBU__crt_locale_data@@@Z 1006b0c0 f i libucrtd:wsetlocale.obj
 0001:0006a0e0       ??$?RU__crt_locale_pointers@@@__crt_internal_free_policy@@QBEXQBU__crt_locale_pointers@@@Z 1006b0e0 f i libucrtd:wsetlocale.obj
 0001:0006a100       ??$?RU__crt_multibyte_data@@@__crt_internal_free_policy@@QBEXQBU__crt_multibyte_data@@@Z 1006b100 f i libucrtd:wsetlocale.obj
 0001:0006a7e0       ??0?$__crt_unique_heap_ptr@U__crt_locale_data@@U__crt_internal_free_policy@@@@QAE@QAU__crt_locale_data@@@Z 1006b7e0 f i libucrtd:wsetlocale.obj
 0001:0006a800       ??0?$__crt_unique_heap_ptr@U__crt_locale_pointers@@U__crt_internal_free_policy@@@@QAE@QAU__crt_locale_pointers@@@Z 1006b800 f i libucrtd:wsetlocale.obj
 0001:0006a820       ??0?$__crt_unique_heap_ptr@U__crt_multibyte_data@@U__crt_internal_free_policy@@@@QAE@QAU__crt_multibyte_data@@@Z 1006b820 f i libucrtd:wsetlocale.obj
 0001:0006a840       ??0_expandlocale_locale_name_cache@@QAE@QA_WIQAU__crt_qualified_locale_data@@@Z 1006b840 f i libucrtd:wsetlocale.obj
 0001:0006a8b0       ??1?$__crt_unique_heap_ptr@U__crt_locale_data@@U__crt_internal_free_policy@@@@QAE@XZ 1006b8b0 f i libucrtd:wsetlocale.obj
 0001:0006a8d0       ??1?$__crt_unique_heap_ptr@U__crt_locale_pointers@@U__crt_internal_free_policy@@@@QAE@XZ 1006b8d0 f i libucrtd:wsetlocale.obj
 0001:0006a8f0       ??1?$__crt_unique_heap_ptr@U__crt_multibyte_data@@U__crt_internal_free_policy@@@@QAE@XZ 1006b8f0 f i libucrtd:wsetlocale.obj
 0001:0006a910       ??1_expandlocale_locale_name_cache@@QAE@XZ 1006b910 f i libucrtd:wsetlocale.obj
 0001:0006a970       ??B?$__crt_unique_heap_ptr@U__crt_locale_data@@U__crt_internal_free_policy@@@@QBE_NXZ 1006b970 f i libucrtd:wsetlocale.obj
 0001:0006a990       ??B?$__crt_unique_heap_ptr@U__crt_locale_pointers@@U__crt_internal_free_policy@@@@QBE_NXZ 1006b990 f i libucrtd:wsetlocale.obj
 0001:0006a9b0       ??B?$__crt_unique_heap_ptr@U__crt_multibyte_data@@U__crt_internal_free_policy@@@@QBE_NXZ 1006b9b0 f i libucrtd:wsetlocale.obj
 0001:0006ada0       ?commit_locale_name@_expandlocale_locale_name_cache@@QAEXQB_WI@Z 1006bda0 f i libucrtd:wsetlocale.obj
 0001:0006ae00       ?commit_locale_name_cache_already_updated@_expandlocale_locale_name_cache@@QAEXQB_WI@Z 1006be00 f i libucrtd:wsetlocale.obj
 0001:0006ae60       ?detach@?$__crt_unique_heap_ptr@U__crt_locale_data@@U__crt_internal_free_policy@@@@QAEPAU__crt_locale_data@@XZ 1006be60 f i libucrtd:wsetlocale.obj
 0001:0006ae90       ?detach@?$__crt_unique_heap_ptr@U__crt_locale_pointers@@U__crt_internal_free_policy@@@@QAEPAU__crt_locale_pointers@@XZ 1006be90 f i libucrtd:wsetlocale.obj
 0001:0006aec0       ?detach@?$__crt_unique_heap_ptr@U__crt_multibyte_data@@U__crt_internal_free_policy@@@@QAEPAU__crt_multibyte_data@@XZ 1006bec0 f i libucrtd:wsetlocale.obj
 0001:0006aef0       ?get@?$__crt_unique_heap_ptr@U__crt_locale_data@@U__crt_internal_free_policy@@@@QBEPAU__crt_locale_data@@XZ 1006bef0 f i libucrtd:wsetlocale.obj
 0001:0006af10       ?get@?$__crt_unique_heap_ptr@U__crt_locale_pointers@@U__crt_internal_free_policy@@@@QBEPAU__crt_locale_pointers@@XZ 1006bf10 f i libucrtd:wsetlocale.obj
 0001:0006af30       ?get@?$__crt_unique_heap_ptr@U__crt_multibyte_data@@U__crt_internal_free_policy@@@@QBEPAU__crt_multibyte_data@@XZ 1006bf30 f i libucrtd:wsetlocale.obj
 0001:0006af50       ?is_valid@?$__crt_unique_heap_ptr@U__crt_locale_data@@U__crt_internal_free_policy@@@@QBE_NXZ 1006bf50 f i libucrtd:wsetlocale.obj
 0001:0006af80       ?is_valid@?$__crt_unique_heap_ptr@U__crt_locale_pointers@@U__crt_internal_free_policy@@@@QBE_NXZ 1006bf80 f i libucrtd:wsetlocale.obj
 0001:0006afb0       ?is_valid@?$__crt_unique_heap_ptr@U__crt_multibyte_data@@U__crt_internal_free_policy@@@@QBE_NXZ 1006bfb0 f i libucrtd:wsetlocale.obj
 0001:0006afe0       ?release@?$__crt_unique_heap_ptr@U__crt_locale_data@@U__crt_internal_free_policy@@@@QAEXXZ 1006bfe0 f i libucrtd:wsetlocale.obj
 0001:0006b010       ?release@?$__crt_unique_heap_ptr@U__crt_locale_pointers@@U__crt_internal_free_policy@@@@QAEXXZ 1006c010 f i libucrtd:wsetlocale.obj
 0001:0006b040       ?release@?$__crt_unique_heap_ptr@U__crt_multibyte_data@@U__crt_internal_free_policy@@@@QAEXXZ 1006c040 f i libucrtd:wsetlocale.obj
 0001:0006b070       ___acrt_copy_locale_name   1006c070 f   libucrtd:wsetlocale.obj
 0001:0006b110       ___acrt_set_locale_changed 1006c110 f   libucrtd:wsetlocale.obj
 0001:0006b130       ___acrt_uninitialize_locale 1006c130 f   libucrtd:wsetlocale.obj
 0001:0006b150       ___ascii_tolower           1006c150 f i libucrtd:wsetlocale.obj
 0001:0006b170       ___ascii_towlower          1006c170 f i libucrtd:wsetlocale.obj
 0001:0006b190       ___lc_lctowcs              1006c190 f   libucrtd:wsetlocale.obj
 0001:0006b240       ___lc_wcstolc              1006c240 f   libucrtd:wsetlocale.obj
 0001:0006b470       __configthreadlocale       1006c470 f   libucrtd:wsetlocale.obj
 0001:0006b5f0       __create_locale            1006c5f0 f   libucrtd:wsetlocale.obj
 0001:0006bc30       __free_locale              1006cc30 f   libucrtd:wsetlocale.obj
 0001:0006bd60       __get_current_locale       1006cd60 f   libucrtd:wsetlocale.obj
 0001:0006be40       __wcreate_locale           1006ce40 f   libucrtd:wsetlocale.obj
 0001:0006c090       __wcscats                  1006d090 f   libucrtd:wsetlocale.obj
 0001:0006c110       __wsetlocale               1006d110 f   libucrtd:wsetlocale.obj
 0001:0006d890       ___p___mb_cur_max          1006e890 f   libucrtd:nlsdata.obj
 0001:0006d8d0       ___sys_errlist             1006e8d0 f   libucrtd:syserr.obj
 0001:0006d8e0       ___sys_nerr                1006e8e0 f   libucrtd:syserr.obj
 0001:0006d8f0       ??$?RU__crt_lowio_handle_data@@@__crt_internal_free_policy@@QBEXQBU__crt_lowio_handle_data@@@Z 1006e8f0 f i libucrtd:osfinfo.obj
 0001:0006d910       ??0?$__crt_unique_heap_ptr@U__crt_lowio_handle_data@@U__crt_internal_free_policy@@@@QAE@QAU__crt_lowio_handle_data@@@Z 1006e910 f i libucrtd:osfinfo.obj
 0001:0006d930       ??1?$__crt_unique_heap_ptr@U__crt_lowio_handle_data@@U__crt_internal_free_policy@@@@QAE@XZ 1006e930 f i libucrtd:osfinfo.obj
 0001:0006d950       ??B?$__crt_unique_heap_ptr@U__crt_lowio_handle_data@@U__crt_internal_free_policy@@@@QBE_NXZ 1006e950 f i libucrtd:osfinfo.obj
 0001:0006d970       ?detach@?$__crt_unique_heap_ptr@U__crt_lowio_handle_data@@U__crt_internal_free_policy@@@@QAEPAU__crt_lowio_handle_data@@XZ 1006e970 f i libucrtd:osfinfo.obj
 0001:0006d9a0       ?get@?$__crt_unique_heap_ptr@U__crt_lowio_handle_data@@U__crt_internal_free_policy@@@@QBEPAU__crt_lowio_handle_data@@XZ 1006e9a0 f i libucrtd:osfinfo.obj
 0001:0006d9c0       ?is_valid@?$__crt_unique_heap_ptr@U__crt_lowio_handle_data@@U__crt_internal_free_policy@@@@QBE_NXZ 1006e9c0 f i libucrtd:osfinfo.obj
 0001:0006d9f0       ?release@?$__crt_unique_heap_ptr@U__crt_lowio_handle_data@@U__crt_internal_free_policy@@@@QAEXXZ 1006e9f0 f i libucrtd:osfinfo.obj
 0001:0006da20       ___acrt_lowio_create_handle_array 1006ea20 f   libucrtd:osfinfo.obj
 0001:0006db80       ___acrt_lowio_destroy_handle_array 1006eb80 f   libucrtd:osfinfo.obj
 0001:0006dbe0       ___acrt_lowio_ensure_fh_exists 1006ebe0 f   libucrtd:osfinfo.obj
 0001:0006dd40       ___acrt_lowio_lock_fh      1006ed40 f   libucrtd:osfinfo.obj
 0001:0006dd70       ___acrt_lowio_set_os_handle 1006ed70 f   libucrtd:osfinfo.obj
 0001:0006de40       ___acrt_lowio_unlock_fh    1006ee40 f   libucrtd:osfinfo.obj
 0001:0006de80       __alloc_osfhnd             1006ee80 f   libucrtd:osfinfo.obj
 0001:0006e060       __free_osfhnd              1006f060 f   libucrtd:osfinfo.obj
 0001:0006e150       __get_osfhandle            1006f150 f   libucrtd:osfinfo.obj
 0001:0006e2d0       __open_osfhandle           1006f2d0 f   libucrtd:osfinfo.obj
 0001:0006f700       __utf8_no_of_trailbytes    10070700 f i libucrtd:write.obj
 0001:0006f720       __write                    10070720 f   libucrtd:write.obj
 0001:0006f760       __write_internal           10070760 f   libucrtd:write.obj
 0001:0006fa00       __write_nolock             10070a00 f   libucrtd:write.obj
 0001:00070600       __mbstowcs_l               10071600 f   libucrtd:mbstowcs.obj
 0001:00070640       __mbstowcs_s_l             10071640 f   libucrtd:mbstowcs.obj
 0001:00070690       _mbstowcs                  10071690 f   libucrtd:mbstowcs.obj
 0001:000706d0       _mbstowcs_s                100716d0 f   libucrtd:mbstowcs.obj
 0001:00070b40       _strncpy_s                 10071b40 f   libucrtd:strncpy_s.obj
 0001:00070b60       __CrtGetReportHook         10071b60 f   libucrtd:dbgrptt.obj
 0001:00070b70       __CrtSetReportFile         10071b70 f   libucrtd:dbgrptt.obj
 0001:00070c70       __CrtSetReportHook         10071c70 f   libucrtd:dbgrptt.obj
 0001:00070c90       __CrtSetReportMode         10071c90 f   libucrtd:dbgrptt.obj
 0001:00070de0       __VCrtDbgReportA           10071de0 f   libucrtd:dbgrptt.obj
 0001:000716c0       __VCrtDbgReportW           100726c0 f   libucrtd:dbgrptt.obj
 0001:000720e0       __snprintf_s               100730e0 f i libucrtd:dbgrptt.obj
 0001:00072120       __vsnprintf_s              10073120 f i libucrtd:dbgrptt.obj
 0001:00072150       __vsnprintf_s_l            10073150 f i libucrtd:dbgrptt.obj
 0001:000721b0       ___acrt_initialize_locks   100731b0 f   libucrtd:locks.obj
 0001:00072210       ___acrt_lock               10073210 f   libucrtd:locks.obj
 0001:00072230       ___acrt_uninitialize_locks 10073230 f   libucrtd:locks.obj
 0001:00072280       ___acrt_unlock             10073280 f   libucrtd:locks.obj
 0001:000722a0       __lock_locales             100732a0 f   libucrtd:locks.obj
 0001:000722c0       __unlock_locales           100732c0 f   libucrtd:locks.obj
 0001:000722e0       ___acrt_app_verifier_enabled 100732e0 f   libucrtd:peb_access.obj
 0001:00072310       ___acrt_is_secure_process  10073310 f   libucrtd:peb_access.obj
 0001:00072660       ___acrt_get_begin_thread_init_policy 10073660 f   libucrtd:win_policies.obj
 0001:00072680       ___acrt_get_developer_information_policy 10073680 f   libucrtd:win_policies.obj
 0001:000726a0       ___acrt_get_process_end_policy 100736a0 f   libucrtd:win_policies.obj
 0001:000726c0       ___acrt_get_windowing_model_policy 100736c0 f   libucrtd:win_policies.obj
 0001:00072720       ??$__acrt_convert_wcs_mbs_cp@D_WV<lambda_62f6974d9771e494a5ea317cc32e971c>@@U__crt_win32_buffer_internal_dynamic_resizing@@@@YAHQBDAAV?$__crt_win32_buffer@_WU__crt_win32_buffer_internal_dynamic_resizing@@@@ABV<lambda_62f6974d9771e494a5ea317cc32e971c>@@I@Z 10073720 f i libucrtd:argv_wildcards.obj
 0001:00072870       ??$__acrt_convert_wcs_mbs_cp@_WDV<lambda_28bda7af82a03b66c1cb3803a755f95d>@@U__crt_win32_buffer_internal_dynamic_resizing@@@@YAHQB_WAAV?$__crt_win32_buffer@DU__crt_win32_buffer_internal_dynamic_resizing@@@@ABV<lambda_28bda7af82a03b66c1cb3803a755f95d>@@I@Z 10073870 f i libucrtd:argv_wildcards.obj
 0001:000729b0       ??$__acrt_mbs_to_wcs_cp@U__crt_win32_buffer_internal_dynamic_resizing@@@@YAHQBDAAV?$__crt_win32_buffer@_WU__crt_win32_buffer_internal_dynamic_resizing@@@@I@Z 100739b0 f i libucrtd:argv_wildcards.obj
 0001:000729e0       ??$__acrt_wcs_to_mbs_cp@U__crt_win32_buffer_internal_dynamic_resizing@@@@YAHQB_WAAV?$__crt_win32_buffer@DU__crt_win32_buffer_internal_dynamic_resizing@@@@I@Z 100739e0 f i libucrtd:argv_wildcards.obj
 0001:000739b0       ??$tcsncpy_s@AAPADIAAPADABI@?$__crt_char_traits@D@@SAHAAPAD$$QAI0ABI@Z 100749b0 f i libucrtd:argv_wildcards.obj
 0001:000739e0       ??$tcsncpy_s@AAPA_WIAAPA_WABI@?$__crt_char_traits@_W@@SAHAAPA_W$$QAI0ABI@Z 100749e0 f i libucrtd:argv_wildcards.obj
 0001:00073a10       ??$tcsncpy_s@PADABIABQBDABI@?$__crt_char_traits@D@@SAH$$QAPADABIABQBD1@Z 10074a10 f i libucrtd:argv_wildcards.obj
 0001:00073a40       ??$tcsncpy_s@PADIABQBDABI@?$__crt_char_traits@D@@SAH$$QAPAD$$QAIABQBDABI@Z 10074a40 f i libucrtd:argv_wildcards.obj
 0001:00073a70       ??$tcsncpy_s@PA_WABIABQB_WABI@?$__crt_char_traits@_W@@SAH$$QAPA_WABIABQB_W1@Z 10074a70 f i libucrtd:argv_wildcards.obj
 0001:00073aa0       ??$tcsncpy_s@PA_WIABQB_WABI@?$__crt_char_traits@_W@@SAH$$QAPA_W$$QAIABQB_WABI@Z 10074aa0 f i libucrtd:argv_wildcards.obj
 0001:00073ad0       ??$tcspbrk@AAPADAAY02$$CBD@?$__crt_char_traits@D@@SAPADAAPADAAY02$$CBD@Z 10074ad0 f i libucrtd:argv_wildcards.obj
 0001:00073b20       ??$tcspbrk@AAPA_WAAY02$$CB_W@?$__crt_char_traits@_W@@SAPA_WAAPA_WAAY02$$CB_W@Z 10074b20 f i libucrtd:argv_wildcards.obj
 0001:00073b70       ??0?$__crt_unique_handle_t@U__crt_findfile_traits@@@@QAE@QAX@Z 10074b70 f i libucrtd:argv_wildcards.obj
 0001:00073b90       ??0?$__crt_win32_buffer@DU__crt_win32_buffer_internal_dynamic_resizing@@@@QAE@XZ 10074b90 f i libucrtd:argv_wildcards.obj
 0001:00073be0       ??0?$__crt_win32_buffer@_WU__crt_win32_buffer_internal_dynamic_resizing@@@@QAE@XZ 10074be0 f i libucrtd:argv_wildcards.obj
 0001:00073c90       ??1?$__crt_unique_handle_t@U__crt_findfile_traits@@@@QAE@XZ 10074c90 f i libucrtd:argv_wildcards.obj
 0001:00073cb0       ??1?$__crt_win32_buffer@DU__crt_win32_buffer_internal_dynamic_resizing@@@@QAE@XZ 10074cb0 f i libucrtd:argv_wildcards.obj
 0001:00073d00       ??1?$__crt_win32_buffer@_WU__crt_win32_buffer_internal_dynamic_resizing@@@@QAE@XZ 10074d00 f i libucrtd:argv_wildcards.obj
 0001:00073e30       ??R<lambda_28bda7af82a03b66c1cb3803a755f95d>@@QBE@IQB_WQADI@Z 10074e30 f i libucrtd:argv_wildcards.obj
 0001:00073ea0       ??R<lambda_62f6974d9771e494a5ea317cc32e971c>@@QBE@IQBDQA_WI@Z 10074ea0 f i libucrtd:argv_wildcards.obj
 0001:00073f70       ?_deallocate@?$__crt_win32_buffer@DU__crt_win32_buffer_internal_dynamic_resizing@@@@AAEXXZ 10074f70 f i libucrtd:argv_wildcards.obj
 0001:00073fc0       ?_deallocate@?$__crt_win32_buffer@_WU__crt_win32_buffer_internal_dynamic_resizing@@@@AAEXXZ 10074fc0 f i libucrtd:argv_wildcards.obj
 0001:00074010       ?allocate@?$__crt_win32_buffer@DU__crt_win32_buffer_internal_dynamic_resizing@@@@QAEHI@Z 10075010 f i libucrtd:argv_wildcards.obj
 0001:00074080       ?allocate@?$__crt_win32_buffer@_WU__crt_win32_buffer_internal_dynamic_resizing@@@@QAEHI@Z 10075080 f i libucrtd:argv_wildcards.obj
 0001:000740f0       ?allocate@__crt_win32_buffer_internal_dynamic_resizing@@SAHQAPAXIABV__crt_win32_buffer_empty_debug_info@@@Z 100750f0 f i libucrtd:argv_wildcards.obj
 0001:00074230       ?capacity@?$__crt_win32_buffer@DU__crt_win32_buffer_internal_dynamic_resizing@@@@QBEIXZ 10075230 f i libucrtd:argv_wildcards.obj
 0001:00074250       ?capacity@?$__crt_win32_buffer@_WU__crt_win32_buffer_internal_dynamic_resizing@@@@QBEIXZ 10075250 f i libucrtd:argv_wildcards.obj
 0001:00074270       ?close@?$__crt_unique_handle_t@U__crt_findfile_traits@@@@QAEXXZ 10075270 f i libucrtd:argv_wildcards.obj
 0001:000742b0       ?close@__crt_findfile_traits@@SA_NPAX@Z 100752b0 f i libucrtd:argv_wildcards.obj
 0001:000742e0       ?data@?$__crt_win32_buffer@DU__crt_win32_buffer_internal_dynamic_resizing@@@@QAEPADXZ 100752e0 f i libucrtd:argv_wildcards.obj
 0001:00074300       ?data@?$__crt_win32_buffer@_WU__crt_win32_buffer_internal_dynamic_resizing@@@@QAEPA_WXZ 10075300 f i libucrtd:argv_wildcards.obj
 0001:00074320       ?deallocate@__crt_win32_buffer_internal_dynamic_resizing@@SAXQAXABV__crt_win32_buffer_empty_debug_info@@@Z 10075320 f i libucrtd:argv_wildcards.obj
 0001:00074340       ?debug_info@?$__crt_win32_buffer@DU__crt_win32_buffer_internal_dynamic_resizing@@@@QBEABV__crt_win32_buffer_empty_debug_info@@XZ 10075340 f i libucrtd:argv_wildcards.obj
 0001:00074350       ?debug_info@?$__crt_win32_buffer@_WU__crt_win32_buffer_internal_dynamic_resizing@@@@QBEABV__crt_win32_buffer_empty_debug_info@@XZ 10075350 f i libucrtd:argv_wildcards.obj
 0001:00074660       ?get@?$__crt_unique_handle_t@U__crt_findfile_traits@@@@QBEPAXXZ 10075660 f i libucrtd:argv_wildcards.obj
 0001:000746d0       ?get_invalid_value@__crt_findfile_traits@@SAPAXXZ 100756d0 f i libucrtd:argv_wildcards.obj
 0001:00074760       ?set_to_nullptr@?$__crt_win32_buffer@DU__crt_win32_buffer_internal_dynamic_resizing@@@@QAEXXZ 10075760 f i libucrtd:argv_wildcards.obj
 0001:000747a0       ?set_to_nullptr@?$__crt_win32_buffer@_WU__crt_win32_buffer_internal_dynamic_resizing@@@@QAEXXZ 100757a0 f i libucrtd:argv_wildcards.obj
 0001:000747e0       ?size@?$__crt_win32_buffer@DU__crt_win32_buffer_internal_dynamic_resizing@@@@QAEXI@Z 100757e0 f i libucrtd:argv_wildcards.obj
 0001:00074800       ?size@?$__crt_win32_buffer@_WU__crt_win32_buffer_internal_dynamic_resizing@@@@QAEXI@Z 10075800 f i libucrtd:argv_wildcards.obj
 0001:00074860       ?strpbrk@@YAPADQADQBD@Z    10075860 f i libucrtd:argv_wildcards.obj
 0001:00074880       ?wcspbrk@@YAPA_WPA_WPB_W@Z 10075880 f i libucrtd:argv_wildcards.obj
 0001:000748a0       ___acrt_expand_narrow_argv_wildcards 100758a0 f   libucrtd:argv_wildcards.obj
 0001:000748c0       ___acrt_expand_wide_argv_wildcards 100758c0 f   libucrtd:argv_wildcards.obj
 0001:000749d0       ??$initialize_from_array@$$BY10BAA@E@?$dual_state_global@PAE@__crt_state_management@@QAAXAAY10BAA@E@Z 100759d0 f i libucrtd:mbctype.obj
 0001:00074a20       ??$initialize_from_array@$$BY10BAB@E@?$dual_state_global@PAE@__crt_state_management@@QAAXAAY10BAB@E@Z 10075a20 f i libucrtd:mbctype.obj
 0001:00074ca0       ?dangerous_get_state_array@?$dual_state_global@PAE@__crt_state_management@@QAEPAPAEXZ 10075ca0 f i libucrtd:mbctype.obj
 0001:00074cb0       ?dangerous_get_state_array@?$dual_state_global@PAU__crt_multibyte_data@@@__crt_state_management@@QAEPAPAU__crt_multibyte_data@@XZ 10075cb0 f i libucrtd:mbctype.obj
 0001:00074d80       ?initialize@?$dual_state_global@PAU__crt_multibyte_data@@@__crt_state_management@@QAEXQAU__crt_multibyte_data@@@Z 10075d80 f i libucrtd:mbctype.obj
 0001:00075530       ?value@?$dual_state_global@PAE@__crt_state_management@@QAEAAPAEXZ 10076530 f i libucrtd:mbctype.obj
 0001:00075550       ___acrt_initialize_multibyte 10076550 f   libucrtd:mbctype.obj
 0001:00075600       ___acrt_update_thread_multibyte_data 10076600 f   libucrtd:mbctype.obj
 0001:00075640       ___p__mbcasemap            10076640 f   libucrtd:mbctype.obj
 0001:00075660       ___p__mbctype              10076660 f   libucrtd:mbctype.obj
 0001:00075680       __getmbcp                  10076680 f   libucrtd:mbctype.obj
 0001:000756f0       __setmbcp                  100766f0 f   libucrtd:mbctype.obj
 0001:00075730       __setmbcp_nolock           10076730 f   libucrtd:mbctype.obj
 0001:00075ce0       __ismbbalnum               10076ce0 f   libucrtd:ismbbyte.obj
 0001:00075d00       __ismbbalnum_l             10076d00 f   libucrtd:ismbbyte.obj
 0001:00075d20       __ismbbalpha               10076d20 f   libucrtd:ismbbyte.obj
 0001:00075d40       __ismbbalpha_l             10076d40 f   libucrtd:ismbbyte.obj
 0001:00075d60       __ismbbblank               10076d60 f   libucrtd:ismbbyte.obj
 0001:00075da0       __ismbbblank_l             10076da0 f   libucrtd:ismbbyte.obj
 0001:00075de0       __ismbbgraph               10076de0 f   libucrtd:ismbbyte.obj
 0001:00075e00       __ismbbgraph_l             10076e00 f   libucrtd:ismbbyte.obj
 0001:00075e20       __ismbbkalnum              10076e20 f   libucrtd:ismbbyte.obj
 0001:00075e40       __ismbbkalnum_l            10076e40 f   libucrtd:ismbbyte.obj
 0001:00075e60       __ismbbkana                10076e60 f   libucrtd:ismbbyte.obj
 0001:00075e80       __ismbbkana_l              10076e80 f   libucrtd:ismbbyte.obj
 0001:00075ef0       __ismbbkprint              10076ef0 f   libucrtd:ismbbyte.obj
 0001:00075f10       __ismbbkprint_l            10076f10 f   libucrtd:ismbbyte.obj
 0001:00075f30       __ismbbkpunct              10076f30 f   libucrtd:ismbbyte.obj
 0001:00075f50       __ismbbkpunct_l            10076f50 f   libucrtd:ismbbyte.obj
 0001:00075f70       __ismbblead                10076f70 f   libucrtd:ismbbyte.obj
 0001:00075f90       __ismbblead_l              10076f90 f   libucrtd:ismbbyte.obj
 0001:00075fb0       __ismbbprint               10076fb0 f   libucrtd:ismbbyte.obj
 0001:00075fd0       __ismbbprint_l             10076fd0 f   libucrtd:ismbbyte.obj
 0001:00075ff0       __ismbbpunct               10076ff0 f   libucrtd:ismbbyte.obj
 0001:00076010       __ismbbpunct_l             10077010 f   libucrtd:ismbbyte.obj
 0001:00076030       __ismbbtrail               10077030 f   libucrtd:ismbbyte.obj
 0001:00076050       __ismbbtrail_l             10077050 f   libucrtd:ismbbyte.obj
 0001:00076070       ___acrt_initialize_command_line 10077070 f   libucrtd:argv_data.obj
 0001:00076090       ___acrt_uninitialize_command_line 10077090 f   libucrtd:argv_data.obj
 0001:000760a0       ___p___argc                100770a0 f   libucrtd:argv_data.obj
 0001:000760b0       ___p___argv                100770b0 f   libucrtd:argv_data.obj
 0001:000760c0       ___p___wargv               100770c0 f   libucrtd:argv_data.obj
 0001:000760d0       ___p__acmdln               100770d0 f   libucrtd:argv_data.obj
 0001:000760e0       ___p__pgmptr               100770e0 f   libucrtd:argv_data.obj
 0001:000760f0       ___p__wcmdln               100770f0 f   libucrtd:argv_data.obj
 0001:00076100       ___p__wpgmptr              10077100 f   libucrtd:argv_data.obj
 0001:00076110       __get_pgmptr               10077110 f   libucrtd:argv_data.obj
 0001:00076220       __get_wpgmptr              10077220 f   libucrtd:argv_data.obj
 0001:00076430       ___acrt_MultiByteToWideChar 10077430 f   libucrtd:multibytetowidechar.obj
 0001:00076580       ___acrt_WideCharToMultiByte 10077580 f   libucrtd:widechartomultibyte.obj
 0001:000767a0       ___dcrt_get_narrow_environment_from_os 100777a0 f   libucrtd:get_environment_from_os.obj
 0001:00076910       ___dcrt_get_wide_environment_from_os 10077910 f   libucrtd:get_environment_from_os.obj
 0001:00077ac0       ??$get_or_create_environment_nolock@$$V@?$__crt_char_traits@D@@SAPAPADXZ 10078ac0 f i libucrtd:setenv.obj
 0001:00077ad0       ??$get_or_create_environment_nolock@$$V@?$__crt_char_traits@_W@@SAPAPA_WXZ 10078ad0 f i libucrtd:setenv.obj
 0001:00077ae0       ??$set_environment_variable@ABQADQAD@?$__crt_char_traits@D@@SAHABQAD$$QBQAD@Z 10078ae0 f i libucrtd:setenv.obj
 0001:00077b00       ??$set_environment_variable@ABQA_WQA_W@?$__crt_char_traits@_W@@SAHABQA_W$$QBQA_W@Z 10078b00 f i libucrtd:setenv.obj
 0001:00077b20       ??$tcschr@ABQADD@?$__crt_char_traits@D@@SAPADABQAD$$QAD@Z 10078b20 f i libucrtd:setenv.obj
 0001:00077b70       ??$tcschr@ABQA_WD@?$__crt_char_traits@_W@@SAPA_WABQA_W$$QAD@Z 10078b70 f i libucrtd:setenv.obj
 0001:00077bd0       ??$tcscpy_s@AAPADABIAAPAD@?$__crt_char_traits@D@@SAHAAPADABI0@Z 10078bd0 f i libucrtd:setenv.obj
 0001:00077c00       ??$tcscpy_s@AAPA_WABIAAPA_W@?$__crt_char_traits@_W@@SAHAAPA_WABI0@Z 10078c00 f i libucrtd:setenv.obj
 0001:00077c30       ??$tcscpy_s@ABQADABIABQAD@?$__crt_char_traits@D@@SAHABQADABI0@Z 10078c30 f i libucrtd:setenv.obj
 0001:00077c60       ??$tcscpy_s@ABQA_WABIABQA_W@?$__crt_char_traits@_W@@SAHABQA_WABI0@Z 10078c60 f i libucrtd:setenv.obj
 0001:00077c90       ??$tcsnicoll@ABQBDAAPADABI@?$__crt_char_traits@D@@SAHABQBDAAPADABI@Z 10078c90 f i libucrtd:setenv.obj
 0001:00077cc0       ??$tcsnicoll@ABQB_WAAPA_WABI@?$__crt_char_traits@_W@@SAHABQB_WAAPA_WABI@Z 10078cc0 f i libucrtd:setenv.obj
 0001:00077cf0       ??$tcsnlen@PADH@?$__crt_char_traits@D@@SAI$$QAPAD$$QAH@Z 10078cf0 f i libucrtd:setenv.obj
 0001:00077d10       ??$tcsnlen@PA_WH@?$__crt_char_traits@_W@@SAI$$QAPA_W$$QAH@Z 10078d10 f i libucrtd:setenv.obj
 0001:00077dd0       ?strchr@@YAPADQADH@Z       10078dd0 f i libucrtd:setenv.obj
 0001:00077df0       ?wcschr@@YAPA_WPA_W_W@Z    10078df0 f i libucrtd:setenv.obj
 0001:00077e10       ___dcrt_set_variable_in_narrow_environment_nolock 10078e10 f   libucrtd:setenv.obj
 0001:00077e30       ___dcrt_set_variable_in_wide_environment_nolock 10078e30 f   libucrtd:setenv.obj
 0001:00077e50       ___acrt_getheap            10078e50 f   libucrtd:heap_handle.obj
 0001:00077e90       ___acrt_initialize_heap    10078e90 f   libucrtd:heap_handle.obj
 0001:00077ec0       ___acrt_uninitialize_heap  10078ec0 f   libucrtd:heap_handle.obj
 0001:00077ee0       __get_heap_handle          10078ee0 f   libucrtd:heap_handle.obj
 0001:00077f20       ___acrt_execute_initializers 10078f20 f   libucrtd:shared_initialization.obj
 0001:00077fe0       ___acrt_execute_uninitializers 10078fe0 f   libucrtd:shared_initialization.obj
 0001:00078040       ??$?B$$A6AHI@Z@__crt_fast_encoded_nullptr_t@@QBEP6AHI@ZXZ 10079040 f i libucrtd:new_handler.obj
 0001:00078060       ??$__crt_fast_decode_pointer@P6AHI@Z@@YAP6AHI@ZQ6AHI@Z@Z 10079060 f i libucrtd:new_handler.obj
 0001:00078090       ??$__crt_fast_encode_pointer@P6AHI@Z@@YAP6AHI@ZQ6AHI@Z@Z 10079090 f i libucrtd:new_handler.obj
 0001:000780c0       ?_set_new_handler@@YAP6AHI@ZH@Z 100790c0 f   libucrtd:new_handler.obj
 0001:00078120       ?initialize@?$dual_state_global@P6AHI@Z@__crt_state_management@@QAEXQ6AHI@Z@Z 10079120 f i libucrtd:new_handler.obj
 0001:00078160       ?value@?$dual_state_global@P6AHI@Z@__crt_state_management@@QAEAAP6AHI@ZXZ 10079160 f i libucrtd:new_handler.obj
 0001:00078180       ___acrt_initialize_new_handler 10079180 f   libucrtd:new_handler.obj
 0001:000781a0       __callnewh                 100791a0 f   libucrtd:new_handler.obj
 0001:000781f0       __query_new_handler        100791f0 f   libucrtd:new_handler.obj
 0001:00078280       __set_new_handler          10079280 f   libucrtd:new_handler.obj
 0001:00078330       ??$__crt_fast_decode_pointer@P6AHPAU_exception@@@Z@@YAP6AHPAU_exception@@@ZQ6AH0@Z@Z 10079330 f i libucrtd:matherr.obj
 0001:00078360       ??$__crt_fast_encode_pointer@P6AHPAU_exception@@@Z@@YAP6AHPAU_exception@@@ZQ6AH0@Z@Z 10079360 f i libucrtd:matherr.obj
 0001:00078390       ?initialize@?$dual_state_global@P6AHPAU_exception@@@Z@__crt_state_management@@QAEXQ6AHPAU_exception@@@Z@Z 10079390 f i libucrtd:matherr.obj
 0001:000783d0       ?value@?$dual_state_global@P6AHPAU_exception@@@Z@__crt_state_management@@QAEAAP6AHPAU_exception@@@ZXZ 100793d0 f i libucrtd:matherr.obj
 0001:000783f0       ___acrt_has_user_matherr   100793f0 f   libucrtd:matherr.obj
 0001:00078430       ___acrt_initialize_user_matherr 10079430 f   libucrtd:matherr.obj
 0001:00078450       ___acrt_invoke_user_matherr 10079450 f   libucrtd:matherr.obj
 0001:000784a0       ___setusermatherr          100794a0 f   libucrtd:matherr.obj
 0001:000784d0       __mbsdec                   100794d0 f   libucrtd:mbsdec.obj
 0001:000784f0       __mbsdec_l                 100794f0 f   libucrtd:mbsdec.obj
 0001:00078ad0       _wcsncpy_s                 10079ad0 f   libucrtd:wcsncpy_s.obj
 0001:00078af0       __chvalidator              10079af0 f   libucrtd:isctype.obj
 0001:00078b40       __chvalidator_l            10079b40 f   libucrtd:isctype.obj
 0001:00078bc0       __isctype                  10079bc0 f   libucrtd:isctype.obj
 0001:00078c00       __isctype_l                10079c00 f   libucrtd:isctype.obj
 0001:00078da0       __free_base                10079da0 f   libucrtd:free_base.obj
 0001:00078df0       __realloc_base             10079df0 f   libucrtd:realloc_base.obj
 0001:00078ef0       __expand                   10079ef0 f   libucrtd:expand.obj
 0001:00078f10       __expand_base              10079f10 f   libucrtd:expand.obj
 0001:00079040       ?value@?$dual_state_global@J@__crt_state_management@@QAEAAJXZ 1007a040 f i libucrtd:new_mode.obj
 0001:00079060       __query_new_mode           1007a060 f   libucrtd:new_mode.obj
 0001:00079080       __set_new_mode             1007a080 f   libucrtd:new_mode.obj
 0001:00079120       __CrtDefaultAllocHook      1007a120 f   libucrtd:debug_heap_hook.obj
 0001:00079130       __iswctype_l               1007a130 f   libucrtd:iswctype.obj
 0001:00079150       _iswctype                  1007a150 f   libucrtd:iswctype.obj
 0001:000791c0       ___acrt_OutputDebugStringA@4 1007a1c0 f   libucrtd:outputdebugstringa.obj
 0001:00079490       __commit                   1007a490 f   libucrtd:commit.obj
 0001:000795f0       ___acrt_add_locale_ref     1007a5f0 f   libucrtd:locale_refcounting.obj
 0001:00079700       ___acrt_free_locale        1007a700 f   libucrtd:locale_refcounting.obj
 0001:000799d0       ___acrt_locale_add_lc_time_reference 1007a9d0 f   libucrtd:locale_refcounting.obj
 0001:00079a10       ___acrt_locale_free_lc_time_if_unreferenced 1007aa10 f   libucrtd:locale_refcounting.obj
 0001:00079a60       ___acrt_locale_release_lc_time_reference 1007aa60 f   libucrtd:locale_refcounting.obj
 0001:00079a90       ___acrt_release_locale_ref 1007aa90 f   libucrtd:locale_refcounting.obj
 0001:00079ba0       ___acrt_update_thread_locale_data 1007aba0 f   libucrtd:locale_refcounting.obj
 0001:00079c80       __updatetlocinfoEx_nolock  1007ac80 f   libucrtd:locale_refcounting.obj
 0001:00079e00       ___acrt_DownlevelLCIDToLocaleName 1007ae00 f   libucrtd:lcidtoname_downlevel.obj
 0001:00079ed0       ___acrt_DownlevelLocaleNameToLCID 1007aed0 f   libucrtd:lcidtoname_downlevel.obj
 0001:0007a1d0       __fclose_nolock            1007b1d0 f   libucrtd:fclose.obj
 0001:0007a210       _fclose                    1007b210 f   libucrtd:fclose.obj
 0001:0007a3d0       ___acrt_fp_strflt_to_string 1007b3d0 f   libucrtd:_fptostr.obj
 0001:0007add0       ??0big_integer@__crt_strtox@@QAE@ABU01@@Z 1007bdd0 f i libucrtd:cfout.obj
 0001:0007ae10       ??0big_integer@__crt_strtox@@QAE@XZ 1007be10 f i libucrtd:cfout.obj
 0001:0007af50       ??4big_integer@__crt_strtox@@QAEAAU01@ABU01@@Z 1007bf50 f i libucrtd:cfout.obj
 0001:0007af90       ??8__crt_strtox@@YA_NABUbig_integer@0@0@Z 1007bf90 f i libucrtd:cfout.obj
 0001:0007aff0       ??9__crt_strtox@@YA_NABUbig_integer@0@0@Z 1007bff0 f i libucrtd:cfout.obj
 0001:0007b030       ?add_carry@__crt_strtox@@YAIAAIII@Z 1007c030 f i libucrtd:cfout.obj
 0001:0007b070       ?add_multiply_carry@__crt_strtox@@YAIAAIIII@Z 1007c070 f i libucrtd:cfout.obj
 0001:0007b0b0       ?bit_scan_reverse@__crt_strtox@@YAII@Z 1007c0b0 f i libucrtd:cfout.obj
 0001:0007b0e0       ?count_sequential_high_zeroes@__crt_strtox@@YAII@Z 1007c0e0 f i libucrtd:cfout.obj
 0001:0007b120       ?divide@__crt_strtox@@YA_KAAUbig_integer@1@ABU21@@Z 1007c120 f i libucrtd:cfout.obj
 0001:0007bb90       ?is_zero@__crt_strtox@@YA_NABUbig_integer@1@@Z 1007cb90 f i libucrtd:cfout.obj
 0001:0007bbc0       ?make_big_integer@__crt_strtox@@YA?AUbig_integer@1@_K@Z 1007cbc0 f i libucrtd:cfout.obj
 0001:0007bc70       ?make_big_integer_power_of_two@__crt_strtox@@YA?AUbig_integer@1@I@Z 1007cc70 f i libucrtd:cfout.obj
 0001:0007bd20       ?multiply@__crt_strtox@@YA_NAAUbig_integer@1@ABU21@@Z 1007cd20 f i libucrtd:cfout.obj
 0001:0007c0a0       ?multiply@__crt_strtox@@YA_NAAUbig_integer@1@I@Z 1007d0a0 f i libucrtd:cfout.obj
 0001:0007c170       ?multiply_64_32@__crt_strtox@@YA_K_KI@Z 1007d170 f i libucrtd:cfout.obj
 0001:0007c190       ?multiply_by_power_of_ten@__crt_strtox@@YA_NAAUbig_integer@1@I@Z 1007d190 f i libucrtd:cfout.obj
 0001:0007c330       ?multiply_core@__crt_strtox@@YAIQAIII@Z 1007d330 f i libucrtd:cfout.obj
 0001:0007c3a0       ?shift_left@__crt_strtox@@YA_NAAUbig_integer@1@I@Z 1007d3a0 f i libucrtd:cfout.obj
 0001:0007c680       ___acrt_fltout             1007d680 f   libucrtd:cfout.obj
 0001:0007caa0       ___fpe_flt_rounds          1007daa0 f   libucrtd:fegetround.obj
 0001:0007cb00       _fegetround                1007db00 f   libucrtd:fegetround.obj
 0001:0007cb20       ??$?RG@__crt_internal_free_policy@@QBEXQBG@Z 1007db20 f i libucrtd:initctype.obj
 0001:0007cb40       ??$?RJ@__crt_internal_free_policy@@QBEXQBJ@Z 1007db40 f i libucrtd:initctype.obj
 0001:0007cb60       ??0?$__crt_unique_heap_ptr@GU__crt_internal_free_policy@@@@QAE@QAG@Z 1007db60 f i libucrtd:initctype.obj
 0001:0007cb80       ??0?$__crt_unique_heap_ptr@JU__crt_internal_free_policy@@@@QAE@QAJ@Z 1007db80 f i libucrtd:initctype.obj
 0001:0007cba0       ??1?$__crt_unique_heap_ptr@GU__crt_internal_free_policy@@@@QAE@XZ 1007dba0 f i libucrtd:initctype.obj
 0001:0007cbc0       ??1?$__crt_unique_heap_ptr@JU__crt_internal_free_policy@@@@QAE@XZ 1007dbc0 f i libucrtd:initctype.obj
 0001:0007cbe0       ?detach@?$__crt_unique_heap_ptr@GU__crt_internal_free_policy@@@@QAEPAGXZ 1007dbe0 f i libucrtd:initctype.obj
 0001:0007cc10       ?detach@?$__crt_unique_heap_ptr@JU__crt_internal_free_policy@@@@QAEPAJXZ 1007dc10 f i libucrtd:initctype.obj
 0001:0007cc40       ?release@?$__crt_unique_heap_ptr@GU__crt_internal_free_policy@@@@QAEXXZ 1007dc40 f i libucrtd:initctype.obj
 0001:0007cc70       ?release@?$__crt_unique_heap_ptr@JU__crt_internal_free_policy@@@@QAEXXZ 1007dc70 f i libucrtd:initctype.obj
 0001:0007cca0       ____lc_codepage_func       1007dca0 f   libucrtd:initctype.obj
 0001:0007cce0       ____lc_collate_cp_func     1007dce0 f   libucrtd:initctype.obj
 0001:0007cd20       ____lc_locale_name_func    1007dd20 f   libucrtd:initctype.obj
 0001:0007cd60       ____mb_cur_max_func        1007dd60 f   libucrtd:initctype.obj
 0001:0007cda0       ____mb_cur_max_l_func      1007dda0 f   libucrtd:initctype.obj
 0001:0007cdd0       ___acrt_locale_initialize_ctype 1007ddd0 f   libucrtd:initctype.obj
 0001:0007d550       ?__c32rtomb_utf8@__crt_mbstring@@YAIPAD_UPAU_Mbstatet@@AAV__crt_cached_ptd_host@@@Z 1007e550 f   libucrtd:c32rtomb.obj
 0001:0007d740       _c32rtomb                  1007e740 f   libucrtd:c32rtomb.obj
 0001:0007d7f0       ?__mbrtowc_utf8@__crt_mbstring@@YAIPA_WPBDIPAU_Mbstatet@@AAV__crt_cached_ptd_host@@@Z 1007e7f0 f   libucrtd:mbrtowc.obj
 0001:0007d850       ?__mbsrtowcs_utf8@__crt_mbstring@@YAIPA_WPAPBDIPAU_Mbstatet@@AAV__crt_cached_ptd_host@@@Z 1007e850 f   libucrtd:mbrtowc.obj
 0001:0007e400       _btowc                     1007f400 f   libucrtd:mbrtowc.obj
 0001:0007e490       _mbrlen                    1007f490 f   libucrtd:mbrtowc.obj
 0001:0007e500       _mbrtowc                   1007f500 f   libucrtd:mbrtowc.obj
 0001:0007e5a0       _mbsrtowcs                 1007f5a0 f   libucrtd:mbrtowc.obj
 0001:0007e5e0       _mbsrtowcs_s               1007f5e0 f   libucrtd:mbrtowc.obj
 0001:0007ed90       ?has_big_buffer@__crt_stdio_stream@@QBE_NXZ 1007fd90 f i libucrtd:_flsbuf.obj
 0001:0007ee90       ___acrt_stdio_flush_and_write_narrow_nolock 1007fe90 f   libucrtd:_flsbuf.obj
 0001:0007eec0       ___acrt_stdio_flush_and_write_wide_nolock 1007fec0 f   libucrtd:_flsbuf.obj
 0001:0007eef0       __isatty                   1007fef0 f   libucrtd:isatty.obj
 0001:0007efc0       ??$?RUlconv@@@__crt_internal_free_policy@@QBEXQBUlconv@@@Z 1007ffc0 f i libucrtd:initmon.obj
 0001:0007efe0       ??0?$__crt_unique_heap_ptr@Ulconv@@U__crt_internal_free_policy@@@@QAE@QAUlconv@@@Z 1007ffe0 f i libucrtd:initmon.obj
 0001:0007f000       ??1?$__crt_unique_heap_ptr@Ulconv@@U__crt_internal_free_policy@@@@QAE@XZ 10080000 f i libucrtd:initmon.obj
 0001:0007f020       ?detach@?$__crt_unique_heap_ptr@Ulconv@@U__crt_internal_free_policy@@@@QAEPAUlconv@@XZ 10080020 f i libucrtd:initmon.obj
 0001:0007f050       ?release@?$__crt_unique_heap_ptr@Ulconv@@U__crt_internal_free_policy@@@@QAEXXZ 10080050 f i libucrtd:initmon.obj
 0001:0007f080       ___acrt_locale_free_monetary 10080080 f   libucrtd:initmon.obj
 0001:0007f230       ___acrt_locale_initialize_monetary 10080230 f   libucrtd:initmon.obj
 0001:0007f8d0       ___acrt_locale_free_numeric 100808d0 f   libucrtd:initnum.obj
 0001:0007f980       ___acrt_locale_initialize_numeric 10080980 f   libucrtd:initnum.obj
 0001:0007fdd0       ??$?RU__crt_lc_time_data@@@__crt_internal_free_policy@@QBEXQBU__crt_lc_time_data@@@Z 10080dd0 f i libucrtd:inittime.obj
 0001:0007feb0       ??0?$__crt_unique_heap_ptr@U__crt_lc_time_data@@U__crt_internal_free_policy@@@@QAE@QAU__crt_lc_time_data@@@Z 10080eb0 f i libucrtd:inittime.obj
 0001:0007fed0       ??1?$__crt_unique_heap_ptr@U__crt_lc_time_data@@U__crt_internal_free_policy@@@@QAE@XZ 10080ed0 f i libucrtd:inittime.obj
 0001:0007fef0       ??B?$__crt_unique_heap_ptr@U__crt_lc_time_data@@U__crt_internal_free_policy@@@@QBE_NXZ 10080ef0 f i libucrtd:inittime.obj
 0001:0007ff10       ?detach@?$__crt_unique_heap_ptr@U__crt_lc_time_data@@U__crt_internal_free_policy@@@@QAEPAU__crt_lc_time_data@@XZ 10080f10 f i libucrtd:inittime.obj
 0001:0007ff80       ?get@?$__crt_unique_heap_ptr@U__crt_lc_time_data@@U__crt_internal_free_policy@@@@QBEPAU__crt_lc_time_data@@XZ 10080f80 f i libucrtd:inittime.obj
 0001:00080450       ?is_valid@?$__crt_unique_heap_ptr@U__crt_lc_time_data@@U__crt_internal_free_policy@@@@QBE_NXZ 10081450 f i libucrtd:inittime.obj
 0001:00080480       ?release@?$__crt_unique_heap_ptr@U__crt_lc_time_data@@U__crt_internal_free_policy@@@@QAEXXZ 10081480 f i libucrtd:inittime.obj
 0001:000804b0       ___acrt_locale_free_time   100814b0 f   libucrtd:inittime.obj
 0001:00080600       ___acrt_locale_initialize_time 10081600 f   libucrtd:inittime.obj
 0001:00080680       ___pctype_func             10081680 f   libucrtd:ctype.obj
 0001:000806c0       ___pwctype_func            100816c0 f   libucrtd:ctype.obj
 0001:000806d0       _wcscmp                    100816d0 f   libucrtd:wcscmp.obj
 0001:00080750       _wcscspn                   10081750 f   libucrtd:wcscspn.obj
 0001:000807c0       _wcspbrk                   100817c0 f   libucrtd:wcspbrk.obj
 0001:00080820       ??0?$__crt_scoped_stack_ptr@_W@@QAE@U?$__crt_scoped_stack_ptr_tag@_W@@@Z 10081820 f i libucrtd:getstringtypea.obj
 0001:00080840       ??0?$__crt_scoped_stack_ptr_tag@_W@@QAE@QA_W@Z 10081840 f i libucrtd:getstringtypea.obj
 0001:00080860       ??1?$__crt_scoped_stack_ptr@_W@@QAE@XZ 10081860 f i libucrtd:getstringtypea.obj
 0001:00080880       ?get@?$__crt_scoped_stack_ptr@_W@@QBEPA_WXZ 10081880 f i libucrtd:getstringtypea.obj
 0001:000808a0       __MallocaComputeSize       100818a0 f i libucrtd:getstringtypea.obj
 0001:000808d0       __MarkAllocaS              100818d0 f i libucrtd:getstringtypea.obj
 0001:00080900       ___acrt_GetStringTypeA     10081900 f   libucrtd:getstringtypea.obj
 0001:00080ac0       __freea_crt                10081ac0 f i libucrtd:getstringtypea.obj
 0001:000816a0       ___acrt_get_qualified_locale 100826a0 f   libucrtd:get_qualified_locale.obj
 0001:000826c0       ___acrt_get_qualified_locale_downlevel 100836c0 f   libucrtd:getqloc_downlevel.obj
 0001:00082970       _localeconv                10083970 f   libucrtd:localeconv.obj
 0001:00083200       __lseek                    10084200 f   libucrtd:lseek.obj
 0001:00083240       __lseek_internal           10084240 f   libucrtd:lseek.obj
 0001:00083260       __lseek_nolock             10084260 f   libucrtd:lseek.obj
 0001:000832a0       __lseek_nolock_internal    100842a0 f   libucrtd:lseek.obj
 0001:000832c0       __lseeki64                 100842c0 f   libucrtd:lseek.obj
 0001:00083310       __lseeki64_internal        10084310 f   libucrtd:lseek.obj
 0001:00083340       __lseeki64_nolock          10084340 f   libucrtd:lseek.obj
 0001:00083390       __lseeki64_nolock_internal 10084390 f   libucrtd:lseek.obj
 0001:00083580       __putwch                   10084580 f   libucrtd:putwch.obj
 0001:000835b0       __putwch_nolock            100845b0 f   libucrtd:putwch.obj
 0001:000835f0       __putwch_nolock_internal   100845f0 f   libucrtd:putwch.obj
 0001:00084050       __read                     10085050 f   libucrtd:read.obj
 0001:00084330       __read_nolock              10085330 f   libucrtd:read.obj
 0001:00085590       __wcstombs_l               10086590 f   libucrtd:wcstombs.obj
 0001:000855d0       __wcstombs_s_l             100865d0 f   libucrtd:wcstombs.obj
 0001:00085620       _wcstombs                  10086620 f   libucrtd:wcstombs.obj
 0001:00085660       _wcstombs_s                10086660 f   libucrtd:wcstombs.obj
 0001:000857e0       _qsort                     100867e0 f   libucrtd:qsort.obj
 0001:00085ed0       _strpbrk                   10086ed0 f   libucrtd:strpbrk.obj
 0001:00085f10       ??B?$__crt_scoped_stack_ptr@_W@@QBE_NXZ 10086f10 f i libucrtd:lcmapstringa.obj
 0001:00086310       ___acrt_LCMapStringA       10087310 f   libucrtd:lcmapstringa.obj
 0001:000863a0       __wcsnicoll                100873a0 f   libucrtd:wcsnicol.obj
 0001:00086560       __wcsnicoll_l              10087560 f   libucrtd:wcsnicol.obj
 0001:000867b0       __strnicoll                100877b0 f   libucrtd:strnicol.obj
 0001:00086800       __strnicoll_l              10087800 f   libucrtd:strnicol.obj
 0001:00086ac0       ___acrt_SetEnvironmentVariableA 10087ac0 f   libucrtd:setenvironmentvariablea.obj
 0001:00086b90       __malloc_base              10087b90 f   libucrtd:malloc_base.obj
 0001:00086c20       ___acrt_GetStringTypeW     10087c20 f   libucrtd:getstringtypew.obj
 0001:00086c40       ___ascii_wcsnicmp          10087c40 f   libucrtd:wcsnicmp.obj
 0001:00086cd0       __towlower_fast_internal   10087cd0 f i libucrtd:wcsnicmp.obj
 0001:00086d10       __towlower_internal        10087d10 f i libucrtd:wcsnicmp.obj
 0001:00086d50       __wcsnicmp                 10087d50 f   libucrtd:wcsnicmp.obj
 0001:00086e90       __wcsnicmp_l               10087e90 f   libucrtd:wcsnicmp.obj
 0001:000873c0       __close                    100883c0 f   libucrtd:close.obj
 0001:00087400       __close_internal           10088400 f   libucrtd:close.obj
 0001:000875d0       __close_nolock             100885d0 f   libucrtd:close.obj
 0001:00087610       __close_nolock_internal    10088610 f   libucrtd:close.obj
 0001:00087670       ??$?RU__crt_stdio_stream_data@@@__crt_internal_free_policy@@QBEXQBU__crt_stdio_stream_data@@@Z 10088670 f i libucrtd:stream.obj
 0001:00087690       ??0?$__crt_unique_heap_ptr@U__crt_stdio_stream_data@@U__crt_internal_free_policy@@@@QAE@QAU__crt_stdio_stream_data@@@Z 10088690 f i libucrtd:stream.obj
 0001:000876b0       ??0__crt_stdio_stream@@QAE@XZ 100886b0 f i libucrtd:stream.obj
 0001:000876d0       ??1?$__crt_unique_heap_ptr@U__crt_stdio_stream_data@@U__crt_internal_free_policy@@@@QAE@XZ 100886d0 f i libucrtd:stream.obj
 0001:000876f0       ?__acrt_stdio_allocate_stream@@YA?AV__crt_stdio_stream@@XZ 100886f0 f   libucrtd:stream.obj
 0001:000877e0       ?__acrt_stdio_free_stream@@YAXV__crt_stdio_stream@@@Z 100887e0 f   libucrtd:stream.obj
 0001:00087860       ?deallocate@__crt_stdio_stream@@QAEXXZ 10088860 f i libucrtd:stream.obj
 0001:00087880       ?detach@?$__crt_unique_heap_ptr@U__crt_stdio_stream_data@@U__crt_internal_free_policy@@@@QAEPAU__crt_stdio_stream_data@@XZ 10088880 f i libucrtd:stream.obj
 0001:000879f0       ?lock@__crt_stdio_stream@@QBEXXZ 100889f0 f i libucrtd:stream.obj
 0001:00087a10       ?release@?$__crt_unique_heap_ptr@U__crt_stdio_stream_data@@U__crt_internal_free_policy@@@@QAEXXZ 10088a10 f i libucrtd:stream.obj
 0001:00087a40       ?try_allocate@__crt_stdio_stream@@QAE_NXZ 10088a40 f i libucrtd:stream.obj
 0001:00087a90       ?unlock@__crt_stdio_stream@@QBEXXZ 10088a90 f i libucrtd:stream.obj
 0001:00087ab0       _log10                     10088ab0 f   libucrtd:log10.obj
 0001:00087b00       _ceil                      10088b00 f   libucrtd:ceil_pentium4.obj
 0001:00087b40       __ceil_pentium4            10088b40 f   libucrtd:ceil_pentium4.obj
 0001:00087c20       __controlfp_s              10088c20 f   libucrtd:contrlfp.obj
 0001:00087d10       _fegetenv                  10088d10 f   libucrtd:fegetenv.obj
 0001:00087d30       _fesetenv                  10088d30 f   libucrtd:fesetenv.obj
 0001:00087da0       _feholdexcept              10088da0 f   libucrtd:feholdexcept.obj
 0001:00087e10       ??$__acrt_fenv_shift_bits@W4__acrt_fenv_abstract_control@@@@YA?AW4__acrt_fenv_abstract_control@@W40@0I@Z 10088e10 f i libucrtd:_fenvutils.obj
 0001:00087e30       ??$__acrt_fenv_shift_bits@W4__acrt_fenv_abstract_status@@@@YA?AW4__acrt_fenv_abstract_status@@W40@0I@Z 10088e30 f i libucrtd:_fenvutils.obj
 0001:00087e50       ??$__acrt_fenv_translate_bit@W4__acrt_fenv_abstract_control@@W4__acrt_fenv_machine_sse_control@@@@YA?AW4__acrt_fenv_abstract_control@@W4__acrt_fenv_machine_sse_control@@0W40@1@Z 10088e50 f i libucrtd:_fenvutils.obj
 0001:00087e90       ??$__acrt_fenv_translate_bit@W4__acrt_fenv_abstract_control@@W4__acrt_fenv_machine_x87_control@@@@YA?AW4__acrt_fenv_abstract_control@@W4__acrt_fenv_machine_x87_control@@0W40@1@Z 10088e90 f i libucrtd:_fenvutils.obj
 0001:00087ed0       ??$__acrt_fenv_translate_bit@W4__acrt_fenv_abstract_status@@W4__acrt_fenv_machine_sse_status@@@@YA?AW4__acrt_fenv_abstract_status@@W4__acrt_fenv_machine_sse_status@@0W40@1@Z 10088ed0 f i libucrtd:_fenvutils.obj
 0001:00087f10       ??$__acrt_fenv_translate_bit@W4__acrt_fenv_abstract_status@@W4__acrt_fenv_machine_x87_status@@@@YA?AW4__acrt_fenv_abstract_status@@W4__acrt_fenv_machine_x87_status@@0W40@1@Z 10088f10 f i libucrtd:_fenvutils.obj
 0001:00087f50       ??$__acrt_fenv_translate_bit@W4__acrt_fenv_machine_sse_control@@W4__acrt_fenv_abstract_control@@@@YA?AW4__acrt_fenv_machine_sse_control@@W4__acrt_fenv_abstract_control@@0W40@1@Z 10088f50 f i libucrtd:_fenvutils.obj
 0001:00087f90       ??$__acrt_fenv_translate_bit@W4__acrt_fenv_machine_sse_status@@W4__acrt_fenv_abstract_status@@@@YA?AW4__acrt_fenv_machine_sse_status@@W4__acrt_fenv_abstract_status@@0W40@1@Z 10088f90 f i libucrtd:_fenvutils.obj
 0001:00087fd0       ??$__acrt_fenv_translate_bit@W4__acrt_fenv_machine_x87_control@@W4__acrt_fenv_abstract_control@@@@YA?AW4__acrt_fenv_machine_x87_control@@W4__acrt_fenv_abstract_control@@0W40@1@Z 10088fd0 f i libucrtd:_fenvutils.obj
 0001:00088010       ??$__acrt_fenv_translate_bit@W4__acrt_fenv_machine_x87_status@@W4__acrt_fenv_abstract_status@@@@YA?AW4__acrt_fenv_machine_x87_status@@W4__acrt_fenv_abstract_status@@0W40@1@Z 10089010 f i libucrtd:_fenvutils.obj
 0001:00088050       ??$__acrt_fenv_unshift_bits@W4__acrt_fenv_abstract_control@@@@YA?AW4__acrt_fenv_abstract_control@@W40@0I@Z 10089050 f i libucrtd:_fenvutils.obj
 0001:00088070       ??$__acrt_fenv_unshift_bits@W4__acrt_fenv_abstract_status@@@@YA?AW4__acrt_fenv_abstract_status@@W40@0I@Z 10089070 f i libucrtd:_fenvutils.obj
 0001:00088aa0       ??I@YA?AW4__acrt_fenv_abstract_control@@W40@0@Z 10089aa0 f i libucrtd:_fenvutils.obj
 0001:00088ab0       ??I@YA?AW4__acrt_fenv_abstract_status@@W40@0@Z 10089ab0 f i libucrtd:_fenvutils.obj
 0001:00088ac0       ??I@YA?AW4__acrt_fenv_machine_sse_control@@W40@0@Z 10089ac0 f i libucrtd:_fenvutils.obj
 0001:00088ae0       ??I@YA?AW4__acrt_fenv_machine_sse_status@@W40@0@Z 10089ae0 f i libucrtd:_fenvutils.obj
 0001:00088af0       ??I@YA?AW4__acrt_fenv_machine_x87_control@@W40@0@Z 10089af0 f i libucrtd:_fenvutils.obj
 0001:00088b10       ??I@YA?AW4__acrt_fenv_machine_x87_status@@W40@0@Z 10089b10 f i libucrtd:_fenvutils.obj
 0001:00088b20       ??U@YA?AW4__acrt_fenv_abstract_control@@W40@0@Z 10089b20 f i libucrtd:_fenvutils.obj
 0001:00088b30       ??U@YA?AW4__acrt_fenv_abstract_status@@W40@0@Z 10089b30 f i libucrtd:_fenvutils.obj
 0001:00088b40       ??U@YA?AW4__acrt_fenv_machine_sse_control@@W40@0@Z 10089b40 f i libucrtd:_fenvutils.obj
 0001:00088b60       ??U@YA?AW4__acrt_fenv_machine_x87_control@@W40@0@Z 10089b60 f i libucrtd:_fenvutils.obj
 0001:00088b80       ??_5@YAAAW4__acrt_fenv_abstract_control@@AAW40@W40@@Z 10089b80 f i libucrtd:_fenvutils.obj
 0001:00088ba0       ??_5@YAAAW4__acrt_fenv_abstract_status@@AAW40@W40@@Z 10089ba0 f i libucrtd:_fenvutils.obj
 0001:00088bc0       ??_5@YAAAW4__acrt_fenv_machine_sse_control@@AAW40@W40@@Z 10089bc0 f i libucrtd:_fenvutils.obj
 0001:00088be0       ??_5@YAAAW4__acrt_fenv_machine_sse_status@@AAW40@W40@@Z 10089be0 f i libucrtd:_fenvutils.obj
 0001:00088c00       ??_5@YAAAW4__acrt_fenv_machine_x87_control@@AAW40@W40@@Z 10089c00 f i libucrtd:_fenvutils.obj
 0001:00088c20       ??_5@YAAAW4__acrt_fenv_machine_x87_status@@AAW40@W40@@Z 10089c20 f i libucrtd:_fenvutils.obj
 0001:00088c40       ?__acrt_fenv_shift_abstract_sse_control@@YA?AW4__acrt_fenv_abstract_control@@W41@@Z 10089c40 f i libucrtd:_fenvutils.obj
 0001:00088c90       ?__acrt_fenv_shift_abstract_sse_status@@YA?AW4__acrt_fenv_abstract_status@@W41@@Z 10089c90 f i libucrtd:_fenvutils.obj
 0001:00088cb0       ?__acrt_fenv_shift_abstract_x87_control@@YA?AW4__acrt_fenv_abstract_control@@W41@@Z 10089cb0 f i libucrtd:_fenvutils.obj
 0001:00088d00       ?__acrt_fenv_shift_abstract_x87_status@@YA?AW4__acrt_fenv_abstract_status@@W41@@Z 10089d00 f i libucrtd:_fenvutils.obj
 0001:00088d20       ?__acrt_fenv_unshift_abstract_sse_control@@YA?AW4__acrt_fenv_abstract_control@@W41@@Z 10089d20 f i libucrtd:_fenvutils.obj
 0001:00088d70       ?__acrt_fenv_unshift_abstract_sse_status@@YA?AW4__acrt_fenv_abstract_status@@W41@@Z 10089d70 f i libucrtd:_fenvutils.obj
 0001:00088d90       ?__acrt_fenv_unshift_abstract_x87_control@@YA?AW4__acrt_fenv_abstract_control@@W41@@Z 10089d90 f i libucrtd:_fenvutils.obj
 0001:00088de0       ?__acrt_fenv_unshift_abstract_x87_status@@YA?AW4__acrt_fenv_abstract_status@@W41@@Z 10089de0 f i libucrtd:_fenvutils.obj
 0001:00089390       ___acrt_fenv_expand_round_control 1008a390 f   libucrtd:_fenvutils.obj
 0001:000893e0       ___acrt_fenv_get_common_round_control 1008a3e0 f   libucrtd:_fenvutils.obj
 0001:00089440       ___acrt_fenv_get_control   1008a440 f   libucrtd:_fenvutils.obj
 0001:000894d0       ___acrt_fenv_get_fp_status_word_from_exception_mask 1008a4d0 f   libucrtd:_fenvutils.obj
 0001:00089520       ___acrt_fenv_get_status    1008a520 f   libucrtd:_fenvutils.obj
 0001:000895a0       ___acrt_fenv_set_control   1008a5a0 f   libucrtd:_fenvutils.obj
 0001:000895e0       ___acrt_fenv_set_status    1008a5e0 f   libucrtd:_fenvutils.obj
 0001:000897a0       ___acrt_GetLocaleInfoA     1008a7a0 f   libucrtd:getlocaleinfoa.obj
 0001:00089b60       ?reset_and_return@__crt_mbstring@@YAIIPAU_Mbstatet@@@Z 1008ab60 f   libucrtd:common_utf8.obj
 0001:00089b90       ?return_illegal_sequence@__crt_mbstring@@YAIPAU_Mbstatet@@AAV__crt_cached_ptd_host@@@Z 1008ab90 f   libucrtd:common_utf8.obj
 0001:00089bd0       ?__mbrtoc32_utf8@__crt_mbstring@@YAIPA_UPBDIPAU_Mbstatet@@AAV__crt_cached_ptd_host@@@Z 1008abd0 f   libucrtd:mbrtoc32.obj
 0001:00089ec0       _mbrtoc32                  1008aec0 f   libucrtd:mbrtoc32.obj
 0001:00089f00       ___acrt_stdio_allocate_buffer_nolock 1008af00 f   libucrtd:_getbuf.obj
 0001:0008a020       ___ascii_wcsicmp           1008b020 f   libucrtd:wcsicmp.obj
 0001:0008a090       __wcsicmp                  1008b090 f   libucrtd:wcsicmp.obj
 0001:0008a1d0       __wcsicmp_l                1008b1d0 f   libucrtd:wcsicmp.obj
 0001:0008a4e0       ___dcrt_lowio_ensure_console_output_initialized 1008b4e0 f   libucrtd:initcon.obj
 0001:0008a510       ___dcrt_terminate_console_output 1008b510 f   libucrtd:initcon.obj
 0001:0008a540       ___dcrt_write_console      1008b540 f   libucrtd:initcon.obj
 0001:0008a570       ?__wcsrtombs_utf8@__crt_mbstring@@YAIPADPAPB_WIPAU_Mbstatet@@AAV__crt_cached_ptd_host@@@Z 1008b570 f   libucrtd:wcrtomb.obj
 0001:0008adb0       _wcrtomb                   1008bdb0 f   libucrtd:wcrtomb.obj
 0001:0008ae10       _wcrtomb_s                 1008be10 f   libucrtd:wcrtomb.obj
 0001:0008ae60       _wcsrtombs                 1008be60 f   libucrtd:wcrtomb.obj
 0001:0008aeb0       _wcsrtombs_s               1008beb0 f   libucrtd:wcrtomb.obj
 0001:0008b2b0       _wctob                     1008c2b0 f   libucrtd:wcrtomb.obj
 0001:0008b370       ___strncnt                 1008c370 f   libucrtd:strncnt.obj
 0001:0008b3c0       ___acrt_CompareStringW     1008c3c0 f   libucrtd:comparestringw.obj
 0001:0008b470       __strnicmp                 1008c470 f   libucrtd:strnicmp.obj
 0001:0008b630       __strnicmp_l               1008c630 f   libucrtd:strnicmp.obj
 0001:0008bd20       ___acrt_CompareStringA     1008cd20 f   libucrtd:comparestringa.obj
 0001:0008bd80       __towlower_l               1008cd80 f   libucrtd:towlower.obj
 0001:0008bec0       _towlower                  1008cec0 f   libucrtd:towlower.obj
 0001:0008bee0       ___acrt_initialize_sse2    1008cee0 f   libucrtd:mathfcns.obj
 0001:0008bf00       __set_SSE2_enable          1008cf00 f   libucrtd:mathfcns.obj
 0001:0008bf50       __CIlog10                  1008cf50 f   libucrtd:log10_impl.obj
 0001:0008bf8b       __CIlog10_default          1008cf8b f   libucrtd:log10_impl.obj
 0001:0008bf9f       __log10_default            1008cf9f     libucrtd:log10_impl.obj
 0001:0008c060       __CIlog10_pentium4         1008d060 f   libucrtd:log10_pentium4.obj
 0001:0008c078       __log10_pentium4           1008d078     libucrtd:log10_pentium4.obj
 0001:0008c2f0       ___libm_error_support      1008d2f0 f   libucrtd:libm_error.obj
 0001:0008c8b0       ___libm_setusermatherr     1008d8b0 f   libucrtd:libm_error.obj
 0001:0008c8f0       __ceil_default             1008d8f0 f   libucrtd:ceil.obj
 0001:0008cc20       ___control87_2             1008dc20 f   libucrtd:ieee87.obj
 0001:0008cd50       ___fpreset_sse2            1008dd50 f   libucrtd:ieee87.obj
 0001:0008d0c0       __clearfp                  1008e0c0 f   libucrtd:ieee87.obj
 0001:0008d110       __control87                1008e110 f   libucrtd:ieee87.obj
 0001:0008d1c0       __controlfp                1008e1c0 f   libucrtd:ieee87.obj
 0001:0008d1e0       __fpreset                  1008e1e0 f   libucrtd:ieee87.obj
 0001:0008d3a0       __set_controlfp            1008e3a0 f   libucrtd:ieee87.obj
 0001:0008d430       __statusfp                 1008e430 f   libucrtd:ieee87.obj
 0001:0008d480       __statusfp2                1008e480 f   libucrtd:ieee87.obj
 0001:0008d4c0       ?__c16rtomb_utf8@__crt_mbstring@@YAIPAD_SPAU_Mbstatet@@AAV__crt_cached_ptd_host@@@Z 1008e4c0 f   libucrtd:c16rtomb.obj
 0001:0008d6d0       _c16rtomb                  1008e6d0 f   libucrtd:c16rtomb.obj
 0001:0008d710       ___ascii_strnicmp          1008e710 f   libucrtd:_strnicm.obj
 0001:0008d780       ___acrt_LCMapStringW       1008e780 f   libucrtd:lcmapstringw.obj
 0001:0008d800       __fFEXP                    1008e800 f   libucrtd:87tran.obj
 0001:0008d857       __rtinfpopse               1008e857     libucrtd:87tran.obj
 0001:0008d859       __rtinfnpopse              1008e859     libucrtd:87tran.obj
 0001:0008d869       __fFLN                     1008e869     libucrtd:87tran.obj
 0001:0008d91e       __rtinfpop                 1008e91e     libucrtd:87tran.obj
 0001:0008d920       __rtinfnpop                1008e920     libucrtd:87tran.obj
 0001:0008d930       __rtforexpinf              1008e930 f   libucrtd:87tran.obj
 0001:0008d93d       __ffexpm1                  1008e93d     libucrtd:87tran.obj
 0001:0008d9f0       __trandisp1                1008e9f0 f   libucrtd:87disp.obj
 0001:0008da65       __trandisp2                1008ea65 f   libucrtd:87disp.obj
 0001:0008daff       __rttospopde               1008eaff     libucrtd:87disp.obj
 0001:0008db04       __rttospop                 1008eb04     libucrtd:87disp.obj
 0001:0008db10       __rtnospop                 1008eb10 f   libucrtd:87disp.obj
 0001:0008db20       __rttosnpop                1008eb20 f   libucrtd:87disp.obj
 0001:0008db21       __rtnospopde               1008eb21     libucrtd:87disp.obj
 0001:0008db28       __rtzeropop                1008eb28     libucrtd:87disp.obj
 0001:0008db2a       __rtzeronpop               1008eb2a     libucrtd:87disp.obj
 0001:0008db30       __rtzerospop               1008eb30 f   libucrtd:87disp.obj
 0001:0008db3d       __rtonepop                 1008eb3d     libucrtd:87disp.obj
 0001:0008db40       __rtonenpop                1008eb40 f   libucrtd:87disp.obj
 0001:0008db50       __tosnan1                  1008eb50 f   libucrtd:87disp.obj
 0001:0008db80       __nosnan2                  1008eb80 f   libucrtd:87disp.obj
 0001:0008db90       __tosnan2                  1008eb90 f   libucrtd:87disp.obj
 0001:0008dbc0       __nan2                     1008ebc0 f   libucrtd:87disp.obj
 0001:0008dc00       __rtindfpop                1008ec00 f   libucrtd:87disp.obj
 0001:0008dc02       __rtindfnpop               1008ec02     libucrtd:87disp.obj
 0001:0008dc13       __rttosnpopde              1008ec13     libucrtd:87disp.obj
 0001:0008dc20       __rtatan2inf               1008ec20 f   libucrtd:87disp.obj
 0001:0008dc3d       __rtchsifneg               1008ec3d     libucrtd:87disp.obj
 0001:0008dc50       ___setfflag                1008ec50 f   libucrtd:fp_flags.obj
 0001:0008dc70       __twoToTOS                 1008ec70 f   libucrtd:common.obj
 0001:0008dc85       __load_CW                  1008ec85 f   libucrtd:common.obj
 0001:0008dc9c       __convertTOStoQNaN         1008ec9c f   libucrtd:common.obj
 0001:0008dcb5       __fload_withFB             1008ecb5 f   libucrtd:common.obj
 0001:0008dcf8       __checkTOS_withFB          1008ecf8 f   libucrtd:common.obj
 0001:0008dd0e       __fast_exit                1008ed0e f   libucrtd:common.obj
 0001:0008dd1b       __math_exit                1008ed1b f   libucrtd:common.obj
 0001:0008dd45       __check_overflow_exit      1008ed45 f   libucrtd:common.obj
 0001:0008dd59       __check_range_exit         1008ed59 f   libucrtd:common.obj
 0001:0008de00       __startTwoArgErrorHandling 1008ee00 f   libucrtd:genexcep.obj
 0001:0008de17       __startOneArgErrorHandling 1008ee17 f   libucrtd:genexcep.obj
 0001:0008de60       __frnd                     1008ee60 f   libucrtd:frnd.obj
 0001:0008de80       ?should_round_up@__crt_strtox@@YA_N_N000@Z 1008ee80 f i libucrtd:fpexcept.obj
 0001:0008df70       __errcode                  1008ef70 f   libucrtd:fpexcept.obj
 0001:0008dff0       __except1                  1008eff0 f   libucrtd:fpexcept.obj
 0001:0008e0f0       __except2                  1008f0f0 f   libucrtd:fpexcept.obj
 0001:0008e250       __handle_exc               1008f250 f   libucrtd:fpexcept.obj
 0001:0008e5e0       __handle_qnan2             1008f5e0 f   libucrtd:fpexcept.obj
 0001:0008e600       __raise_exc                1008f600 f   libucrtd:fpexcept.obj
 0001:0008e630       __raise_exc_ex             1008f630 f   libucrtd:fpexcept.obj
 0001:0008ebb0       __raise_excf               1008fbb0 f   libucrtd:fpexcept.obj
 0001:0008ebe0       __set_errno_from_matherr   1008fbe0 f   libucrtd:fpexcept.obj
 0001:0008ec20       __umatherr                 1008fc20 f   libucrtd:fpexcept.obj
 0001:0008ecc0       __add_exp                  1008fcc0 f   libucrtd:util.obj
 0001:0008ed00       __decomp                   1008fd00 f   libucrtd:util.obj
 0001:0008ee30       __get_exp                  1008fe30 f   libucrtd:util.obj
 0001:0008ee60       __set_bexp                 1008fe60 f   libucrtd:util.obj
 0001:0008ee90       __set_exp                  1008fe90 f   libucrtd:util.obj
 0001:0008eed0       __sptype                   1008fed0 f   libucrtd:util.obj
 0001:0008ef50       ___clrfp_sse2              1008ff50 f   libucrtd:fpctrl.obj
 0001:0008ef90       ___ctrlfp_sse2             1008ff90 f   libucrtd:fpctrl.obj
 0001:0008eff0       ___fclrf_sse2              1008fff0 f   libucrtd:fpctrl.obj
 0001:0008f010       ___get_fpsr_sse2           10090010 f   libucrtd:fpctrl.obj
 0001:0008f040       ___set_fpsr_sse2           10090040 f   libucrtd:fpctrl.obj
 0001:0008f120       ___set_statfp_sse2         10090120 f   libucrtd:fpctrl.obj
 0001:0008f150       ___statfp_sse2             10090150 f   libucrtd:fpctrl.obj
 0001:0008f180       __clrfp                    10090180 f   libucrtd:fpctrl.obj
 0001:0008f1a0       __ctrlfp                   100901a0 f   libucrtd:fpctrl.obj
 0001:0008f1d0       __set_statfp               100901d0 f   libucrtd:fpctrl.obj
 0001:0008f240       __statfp                   10090240 f   libucrtd:fpctrl.obj
 0001:0008f260       __d_inttype                10090260 f   libucrtd:powhlp.obj
 0001:0008f2f0       __powhlp                   100902f0 f   libucrtd:powhlp.obj
 0001:0008f490       __87except                 10090490 f   libucrtd:87except.obj
 0001:0008f680       __chgsign                  10090680 f   libucrtd:ieeemisc.obj
 0001:0008f6c0       __chgsignf                 100906c0 f   libucrtd:ieeemisc.obj
 0001:0008f700       __copysign                 10090700 f   libucrtd:ieeemisc.obj
 0001:0008f740       __copysignf                10090740 f   libucrtd:ieeemisc.obj
 0001:0008f790       __finite                   10090790 f   libucrtd:ieeemisc.obj
 0001:0008f7b0       __fpclass                  100907b0 f   libucrtd:ieeemisc.obj
 0001:0008f8b0       __isnan                    100908b0 f   libucrtd:ieeemisc.obj
 0001:0008f900       __logb                     10090900 f   libucrtd:ieeemisc.obj
 0001:0008fa20       __nextafter                10090a20 f   libucrtd:ieeemisc.obj
 0001:0008fa50       __scalb                    10090a50 f   libucrtd:ieeemisc.obj
 0001:0008fa70       _ldexp                     10090a70 f   libucrtd:ldexp.obj
 0001:0008fd70       _nextafter                 10090d70 f   libucrtd:nextafter.obj
 0001:0008fda0       _nexttoward                10090da0 f   libucrtd:nexttoward.obj
 0001:000901e0       __d_int                    100911e0 f   libucrtd:_test.obj
 0001:00090490       __dtest                    10091490 f   libucrtd:_test.obj
 0001:000905b0       __fd_int                   100915b0 f   libucrtd:_test.obj
 0001:00090790       __fdtest                   10091790 f   libucrtd:_test.obj
 0001:00090860       __fperrraise               10091860 f   libucrtd:_test.obj
 0001:00090890       __ld_int                   10091890 f   libucrtd:_test.obj
 0001:000908b0       __ldtest                   100918b0 f   libucrtd:_test.obj
 0001:000908d0       ??_4@YAAAW4__acrt_fenv_abstract_status@@AAW40@W40@@Z 100918d0 f i libucrtd:fegetexceptflag.obj
 0001:000908f0       _fegetexceptflag           100918f0 f   libucrtd:fegetexceptflag.obj
 0001:00090940       ??S@YA?AW4__acrt_fenv_abstract_status@@W40@@Z 10091940 f i libucrtd:fesetexceptflag.obj
 0001:00090950       _fesetexceptflag           10091950 f   libucrtd:fesetexceptflag.obj
 0001:00090a20       _fetestexcept              10091a20 f   libucrtd:fetestexcept.obj
 0001:00090a47       _UnhandledExceptionFilter@4 10091a47 f   kernel32:KERNEL32.dll
 0001:00090a4d       _SetUnhandledExceptionFilter@4 10091a4d f   kernel32:KERNEL32.dll
 0001:00090a53       _GetCurrentProcess@0       10091a53 f   kernel32:KERNEL32.dll
 0001:00090a59       _TerminateProcess@8        10091a59 f   kernel32:KERNEL32.dll
 0001:00090a5f       _IsProcessorFeaturePresent@4 10091a5f f   kernel32:KERNEL32.dll
 0001:00090a65       _QueryPerformanceCounter@4 10091a65 f   kernel32:KERNEL32.dll
 0001:00090a6b       _GetCurrentProcessId@0     10091a6b f   kernel32:KERNEL32.dll
 0001:00090a71       _GetCurrentThreadId@0      10091a71 f   kernel32:KERNEL32.dll
 0001:00090a77       _GetSystemTimeAsFileTime@4 10091a77 f   kernel32:KERNEL32.dll
 0001:00090a7d       _InitializeSListHead@4     10091a7d f   kernel32:KERNEL32.dll
 0001:00090a83       _IsDebuggerPresent@0       10091a83 f   kernel32:KERNEL32.dll
 0001:00090a89       _GetStartupInfoW@4         10091a89 f   kernel32:KERNEL32.dll
 0001:00090a8f       _GetModuleHandleW@4        10091a8f f   kernel32:KERNEL32.dll
 0001:00090a95       _RaiseException@16         10091a95 f   kernel32:KERNEL32.dll
 0001:00090a9b       _MultiByteToWideChar@24    10091a9b f   kernel32:KERNEL32.dll
 0001:00090aa1       _WideCharToMultiByte@32    10091aa1 f   kernel32:KERNEL32.dll
 0001:00090aa7       _HeapAlloc@12              10091aa7 f   kernel32:KERNEL32.dll
 0001:00090aad       _HeapFree@12               10091aad f   kernel32:KERNEL32.dll
 0001:00090ab3       _GetProcessHeap@0          10091ab3 f   kernel32:KERNEL32.dll
 0001:00090ab9       _VirtualQuery@12           10091ab9 f   kernel32:KERNEL32.dll
 0001:00090abf       _FreeLibrary@4             10091abf f   kernel32:KERNEL32.dll
 0001:00090ac5       _GetProcAddress@8          10091ac5 f   kernel32:KERNEL32.dll
 0001:00090acb       _InterlockedPushEntrySList@8 10091acb f   kernel32:KERNEL32.dll
 0001:00090ad1       _InterlockedFlushSList@4   10091ad1 f   kernel32:KERNEL32.dll
 0001:00090ad7       _GetModuleFileNameW@12     10091ad7 f   kernel32:KERNEL32.dll
 0001:00090add       _LoadLibraryExW@12         10091add f   kernel32:KERNEL32.dll
 0001:00090ae3       _RtlUnwind@16              10091ae3 f   kernel32:KERNEL32.dll
 0001:00090ae9       _SetLastError@4            10091ae9 f   kernel32:KERNEL32.dll
 0001:00090aef       _EnterCriticalSection@4    10091aef f   kernel32:KERNEL32.dll
 0001:00090af5       _LeaveCriticalSection@4    10091af5 f   kernel32:KERNEL32.dll
 0001:00090afb       _DeleteCriticalSection@4   10091afb f   kernel32:KERNEL32.dll
 0001:00090b01       _InitializeCriticalSectionAndSpinCount@8 10091b01 f   kernel32:KERNEL32.dll
 0001:00090b07       _TlsAlloc@0                10091b07 f   kernel32:KERNEL32.dll
 0001:00090b0d       _TlsGetValue@4             10091b0d f   kernel32:KERNEL32.dll
 0001:00090b13       _TlsSetValue@8             10091b13 f   kernel32:KERNEL32.dll
 0001:00090b19       _TlsFree@4                 10091b19 f   kernel32:KERNEL32.dll
 0001:00090b1f       _EncodePointer@4           10091b1f f   kernel32:KERNEL32.dll
 0001:00090b25       _GetStdHandle@4            10091b25 f   kernel32:KERNEL32.dll
 0001:00090b2b       _GetFileType@4             10091b2b f   kernel32:KERNEL32.dll
 0001:00090b31       _GetModuleHandleExW@12     10091b31 f   kernel32:KERNEL32.dll
 0001:00090b37       _WriteConsoleW@20          10091b37 f   kernel32:KERNEL32.dll
 0001:00090b3d       _ExitProcess@4             10091b3d f   kernel32:KERNEL32.dll
 0001:00090b43       _HeapValidate@12           10091b43 f   kernel32:KERNEL32.dll
 0001:00090b49       _GetSystemInfo@4           10091b49 f   kernel32:KERNEL32.dll
 0001:00090b4f       _OutputDebugStringW@4      10091b4f f   kernel32:KERNEL32.dll
 0001:00090b55       _SetConsoleCtrlHandler@8   10091b55 f   kernel32:KERNEL32.dll
 0001:00090b5b       _GetCurrentThread@0        10091b5b f   kernel32:KERNEL32.dll
 0001:00090b61       _GetTempPathW@8            10091b61 f   kernel32:KERNEL32.dll
 0001:00090b67       _GetDateFormatW@24         10091b67 f   kernel32:KERNEL32.dll
 0001:00090b6d       _GetTimeFormatW@24         10091b6d f   kernel32:KERNEL32.dll
 0001:00090b73       _CompareStringW@24         10091b73 f   kernel32:KERNEL32.dll
 0001:00090b79       _LCMapStringW@24           10091b79 f   kernel32:KERNEL32.dll
 0001:00090b7f       _GetLocaleInfoW@16         10091b7f f   kernel32:KERNEL32.dll
 0001:00090b85       _IsValidLocale@8           10091b85 f   kernel32:KERNEL32.dll
 0001:00090b8b       _GetUserDefaultLCID@0      10091b8b f   kernel32:KERNEL32.dll
 0001:00090b91       _EnumSystemLocalesW@8      10091b91 f   kernel32:KERNEL32.dll
 0001:00090b97       _SetStdHandle@8            10091b97 f   kernel32:KERNEL32.dll
 0001:00090b9d       _GetConsoleOutputCP@0      10091b9d f   kernel32:KERNEL32.dll
 0001:00090ba3       _GetConsoleMode@8          10091ba3 f   kernel32:KERNEL32.dll
 0001:00090ba9       _FindClose@4               10091ba9 f   kernel32:KERNEL32.dll
 0001:00090baf       _FindFirstFileExW@24       10091baf f   kernel32:KERNEL32.dll
 0001:00090bb5       _FindNextFileW@8           10091bb5 f   kernel32:KERNEL32.dll
 0001:00090bbb       _IsValidCodePage@4         10091bbb f   kernel32:KERNEL32.dll
 0001:00090bc1       _GetACP@0                  10091bc1 f   kernel32:KERNEL32.dll
 0001:00090bc7       _GetOEMCP@0                10091bc7 f   kernel32:KERNEL32.dll
 0001:00090bcd       _GetCPInfo@8               10091bcd f   kernel32:KERNEL32.dll
 0001:00090bd3       _GetCommandLineA@0         10091bd3 f   kernel32:KERNEL32.dll
 0001:00090bd9       _GetCommandLineW@0         10091bd9 f   kernel32:KERNEL32.dll
 0001:00090bdf       _GetEnvironmentStringsW@0  10091bdf f   kernel32:KERNEL32.dll
 0001:00090be5       _FreeEnvironmentStringsW@4 10091be5 f   kernel32:KERNEL32.dll
 0001:00090beb       _SetEnvironmentVariableW@8 10091beb f   kernel32:KERNEL32.dll
 0001:00090bf1       _HeapReAlloc@16            10091bf1 f   kernel32:KERNEL32.dll
 0001:00090bf7       _HeapSize@12               10091bf7 f   kernel32:KERNEL32.dll
 0001:00090bfd       _HeapQueryInformation@20   10091bfd f   kernel32:KERNEL32.dll
 0001:00090c03       _FlushFileBuffers@4        10091c03 f   kernel32:KERNEL32.dll
 0001:00090c09       _GetFileSizeEx@8           10091c09 f   kernel32:KERNEL32.dll
 0001:00090c0f       _SetFilePointerEx@20       10091c0f f   kernel32:KERNEL32.dll
 0001:00090c15       _GetStringTypeW@16         10091c15 f   kernel32:KERNEL32.dll
 0001:00090c1b       _ReadConsoleW@20           10091c1b f   kernel32:KERNEL32.dll
 0001:00090c21       _CreateFileW@28            10091c21 f   kernel32:KERNEL32.dll
 0001:00090c27       _DecodePointer@4           10091c27 f   kernel32:KERNEL32.dll
 0001:00090c30       __FindPESection            10091c30 f   LIBCMTD:pesect.obj
 0001:00090cb0       __IsNonwritableInCurrentImage 10091cb0 f   LIBCMTD:pesect.obj
 0001:00090de0       __ValidateImageBase        10091de0 f   LIBCMTD:pesect.obj
 0001:00090e40       ??1type_info@@UAE@XZ       10091e40 f   LIBCMTD:std_type_info_static.obj
 0001:00090e60       ??_Etype_info@@UAEPAXI@Z   10091e60 f i LIBCMTD:std_type_info_static.obj
 0001:00090e60       ??_Gtype_info@@UAEPAXI@Z   10091e60 f i LIBCMTD:std_type_info_static.obj
 0001:00090e90       __allshl                   10091e90 f   LIBCMTD:llshl.obj
 0001:00090eb0       __aulldiv                  10091eb0 f   LIBCMTD:ulldiv.obj
 0001:00090f20       __aullrem                  10091f20 f   LIBCMTD:ullrem.obj
 0001:00090fa0       @_guard_check_icall@4      10091fa0 f i LIBCMTD:checkcfg.obj
 0001:00090fc0       ??3@YAXPAXI@Z              10091fc0 f   LIBCMTD:delete_scalar_size.obj
 0001:00090fe0       __alloca_probe             10091fe0 f   LIBCMTD:chkstk.obj
 0001:00090fe0       __chkstk                   10091fe0 f   LIBCMTD:chkstk.obj
 0001:00091010       __allmul                   10092010 f   LIBCMTD:llmul.obj
 0001:00091050       __alldiv                   10092050 f   LIBCMTD:lldiv.obj
 0001:00091100       __allrem                   10092100 f   LIBCMTD:llrem.obj
 0001:000911c0       __aullshr                  100921c0 f   LIBCMTD:ullshr.obj
 0001:000911e0       __alloca_probe_16          100921e0 f   LIBCMTD:alloca16.obj
 0001:000911f6       __alloca_probe_8           100921f6     LIBCMTD:alloca16.obj
 0001:00091210       __ftol2_sse_excpt          10092210 f   LIBCMTD:ftol2.obj
 0001:00091220       __ftol2_sse                10092220 f   LIBCMTD:ftol2.obj
 0001:00091230       __ftoi2                    10092230 f   LIBCMTD:ftol2.obj
 0001:000912b0       __ftoui2                   100922b0 f   LIBCMTD:ftol2.obj
 0001:00091360       __ftol2                    10092360 f   LIBCMTD:ftol2.obj
 0001:00091410       __ftoul2                   10092410 f   LIBCMTD:ftol2.obj
 0001:000914d0       __ftoul2_legacy            100924d0 f   LIBCMTD:ftol2.obj
 0001:000914f0       __initialize_default_precision 100924f0 f   LIBCMTD:default_precision.obj
 0001:00091520       ??3@YAXPAX@Z               10092520 f   LIBCMTD:delete_scalar.obj
 0001:00091540       _strrchr                   10092540 f   libvcruntimed:strrchr.obj
 0001:00091830       _memcmp                    10092830 f   libvcruntimed:memcmp.obj
 0001:00092100       _strchr                    10093100 f   libvcruntimed:strchr.obj
 0001:0009216e       ___from_strstr_to_strchr   1009316e     libvcruntimed:strchr.obj
 0001:00092230       _wcschr                    10093230 f   libvcruntimed:wcschr.obj
 0001:000923a0       __filter_x86_sse2_floating_point_exception 100933a0 f   LIBCMTD:x86_exception_filter.obj
 0001:000923a0       __filter_x86_sse2_floating_point_exception_default 100933a0 f   LIBCMTD:x86_exception_filter.obj
 0002:00000000       __imp__GetModuleFileNameW@12 10095000     kernel32:KERNEL32.dll
 0002:00000004       __imp__CreateFileW@28      10095004     kernel32:KERNEL32.dll
 0002:00000008       __imp__ReadConsoleW@20     10095008     kernel32:KERNEL32.dll
 0002:0000000c       __imp__GetStringTypeW@16   1009500c     kernel32:KERNEL32.dll
 0002:00000010       __imp__SetFilePointerEx@20 10095010     kernel32:KERNEL32.dll
 0002:00000014       __imp__GetFileSizeEx@8     10095014     kernel32:KERNEL32.dll
 0002:00000018       __imp__FlushFileBuffers@4  10095018     kernel32:KERNEL32.dll
 0002:0000001c       __imp__HeapQueryInformation@20 1009501c     kernel32:KERNEL32.dll
 0002:00000020       __imp__HeapSize@12         10095020     kernel32:KERNEL32.dll
 0002:00000024       __imp__HeapReAlloc@16      10095024     kernel32:KERNEL32.dll
 0002:00000028       __imp__SetEnvironmentVariableW@8 10095028     kernel32:KERNEL32.dll
 0002:0000002c       __imp__FreeEnvironmentStringsW@4 1009502c     kernel32:KERNEL32.dll
 0002:00000030       __imp__GetEnvironmentStringsW@0 10095030     kernel32:KERNEL32.dll
 0002:00000034       __imp__GetCommandLineW@0   10095034     kernel32:KERNEL32.dll
 0002:00000038       __imp__GetCommandLineA@0   10095038     kernel32:KERNEL32.dll
 0002:0000003c       __imp__GetCPInfo@8         1009503c     kernel32:KERNEL32.dll
 0002:00000040       __imp__GetOEMCP@0          10095040     kernel32:KERNEL32.dll
 0002:00000044       __imp__GetACP@0            10095044     kernel32:KERNEL32.dll
 0002:00000048       __imp__IsValidCodePage@4   10095048     kernel32:KERNEL32.dll
 0002:0000004c       __imp__FindNextFileW@8     1009504c     kernel32:KERNEL32.dll
 0002:00000050       __imp__FindFirstFileExW@24 10095050     kernel32:KERNEL32.dll
 0002:00000054       __imp__FindClose@4         10095054     kernel32:KERNEL32.dll
 0002:00000058       __imp__CreateFileA@28      10095058     kernel32:KERNEL32.dll
 0002:0000005c       __imp__ReadFile@20         1009505c     kernel32:KERNEL32.dll
 0002:00000060       __imp__WriteFile@20        10095060     kernel32:KERNEL32.dll
 0002:00000064       __imp__CloseHandle@4       10095064     kernel32:KERNEL32.dll
 0002:00000068       __imp__GetLastError@0      10095068     kernel32:KERNEL32.dll
 0002:0000006c       __imp__GetCommState@8      1009506c     kernel32:KERNEL32.dll
 0002:00000070       __imp__PurgeComm@8         10095070     kernel32:KERNEL32.dll
 0002:00000074       __imp__SetCommState@8      10095074     kernel32:KERNEL32.dll
 0002:00000078       __imp__SetCommTimeouts@8   10095078     kernel32:KERNEL32.dll
 0002:0000007c       __imp__Sleep@4             1009507c     kernel32:KERNEL32.dll
 0002:00000080       __imp__GetConsoleMode@8    10095080     kernel32:KERNEL32.dll
 0002:00000084       __imp__UnhandledExceptionFilter@4 10095084     kernel32:KERNEL32.dll
 0002:00000088       __imp__SetUnhandledExceptionFilter@4 10095088     kernel32:KERNEL32.dll
 0002:0000008c       __imp__GetCurrentProcess@0 1009508c     kernel32:KERNEL32.dll
 0002:00000090       __imp__TerminateProcess@8  10095090     kernel32:KERNEL32.dll
 0002:00000094       __imp__IsProcessorFeaturePresent@4 10095094     kernel32:KERNEL32.dll
 0002:00000098       __imp__QueryPerformanceCounter@4 10095098     kernel32:KERNEL32.dll
 0002:0000009c       __imp__GetCurrentProcessId@0 1009509c     kernel32:KERNEL32.dll
 0002:000000a0       __imp__GetCurrentThreadId@0 100950a0     kernel32:KERNEL32.dll
 0002:000000a4       __imp__GetSystemTimeAsFileTime@4 100950a4     kernel32:KERNEL32.dll
 0002:000000a8       __imp__InitializeSListHead@4 100950a8     kernel32:KERNEL32.dll
 0002:000000ac       __imp__IsDebuggerPresent@0 100950ac     kernel32:KERNEL32.dll
 0002:000000b0       __imp__GetStartupInfoW@4   100950b0     kernel32:KERNEL32.dll
 0002:000000b4       __imp__GetModuleHandleW@4  100950b4     kernel32:KERNEL32.dll
 0002:000000b8       __imp__RaiseException@16   100950b8     kernel32:KERNEL32.dll
 0002:000000bc       __imp__MultiByteToWideChar@24 100950bc     kernel32:KERNEL32.dll
 0002:000000c0       __imp__WideCharToMultiByte@32 100950c0     kernel32:KERNEL32.dll
 0002:000000c4       __imp__HeapAlloc@12        100950c4     kernel32:KERNEL32.dll
 0002:000000c8       __imp__HeapFree@12         100950c8     kernel32:KERNEL32.dll
 0002:000000cc       __imp__GetProcessHeap@0    100950cc     kernel32:KERNEL32.dll
 0002:000000d0       __imp__VirtualQuery@12     100950d0     kernel32:KERNEL32.dll
 0002:000000d4       __imp__FreeLibrary@4       100950d4     kernel32:KERNEL32.dll
 0002:000000d8       __imp__GetProcAddress@8    100950d8     kernel32:KERNEL32.dll
 0002:000000dc       __imp__InterlockedPushEntrySList@8 100950dc     kernel32:KERNEL32.dll
 0002:000000e0       __imp__InterlockedFlushSList@4 100950e0     kernel32:KERNEL32.dll
 0002:000000e4       __imp__DecodePointer@4     100950e4     kernel32:KERNEL32.dll
 0002:000000e8       __imp__LoadLibraryExW@12   100950e8     kernel32:KERNEL32.dll
 0002:000000ec       __imp__RtlUnwind@16        100950ec     kernel32:KERNEL32.dll
 0002:000000f0       __imp__SetLastError@4      100950f0     kernel32:KERNEL32.dll
 0002:000000f4       __imp__EnterCriticalSection@4 100950f4     kernel32:KERNEL32.dll
 0002:000000f8       __imp__LeaveCriticalSection@4 100950f8     kernel32:KERNEL32.dll
 0002:000000fc       __imp__DeleteCriticalSection@4 100950fc     kernel32:KERNEL32.dll
 0002:00000100       __imp__InitializeCriticalSectionAndSpinCount@8 10095100     kernel32:KERNEL32.dll
 0002:00000104       __imp__TlsAlloc@0          10095104     kernel32:KERNEL32.dll
 0002:00000108       __imp__TlsGetValue@4       10095108     kernel32:KERNEL32.dll
 0002:0000010c       __imp__TlsSetValue@8       1009510c     kernel32:KERNEL32.dll
 0002:00000110       __imp__TlsFree@4           10095110     kernel32:KERNEL32.dll
 0002:00000114       __imp__EncodePointer@4     10095114     kernel32:KERNEL32.dll
 0002:00000118       __imp__GetStdHandle@4      10095118     kernel32:KERNEL32.dll
 0002:0000011c       __imp__GetFileType@4       1009511c     kernel32:KERNEL32.dll
 0002:00000120       __imp__GetModuleHandleExW@12 10095120     kernel32:KERNEL32.dll
 0002:00000124       __imp__WriteConsoleW@20    10095124     kernel32:KERNEL32.dll
 0002:00000128       __imp__ExitProcess@4       10095128     kernel32:KERNEL32.dll
 0002:0000012c       __imp__HeapValidate@12     1009512c     kernel32:KERNEL32.dll
 0002:00000130       __imp__GetSystemInfo@4     10095130     kernel32:KERNEL32.dll
 0002:00000134       __imp__OutputDebugStringW@4 10095134     kernel32:KERNEL32.dll
 0002:00000138       __imp__SetConsoleCtrlHandler@8 10095138     kernel32:KERNEL32.dll
 0002:0000013c       __imp__GetCurrentThread@0  1009513c     kernel32:KERNEL32.dll
 0002:00000140       __imp__GetTempPathW@8      10095140     kernel32:KERNEL32.dll
 0002:00000144       __imp__GetDateFormatW@24   10095144     kernel32:KERNEL32.dll
 0002:00000148       __imp__GetTimeFormatW@24   10095148     kernel32:KERNEL32.dll
 0002:0000014c       __imp__CompareStringW@24   1009514c     kernel32:KERNEL32.dll
 0002:00000150       __imp__LCMapStringW@24     10095150     kernel32:KERNEL32.dll
 0002:00000154       __imp__GetLocaleInfoW@16   10095154     kernel32:KERNEL32.dll
 0002:00000158       __imp__IsValidLocale@8     10095158     kernel32:KERNEL32.dll
 0002:0000015c       __imp__GetUserDefaultLCID@0 1009515c     kernel32:KERNEL32.dll
 0002:00000160       __imp__EnumSystemLocalesW@8 10095160     kernel32:KERNEL32.dll
 0002:00000164       __imp__SetStdHandle@8      10095164     kernel32:KERNEL32.dll
 0002:00000168       __imp__GetConsoleOutputCP@0 10095168     kernel32:KERNEL32.dll
 0002:0000016c       \177KERNEL32_NULL_THUNK_DATA 1009516c     kernel32:KERNEL32.dll
 0002:00000170       __imp__bind@12             10095170     ws2_32:WS2_32.dll
 0002:00000174       __imp__inet_ntop@16        10095174     ws2_32:WS2_32.dll
 0002:00000178       __imp__inet_pton@12        10095178     ws2_32:WS2_32.dll
 0002:0000017c       __imp__freeaddrinfo@4      1009517c     ws2_32:WS2_32.dll
 0002:00000180       __imp__getaddrinfo@16      10095180     ws2_32:WS2_32.dll
 0002:00000184       __imp__WSAGetLastError@0   10095184     ws2_32:WS2_32.dll
 0002:00000188       __imp__WSAStartup@8        10095188     ws2_32:WS2_32.dll
 0002:0000018c       __imp__socket@12           1009518c     ws2_32:WS2_32.dll
 0002:00000190       __imp__shutdown@8          10095190     ws2_32:WS2_32.dll
 0002:00000194       __imp__setsockopt@20       10095194     ws2_32:WS2_32.dll
 0002:00000198       __imp__send@16             10095198     ws2_32:WS2_32.dll
 0002:0000019c       __imp__select@20           1009519c     ws2_32:WS2_32.dll
 0002:000001a0       __imp__recv@16             100951a0     ws2_32:WS2_32.dll
 0002:000001a4       __imp__listen@8            100951a4     ws2_32:WS2_32.dll
 0002:000001a8       __imp__htons@4             100951a8     ws2_32:WS2_32.dll
 0002:000001ac       __imp__htonl@4             100951ac     ws2_32:WS2_32.dll
 0002:000001b0       __imp__getsockopt@20       100951b0     ws2_32:WS2_32.dll
 0002:000001b4       __imp__ioctlsocket@12      100951b4     ws2_32:WS2_32.dll
 0002:000001b8       __imp__connect@12          100951b8     ws2_32:WS2_32.dll
 0002:000001bc       __imp__closesocket@4       100951bc     ws2_32:WS2_32.dll
 0002:000001c0       __imp__accept@12           100951c0     ws2_32:WS2_32.dll
 0002:000001c4       \177WS2_32_NULL_THUNK_DATA 100951c4     ws2_32:WS2_32.dll
 0002:000001c8       ___guard_check_icall_fptr  100951c8     LIBCMTD:guard_support.obj
 0002:000001cc       ___guard_xfg_check_icall_fptr 100951cc     LIBCMTD:guard_support.obj
 0002:000001d0       ___castguard_check_failure_os_handled_fptr 100951d0     LIBCMTD:guard_support.obj
 0002:000001d4       ___xc_a                    100951d4     LIBCMTD:initializers.obj
 0002:000001d8       ___xc_z                    100951d8     LIBCMTD:initializers.obj
 0002:000001dc       ___xi_a                    100951dc     LIBCMTD:initializers.obj
 0002:000001e0       ___acrt_stdio_initializer  100951e0     libucrtd:stdio_initializer.obj
 0002:000001e4       ___acrt_multibyte_initializer 100951e4     libucrtd:multibyte_initializer.obj
 0002:000001e8       ___acrt_tran_sse2_initializer 100951e8     libucrtd:sse2_initializer.obj
 0002:000001ec       ___xi_z                    100951ec     LIBCMTD:initializers.obj
 0002:000001f0       ___xp_a                    100951f0     LIBCMTD:initializers.obj
 0002:000001f4       ___acrt_locale_terminator  100951f4     libucrtd:locale_initializer.obj
 0002:000001f8       ___dcrt_console_output_terminator 100951f8     libucrtd:console_output_initializer.obj
 0002:000001fc       ___acrt_stdio_terminator   100951fc     libucrtd:stdio_initializer.obj
 0002:00000200       ___xp_z                    10095200     LIBCMTD:initializers.obj
 0002:00000204       ___xt_a                    10095204     LIBCMTD:initializers.obj
 0002:00000208       ___xt_z                    10095208     LIBCMTD:initializers.obj
 0002:00000410       __modbus_rtu_backend       10095410     modbus-rtu.obj
 0002:00000460       __modbus_tcp_backend       10095460     modbus-tcp.obj
 0002:000004b0       __modbus_tcp_pi_backend    100954b0     modbus-tcp.obj
 0002:00000500       _libmodbus_version_major   10095500     modbus.obj
 0002:00000504       _libmodbus_version_minor   10095504     modbus.obj
 0002:00000508       _libmodbus_version_micro   10095508     modbus.obj
 0002:00000514       __pDefaultRawDllMain       10095514     LIBCMTD:dll_dllmain.obj
 0002:00000514       __pRawDllMain              10095514     LIBCMTD:dll_dllmain.obj
 0002:0000052c       ??_C@_0BJ@HEGAHDFO@Stack?5pointer?5corruption@ 1009552c     LIBCMTD:userapi.obj
 0002:00000548       ??_C@_0CK@FEGOIOPB@Cast?5to?5smaller?5type?5causing?5lo@ 10095548     LIBCMTD:userapi.obj
 0002:00000574       ??_C@_0BI@CIGMDCBH@Stack?5memory?5corruption@ 10095574     LIBCMTD:userapi.obj
 0002:0000058c       ??_C@_0CK@CNLNOEPB@Local?5variable?5used?5before?5init@ 1009558c     LIBCMTD:userapi.obj
 0002:000005b8       ??_C@_0BP@OGBCLIBO@Stack?5around?5_alloca?5corrupted@ 100955b8     LIBCMTD:userapi.obj
 0002:00000678       ??_C@_0NN@JMPELKLB@The?5value?5of?5ESP?5was?5not?5proper@ 10095678     LIBCMTD:error.obj
 0002:00000758       ??_C@_0BBN@ELNNILBE@A?5cast?5to?5a?5smaller?5data?5type?5h@ 10095758     LIBCMTD:error.obj
 0002:00000878       ??_C@_0BN@BPOGFMJL@Stack?5memory?5was?5corrupted?$AN?6@ 10095878     LIBCMTD:error.obj
 0002:00000898       ??_C@_0DG@DAJCDLPN@A?5local?5variable?5was?5used?5befor@ 10095898     LIBCMTD:error.obj
 0002:000008d0       ??_C@_0CM@JMIDGKLA@Stack?5memory?5around?5_alloca?5was@ 100958d0     LIBCMTD:error.obj
 0002:000008fc       ??_C@_0BO@CHIONIOI@Unknown?5Runtime?5Check?5Error?$AN?6@ 100958fc     LIBCMTD:error.obj
 0002:00000920       ??_C@_1GM@CNOOJIHC@?$AAR?$AAu?$AAn?$AAt?$AAi?$AAm?$AAe?$AA?5?$AAC?$AAh?$AAe?$AAc?$AAk?$AA?5?$AAE@ 10095920     LIBCMTD:error.obj
 0002:00000990       ??_C@_1EA@NFKNIFJP@?$AAR?$AAu?$AAn?$AA?9?$AAT?$AAi?$AAm?$AAe?$AA?5?$AAC?$AAh?$AAe?$AAc?$AAk?$AA?5@ 10095990     LIBCMTD:error.obj
 0002:000009d0       ??_C@_0BB@PFFGGCJP@Unknown?5Filename@ 100959d0     LIBCMTD:error.obj
 0002:000009e4       ??_C@_0BE@GNBOBNCK@Unknown?5Module?5Name@ 100959e4     LIBCMTD:error.obj
 0002:000009f8       ??_C@_0CA@IODNCDPG@Run?9Time?5Check?5Failure?5?$CD?$CFd?5?9?5?$CFs@ 100959f8     LIBCMTD:error.obj
 0002:00000a18       ??_C@_0CG@IAFNJNEE@Stack?5corrupted?5near?5unknown?5va@ 10095a18     LIBCMTD:error.obj
 0002:00000a40       ??_C@_05MKKEDADM@?$CF?42X?5@ 10095a40     LIBCMTD:error.obj
 0002:00000a48       ??_C@_0EJ@LJKNEOLN@Stack?5area?5around?5_alloca?5memor@ 10095a48     LIBCMTD:error.obj
 0002:00000a94       ??_C@_01EEMJAFIK@?6@       10095a94     LIBCMTD:error.obj
 0002:00000a98       ??_C@_02LLMPMKNF@?$DO?5@   10095a98     LIBCMTD:error.obj
 0002:00000a9c       ??_C@_08OMAHNMHJ@?6Data?3?5?$DM@ 10095a9c     LIBCMTD:error.obj
 0002:00000aa8       ??_C@_0CK@DKGBICFE@?6Allocation?5number?5within?5this?5@ 10095aa8     LIBCMTD:error.obj
 0002:00000ad4       ??_C@_07DFDJCKFN@?6Size?3?5@ 10095ad4     LIBCMTD:error.obj
 0002:00000adc       ??_C@_0N@MHFFIMFG@?6Address?3?50x@ 10095adc     LIBCMTD:error.obj
 0002:00000af0       ??_C@_0EI@CLEPFNGI@Stack?5area?5around?5_alloca?5memor@ 10095af0     LIBCMTD:error.obj
 0002:00000b38       ??_C@_0BK@ODNDAGKB@?$CFs?$CFs?$CFp?$CFs?$CFzd?$CFs?$CFd?$CFs?$CFs?$CFs?$CFs?$CFs@ 10095b38     LIBCMTD:error.obj
 0002:00000b54       ??_C@_0DE@OHJBPMBP@A?5variable?5is?5being?5used?5withou@ 10095b54     LIBCMTD:error.obj
 0002:00000bd0       ??_C@_1EI@MLPKHBGE@?$AAa?$AAp?$AAi?$AA?9?$AAm?$AAs?$AA?9?$AAw?$AAi?$AAn?$AA?9?$AAc?$AAo?$AAr?$AAe@ 10095bd0     LIBCMTD:pdblkup.obj
 0002:00000c18       ??_C@_1BK@JHLNAEJL@?$AAa?$AAd?$AAv?$AAa?$AAp?$AAi?$AA3?$AA2?$AA?4?$AAd?$AAl?$AAl@ 10095c18     LIBCMTD:pdblkup.obj
 0002:00000c34       ??_C@_0O@COHOBMLB@RegOpenKeyExW@ 10095c34     LIBCMTD:pdblkup.obj
 0002:00000c44       ??_C@_0BB@GLNAEDBD@RegQueryValueExW@ 10095c44     LIBCMTD:pdblkup.obj
 0002:00000c58       ??_C@_0M@HLOHPNFA@RegCloseKey@ 10095c58     LIBCMTD:pdblkup.obj
 0002:00000c68       ??_C@_1HE@EBEAGLFB@?$AAS?$AAO?$AAF?$AAT?$AAW?$AAA?$AAR?$AAE?$AA?2?$AAW?$AAo?$AAw?$AA6?$AA4?$AA3@ 10095c68     LIBCMTD:pdblkup.obj
 0002:00000cdc       ??_C@_1BG@EABPBLLF@?$AAP?$AAr?$AAo?$AAd?$AAu?$AAc?$AAt?$AAD?$AAi?$AAr@ 10095cdc     LIBCMTD:pdblkup.obj
 0002:00000d10       ??_C@_1BC@JINFINNJ@?$AAM?$AAS?$AAP?$AAD?$AAB?$AA1?$AA4?$AA0@ 10095d10     LIBCMTD:pdblkup.obj
 0002:00000d24       ??_C@_0BB@KCIACLNC@PDBOpenValidate5@ 10095d24     LIBCMTD:pdblkup.obj
 0002:00000d38       ??_C@_01KDCPPGHE@r@        10095d38     LIBCMTD:pdblkup.obj
 0002:00000d40       ??_C@_0EC@CDJPIOJK@D?3?2a?2_work?21?2s?2src?2vctools?2crt?2@ 10095d40     libvcruntimed:std_type_info.obj
 0002:00000d84       __pDestructExceptionObject 10095d84     libvcruntimed:ehhelpers.obj
 0002:00001110       ??_C@_08EHJDFFNH@__based?$CI@ 10096110     libvcruntimed:undname.obj
 0002:0000111c       ??_C@_07KOLFKCDI@__cdecl@  1009611c     libvcruntimed:undname.obj
 0002:00001124       ??_C@_08GHMPAG@__pascal@   10096124     libvcruntimed:undname.obj
 0002:00001130       ??_C@_09IFJBGAPI@__stdcall@ 10096130     libvcruntimed:undname.obj
 0002:0000113c       ??_C@_0L@NPHFGOKO@__thiscall@ 1009613c     libvcruntimed:undname.obj
 0002:00001148       ??_C@_0L@JMKHOMEK@__fastcall@ 10096148     libvcruntimed:undname.obj
 0002:00001154       ??_C@_0N@BCKKPABJ@__vectorcall@ 10096154     libvcruntimed:undname.obj
 0002:00001164       ??_C@_09HIJEGCPM@__clrcall@ 10096164     libvcruntimed:undname.obj
 0002:00001170       ??_C@_06GHPCKEAG@__eabi@   10096170     libvcruntimed:undname.obj
 0002:00001178       ??_C@_09IOPIDJLG@__swift_1@ 10096178     libvcruntimed:undname.obj
 0002:00001184       ??_C@_09KFNFGKHF@__swift_2@ 10096184     libvcruntimed:undname.obj
 0002:00001190       ??_C@_09LMMOFLDE@__swift_3@ 10096190     libvcruntimed:undname.obj
 0002:0000119c       ??_C@_07JOMMBBKO@__ptr64@  1009619c     libvcruntimed:undname.obj
 0002:000011a4       ??_C@_0L@PILCLIHE@__restrict@ 100961a4     libvcruntimed:undname.obj
 0002:000011b0       ??_C@_0M@GFIIJFMG@__unaligned@ 100961b0     libvcruntimed:undname.obj
 0002:000011bc       ??_C@_09DHDLOLLB@restrict?$CI@ 100961bc     libvcruntimed:undname.obj
 0002:000011c6       ??_C@_00CNPNBAHC@@         100961c6     libvcruntimed:undname.obj
 0002:000011c8       ??_C@_04NIHEBCM@?5new@     100961c8     libvcruntimed:undname.obj
 0002:000011d0       ??_C@_07FPCDHGMM@?5delete@ 100961d0     libvcruntimed:undname.obj
 0002:000011d8       ??_C@_01NEMOKFLO@?$DN@     100961d8     libvcruntimed:undname.obj
 0002:000011dc       ??_C@_02GPIOPFAK@?$DO?$DO@ 100961dc     libvcruntimed:undname.obj
 0002:000011e0       ??_C@_02FODMEDOG@?$DM?$DM@ 100961e0     libvcruntimed:undname.obj
 0002:000011e4       ??_C@_01DCLJPIOD@?$CB@     100961e4     libvcruntimed:undname.obj
 0002:000011e8       ??_C@_02EGOFBIJA@?$DN?$DN@ 100961e8     libvcruntimed:undname.obj
 0002:000011ec       ??_C@_02FDNJECIE@?$CB?$DN@ 100961ec     libvcruntimed:undname.obj
 0002:000011f0       ??_C@_02GPECMEKF@?$FL?$FN@ 100961f0     libvcruntimed:undname.obj
 0002:000011f4       ??_C@_08LHJFAFGD@operator@ 100961f4     libvcruntimed:undname.obj
 0002:00001200       ??_C@_02HBOOOICD@?9?$DO@   10096200     libvcruntimed:undname.obj
 0002:00001204       ??_C@_01NBENCBCI@?$CK@     10096204     libvcruntimed:undname.obj
 0002:00001208       ??_C@_02ECNGHCIF@?$CL?$CL@ 10096208     libvcruntimed:undname.obj
 0002:0000120c       ??_C@_02BAABKJLB@?9?9@     1009620c     libvcruntimed:undname.obj
 0002:00001210       ??_C@_01JOAMLHOP@?9@       10096210     libvcruntimed:undname.obj
 0002:00001214       ??_C@_01MIFGBAGJ@?$CL@     10096214     libvcruntimed:undname.obj
 0002:00001218       ??_C@_01HNPIGOCE@?$CG@     10096218     libvcruntimed:undname.obj
 0002:0000121c       ??_C@_03MNHNFDLC@?9?$DO?$CK@ 1009621c     libvcruntimed:undname.obj
 0002:00001220       ??_C@_01KMDKNFGN@?1@       10096220     libvcruntimed:undname.obj
 0002:00001224       ??_C@_01FGNFDNOH@?$CF@     10096224     libvcruntimed:undname.obj
 0002:00001228       ??_C@_01MNNFJEPP@?$DM@     10096228     libvcruntimed:undname.obj
 0002:0000122c       ??_C@_02EHCHHCKH@?$DM?$DN@ 1009622c     libvcruntimed:undname.obj
 0002:00001230       ??_C@_01PPODPGHN@?$DO@     10096230     libvcruntimed:undname.obj
 0002:00001234       ??_C@_02EEKDKGMJ@?$DO?$DN@ 10096234     libvcruntimed:undname.obj
 0002:00001238       ??_C@_01IHBHIGKO@?0@       10096238     libvcruntimed:undname.obj
 0002:0000123c       ??_C@_02HCKGKOFO@?$CI?$CJ@ 1009623c     libvcruntimed:undname.obj
 0002:00001240       ??_C@_01PJKLJHI@?$HO@      10096240     libvcruntimed:undname.obj
 0002:00001244       ??_C@_01JKBOJNNK@?$FO@     10096244     libvcruntimed:undname.obj
 0002:00001248       ??_C@_01DNKMNLPK@?$HM@     10096248     libvcruntimed:undname.obj
 0002:0000124c       ??_C@_02PPKAJPJL@?$CG?$CG@ 1009624c     libvcruntimed:undname.obj
 0002:00001250       ??_C@_02NONPIBCD@?$HM?$HM@ 10096250     libvcruntimed:undname.obj
 0002:00001254       ??_C@_02FPIMKNGF@?$CK?$DN@ 10096254     libvcruntimed:undname.obj
 0002:00001258       ??_C@_02FOEOMHFC@?$CL?$DN@ 10096258     libvcruntimed:undname.obj
 0002:0000125c       ??_C@_02FKMDLLOA@?9?$DN@   1009625c     libvcruntimed:undname.obj
 0002:00001260       ??_C@_02FJEHGPIO@?1?$DN@   10096260     libvcruntimed:undname.obj
 0002:00001264       ??_C@_02FENAOKFI@?$CF?$DN@ 10096264     libvcruntimed:undname.obj
 0002:00001268       ??_C@_03IKFCCPFF@?$DO?$DO?$DN@ 10096268     libvcruntimed:undname.obj
 0002:0000126c       ??_C@_03CDNPDDLA@?$DM?$DM?$DN@ 1009626c     libvcruntimed:undname.obj
 0002:00001270       ??_C@_02FGJGFEAB@?$CG?$DN@ 10096270     libvcruntimed:undname.obj
 0002:00001274       ??_C@_02DHLNPPGH@?$HM?$DN@ 10096274     libvcruntimed:undname.obj
 0002:00001278       ??_C@_02MHEGNOJ@?$FO?$DN@  10096278     libvcruntimed:undname.obj
 0002:0000127c       ??_C@_09IFPLHPGF@?$GAvftable?8@ 1009627c     libvcruntimed:undname.obj
 0002:00001288       ??_C@_09BLBHBJP@?$GAvbtable?8@ 10096288     libvcruntimed:undname.obj
 0002:00001294       ??_C@_07FEEIOKP@?$GAvcall?8@ 10096294     libvcruntimed:undname.obj
 0002:0000129c       ??_C@_08LLFFHHDJ@?$GAtypeof?8@ 1009629c     libvcruntimed:undname.obj
 0002:000012a8       ??_C@_0BF@KDPPACIK@?$GAlocal?5static?5guard?8@ 100962a8     libvcruntimed:undname.obj
 0002:000012c0       ??_C@_08OBABFOLI@?$GAstring?8@ 100962c0     libvcruntimed:undname.obj
 0002:000012cc       ??_C@_0BD@JDLKDPAB@?$GAvbase?5destructor?8@ 100962cc     libvcruntimed:undname.obj
 0002:000012e0       ??_C@_0BN@DEGPLNFK@?$GAvector?5deleting?5destructor?8@ 100962e0     libvcruntimed:undname.obj
 0002:00001300       ??_C@_0BO@OBMKPJIG@?$GAdefault?5constructor?5closure?8@ 10096300     libvcruntimed:undname.obj
 0002:00001320       ??_C@_0BN@IMDCHIKM@?$GAscalar?5deleting?5destructor?8@ 10096320     libvcruntimed:undname.obj
 0002:00001340       ??_C@_0BO@PFGOCPJJ@?$GAvector?5constructor?5iterator?8@ 10096340     libvcruntimed:undname.obj
 0002:00001360       ??_C@_0BN@LFPFMEDL@?$GAvector?5destructor?5iterator?8@ 10096360     libvcruntimed:undname.obj
 0002:00001380       ??_C@_0CE@IKBNEHA@?$GAvector?5vbase?5constructor?5itera@ 10096380     libvcruntimed:undname.obj
 0002:000013a4       ??_C@_0BL@NILFHHPC@?$GAvirtual?5displacement?5map?8@ 100963a4     libvcruntimed:undname.obj
 0002:000013c0       ??_C@_0CB@JONCMFFK@?$GAeh?5vector?5constructor?5iterator@ 100963c0     libvcruntimed:undname.obj
 0002:000013e4       ??_C@_0CA@GCEOPDGL@?$GAeh?5vector?5destructor?5iterator?8@ 100963e4     libvcruntimed:undname.obj
 0002:00001404       ??_C@_0CH@OOJPLCPH@?$GAeh?5vector?5vbase?5constructor?5it@ 10096404     libvcruntimed:undname.obj
 0002:0000142c       ??_C@_0BL@LLKPOHJI@?$GAcopy?5constructor?5closure?8@ 1009642c     libvcruntimed:undname.obj
 0002:00001448       ??_C@_0BA@KBCDOMBN@?$GAudt?5returning?8@ 10096448     libvcruntimed:undname.obj
 0002:00001458       ??_C@_03KLGMFNMG@?$GAEH@   10096458     libvcruntimed:undname.obj
 0002:0000145c       ??_C@_05KHLCHHI@?$GARTTI@  1009645c     libvcruntimed:undname.obj
 0002:00001464       ??_C@_0BA@KKLDJDLB@?$GAlocal?5vftable?8@ 10096464     libvcruntimed:undname.obj
 0002:00001474       ??_C@_0CE@IIHCMGGL@?$GAlocal?5vftable?5constructor?5clos@ 10096474     libvcruntimed:undname.obj
 0002:00001498       ??_C@_06FHBGPFGH@?5new?$FL?$FN@ 10096498     libvcruntimed:undname.obj
 0002:000014a0       ??_C@_09LBNFPBCA@?5delete?$FL?$FN@ 100964a0     libvcruntimed:undname.obj
 0002:000014ac       ??_C@_0P@HJKNJFNN@?$GAomni?5callsig?8@ 100964ac     libvcruntimed:undname.obj
 0002:000014bc       ??_C@_0BL@CNOONJFP@?$GAplacement?5delete?5closure?8@ 100964bc     libvcruntimed:undname.obj
 0002:000014d8       ??_C@_0BN@CKNJLHMB@?$GAplacement?5delete?$FL?$FN?5closure?8@ 100964d8     libvcruntimed:undname.obj
 0002:000014f8       ??_C@_0CG@CFDHKGGD@?$GAmanaged?5vector?5constructor?5ite@ 100964f8     libvcruntimed:undname.obj
 0002:00001520       ??_C@_0CF@IMGKMJNO@?$GAmanaged?5vector?5destructor?5iter@ 10096520     libvcruntimed:undname.obj
 0002:00001548       ??_C@_0CG@HLDDJMAG@?$GAeh?5vector?5copy?5constructor?5ite@ 10096548     libvcruntimed:undname.obj
 0002:00001570       ??_C@_0CM@FCBBDIGB@?$GAeh?5vector?5vbase?5copy?5construct@ 10096570     libvcruntimed:undname.obj
 0002:0000159c       ??_C@_0BL@CLIPGLGB@?$GAdynamic?5initializer?5for?5?8@ 1009659c     libvcruntimed:undname.obj
 0002:000015b8       ??_C@_0CB@PDBIFEP@?$GAdynamic?5atexit?5destructor?5for?5@ 100965b8     libvcruntimed:undname.obj
 0002:000015dc       ??_C@_0CD@CGAJBKEJ@?$GAvector?5copy?5constructor?5iterat@ 100965dc     libvcruntimed:undname.obj
 0002:00001600       ??_C@_0CJ@GJELGAMM@?$GAvector?5vbase?5copy?5constructor?5@ 10096600     libvcruntimed:undname.obj
 0002:0000162c       ??_C@_0CL@FGIJHLCE@?$GAmanaged?5vector?5copy?5constructo@ 1009662c     libvcruntimed:undname.obj
 0002:00001658       ??_C@_0BM@PMGGMLDN@?$GAlocal?5static?5thread?5guard?8@ 10096658     libvcruntimed:undname.obj
 0002:00001674       ??_C@_0N@BDNMDMOL@operator?5?$CC?$CC?5@ 10096674     libvcruntimed:undname.obj
 0002:00001684       ??_C@_0BC@GGEBGALA@operator?5co_await@ 10096684     libvcruntimed:undname.obj
 0002:00001698       ??_C@_0M@GAAIMMOH@operator?$DM?$DN?$DO@ 10096698     libvcruntimed:undname.obj
 0002:000016a4       ??_C@_0BC@DAFEJGAK@?5Type?5Descriptor?8@ 100966a4     libvcruntimed:undname.obj
 0002:000016b8       ??_C@_0BM@LDKODKLH@?5Base?5Class?5Descriptor?5at?5?$CI@ 100966b8     libvcruntimed:undname.obj
 0002:000016d4       ??_C@_0BD@LGICGFMM@?5Base?5Class?5Array?8@ 100966d4     libvcruntimed:undname.obj
 0002:000016e8       ??_C@_0BN@MECKDCOJ@?5Class?5Hierarchy?5Descriptor?8@ 100966e8     libvcruntimed:undname.obj
 0002:00001708       ??_C@_0BK@CFCOFLF@?5Complete?5Object?5Locator?8@ 10096708     libvcruntimed:undname.obj
 0002:00001724       ??_C@_0BG@JNJLAMPM@?$GAanonymous?5namespace?8@ 10096724     libvcruntimed:undname.obj
 0002:0000173a       ?in_place@std@@3Uin_place_t@1@B 1009673a     libvcruntimed:undname.obj
 0002:0000173c       ??_C@_04HEJADOOB@CV?3?5@   1009673c     libvcruntimed:undname.obj
 0002:00001744       ??_C@_03GDILBHBJ@$$h@      10096744     libvcruntimed:undname.obj
 0002:00001748       ??_C@_02MOLJINC@?3?3@      10096748     libvcruntimed:undname.obj
 0002:0000174c       ??_C@_0BE@JAEOCHPE@template?9parameter?9@ 1009674c     libvcruntimed:undname.obj
 0002:00001760       ??_C@_0BF@LNLGBBNL@?$GAtemplate?9parameter?9@ 10096760     libvcruntimed:undname.obj
 0002:00001778       ??_C@_0O@KHGCOMHP@generic?9type?9@ 10096778     libvcruntimed:undname.obj
 0002:00001788       ??_C@_0P@ODDENDLM@?$GAgeneric?9type?9@ 10096788     libvcruntimed:undname.obj
 0002:00001798       ??_C@_02OHHJMEON@?8?8@     10096798     libvcruntimed:undname.obj
 0002:0000179c       ??_C@_0BN@IBLMMFAP@?$GAnon?9type?9template?9parameter@ 1009679c     libvcruntimed:undname.obj
 0002:000017bc       ??_C@_03DLDNIBIK@?$CFlf@   100967bc     libvcruntimed:undname.obj
 0002:000017c0       ??_C@_04OFALKAJ@?$DP?$DP_C@ 100967c0     libvcruntimed:undname.obj
 0002:000017c8       ??_C@_03KHICJKCI@?4?4?4@   100967c8     libvcruntimed:undname.obj
 0002:000017cc       ??_C@_04HIBGFPH@NULL@      100967cc     libvcruntimed:undname.obj
 0002:000017d4       ??_C@_02DPKJAMEF@?$CFd@    100967d4     libvcruntimed:undname.obj
 0002:000017d8       ??_C@_0BK@IHCCFNEL@?$GAtemplate?9type?9parameter?9@ 100967d8     libvcruntimed:undname.obj
 0002:000017f4       ??_C@_0BK@OFCNNNKO@?$GAgeneric?9class?9parameter?9@ 100967f4     libvcruntimed:undname.obj
 0002:00001810       ??_C@_0BL@NGJBLFIL@?$GAgeneric?9method?9parameter?9@ 10096810     libvcruntimed:undname.obj
 0002:0000182c       ??_C@_07OHNGEDJK@nullptr@  1009682c     libvcruntimed:undname.obj
 0002:00001834       ??_C@_06COJIGPIB@lambda@   10096834     libvcruntimed:undname.obj
 0002:0000183c       ??_C@_04GKJNKENE@void@     1009683c     libvcruntimed:undname.obj
 0002:00001844       ??_C@_0BE@EODMJLIF@?$GAtemplate?9parameter@ 10096844     libvcruntimed:undname.obj
 0002:00001858       ??_C@_03OPGICMGF@?$HN?8?5@ 10096858     libvcruntimed:undname.obj
 0002:0000185c       ??_C@_02IGFCGPIL@?$HN?8@   1009685c     libvcruntimed:undname.obj
 0002:00001860       ??_C@_0N@CBHHHENL@?$GAvtordispex?$HL@ 10096860     libvcruntimed:undname.obj
 0002:00001870       ??_C@_0L@GHPFDFH@?$GAvtordisp?$HL@ 10096870     libvcruntimed:undname.obj
 0002:0000187c       ??_C@_0L@HNGCOGAE@?$GAadjustor?$HL@ 1009687c     libvcruntimed:undname.obj
 0002:00001888       ??_C@_0CB@KJDOOODE@?$GAlocal?5static?5destructor?5helper@ 10096888     libvcruntimed:undname.obj
 0002:000018ac       ??_C@_0DB@ILEFOCIJ@?$GAtemplate?5static?5data?5member?5co@ 100968ac     libvcruntimed:undname.obj
 0002:000018e0       ??_C@_0DA@HGFJFBBE@?$GAtemplate?5static?5data?5member?5de@ 100968e0     libvcruntimed:undname.obj
 0002:00001910       ??_C@_07PGOEDBHP@static?5@ 10096910     libvcruntimed:undname.obj
 0002:00001918       ??_C@_08NIEOINHE@virtual?5@ 10096918     libvcruntimed:undname.obj
 0002:00001924       ??_C@_09LAPHOOG@private?3?5@ 10096924     libvcruntimed:undname.obj
 0002:00001930       ??_C@_0M@GAIFPFIP@protected?3?5@ 10096930     libvcruntimed:undname.obj
 0002:0000193c       ??_C@_08GPDDCMKI@public?3?5@ 1009693c     libvcruntimed:undname.obj
 0002:00001948       ??_C@_08KJLFOPNE@?$FLthunk?$FN?3@ 10096948     libvcruntimed:undname.obj
 0002:00001954       ??_C@_0M@DHNBOJMP@extern?5?$CCC?$CC?5@ 10096954     libvcruntimed:undname.obj
 0002:00001960       ??_C@_02KCKGHPCA@?$CJ?5@   10096960     libvcruntimed:undname.obj
 0002:00001964       ??_C@_05CIHEBHNO@char?5@   10096964     libvcruntimed:undname.obj
 0002:0000196c       ??_C@_06EHJMALKF@short?5@  1009696c     libvcruntimed:undname.obj
 0002:00001974       ??_C@_04LAHKHJMA@int?5@    10096974     libvcruntimed:undname.obj
 0002:0000197c       ??_C@_05CJIMAING@long?5@   1009697c     libvcruntimed:undname.obj
 0002:00001984       ??_C@_09EBBEKKIH@unsigned?5@ 10096984     libvcruntimed:undname.obj
 0002:00001990       ??_C@_05BEFAKPML@void?5@   10096990     libvcruntimed:undname.obj
 0002:00001998       ??_C@_09GAIEOBLP@volatile?5@ 10096998     libvcruntimed:undname.obj
 0002:000019a4       ??_C@_08PABEKFH@volatile@  100969a4     libvcruntimed:undname.obj
 0002:000019b0       ??_C@_0BA@LKIJLKPP@std?3?3nullptr_t?5@ 100969b0     libvcruntimed:undname.obj
 0002:000019c0       ??_C@_0P@GCOCNKDM@std?3?3nullptr_t@ 100969c0     libvcruntimed:undname.obj
 0002:000019d0       ??_C@_0L@EGPHHEKN@?$DMellipsis?$DO@ 100969d0     libvcruntimed:undname.obj
 0002:000019dc       ??_C@_04EENFHACM@?0?4?4?4@ 100969dc     libvcruntimed:undname.obj
 0002:000019e4       ??_C@_0M@ELJOJFFH@?0?$DMellipsis?$DO@ 100969e4     libvcruntimed:undname.obj
 0002:000019f0       ??_C@_09DNHFEOJI@?5noexcept@ 100969f0     libvcruntimed:undname.obj
 0002:000019fc       ??_C@_03PBJBJNON@cpu@      100969fc     libvcruntimed:undname.obj
 0002:00001a00       ??_C@_03DCBBJBAA@amp@      10096a00     libvcruntimed:undname.obj
 0002:00001a04       ??_C@_02KEGNLNML@?0?5@     10096a04     libvcruntimed:undname.obj
 0002:00001a08       ??_C@_04ENMBGAPA@char@     10096a08     libvcruntimed:undname.obj
 0002:00001a10       ??_C@_05BFKKPKCG@short@    10096a10     libvcruntimed:undname.obj
 0002:00001a18       ??_C@_03JBIPMCLC@int@      10096a18     libvcruntimed:undname.obj
 0002:00001a1c       ??_C@_04GOKPGOLB@long@     10096a1c     libvcruntimed:undname.obj
 0002:00001a24       ??_C@_05KNFBNCOH@float@    10096a24     libvcruntimed:undname.obj
 0002:00001a2c       ??_C@_06BNJCAIGJ@double@   10096a2c     libvcruntimed:undname.obj
 0002:00001a34       ??_C@_04DDKJGDCM@bool@     10096a34     libvcruntimed:undname.obj
 0002:00001a3c       ??_C@_06EBGKOKIG@__int8@   10096a3c     libvcruntimed:undname.obj
 0002:00001a44       ??_C@_07ICFHOGAF@__int16@  10096a44     libvcruntimed:undname.obj
 0002:00001a4c       ??_C@_07OFLPPHGP@__int32@  10096a4c     libvcruntimed:undname.obj
 0002:00001a54       ??_C@_07LFCOJCAC@__int64@  10096a54     libvcruntimed:undname.obj
 0002:00001a5c       ??_C@_08GAHOLHEO@__int128@ 10096a5c     libvcruntimed:undname.obj
 0002:00001a68       ??_C@_09EEKGDCPH@?$DMunknown?$DO@ 10096a68     libvcruntimed:undname.obj
 0002:00001a74       ??_C@_07CFHGOPCN@char8_t@  10096a74     libvcruntimed:undname.obj
 0002:00001a7c       ??_C@_08HBIPOFJB@char16_t@ 10096a7c     libvcruntimed:undname.obj
 0002:00001a88       ??_C@_08IECNCBKG@char32_t@ 10096a88     libvcruntimed:undname.obj
 0002:00001a94       ??_C@_07CLGGIAMF@wchar_t@  10096a94     libvcruntimed:undname.obj
 0002:00001a9c       ??_C@_04HAPDLBFF@auto@     10096a9c     libvcruntimed:undname.obj
 0002:00001aa4       ??_C@_0P@LHCGKIGK@decltype?$CIauto?$CJ@ 10096aa4     libvcruntimed:undname.obj
 0002:00001ab4       ??_C@_05PCNBGHCF@this?5@   10096ab4     libvcruntimed:undname.obj
 0002:00001abc       ??_C@_06GCICPBLB@__w64?5@  10096abc     libvcruntimed:undname.obj
 0002:00001ac4       ??_C@_07NFANNNEC@UNKNOWN@  10096ac4     libvcruntimed:undname.obj
 0002:00001acc       ??_C@_07EDHNAJHC@signed?5@ 10096acc     libvcruntimed:undname.obj
 0002:00001ad4       ??_C@_05BNCCCJPP@const@    10096ad4     libvcruntimed:undname.obj
 0002:00001adc       ??_C@_09EFNPDFFP@?5volatile@ 10096adc     libvcruntimed:undname.obj
 0002:00001ae8       ??_C@_0P@GCIFDJCJ@?$GAunknown?5ecsu?8@ 10096ae8     libvcruntimed:undname.obj
 0002:00001af8       ??_C@_06MOJHIBMG@union?5@  10096af8     libvcruntimed:undname.obj
 0002:00001b00       ??_C@_07DIBCDNGL@struct?5@ 10096b00     libvcruntimed:undname.obj
 0002:00001b08       ??_C@_06LJBABKPM@class?5@  10096b08     libvcruntimed:undname.obj
 0002:00001b10       ??_C@_08KOFANOFK@coclass?5@ 10096b10     libvcruntimed:undname.obj
 0002:00001b1c       ??_C@_0N@DLIEFKNA@cointerface?5@ 10096b1c     libvcruntimed:undname.obj
 0002:00001b2c       ??_C@_05LJGMCFOG@enum?5@   10096b2c     libvcruntimed:undname.obj
 0002:00001b34       ??_C@_06LIJLOJAG@const?5@  10096b34     libvcruntimed:undname.obj
 0002:00001b3c       ??_C@_02KJPKDIBN@?$CG?5@   10096b3c     libvcruntimed:undname.obj
 0002:00001b40       ??_C@_03PCKGMOPB@?$CG?$CG?5@ 10096b40     libvcruntimed:undname.obj
 0002:00001b44       ??_C@_0M@EALIELKG@cli?3?3array?$DM@ 10096b44     libvcruntimed:undname.obj
 0002:00001b50       ??_C@_0O@GKABPPIF@cli?3?3pin_ptr?$DM@ 10096b50     libvcruntimed:undname.obj
 0002:00001b60       ??_C@_02GOGNNPBN@?$CJ?$FL@ 10096b60     libvcruntimed:undname.obj
 0002:00001b64       ??_C@_06EEGAIFAK@?$HLflat?$HN@ 10096b64     libvcruntimed:undname.obj
 0002:00001b6c       ??_C@_05JIBOFOHK@?$HLfor?5@ 10096b6c     libvcruntimed:undname.obj
 0002:00001b74       ??_C@_02MDINNEEG@s?5@      10096b74     libvcruntimed:undname.obj
 0002:00001b7c       ??_7DNameNode@@6B@         10096b7c     libvcruntimed:undname.obj
 0002:00001b90       ??_7charNode@@6B@          10096b90     libvcruntimed:undname.obj
 0002:00001ba4       ??_7pcharNode@@6B@         10096ba4     libvcruntimed:undname.obj
 0002:00001bb8       ??_7pDNameNode@@6B@        10096bb8     libvcruntimed:undname.obj
 0002:00001bcc       ??_7DNameStatusNode@@6B@   10096bcc     libvcruntimed:undname.obj
 0002:00001be0       ??_7pairNode@@6B@          10096be0     libvcruntimed:undname.obj
 0002:00001cf0       ??_C@_04OKOHEJBO@?5?$DP?$DP?5@ 10096cf0     libvcruntimed:undname.obj
 0002:00001cf8       ?nodes@?1??make@DNameStatusNode@@SAPBV2@W4DNameStatus@@@Z@4QBV2@B 10096cf8     libvcruntimed:undname.obj
 0002:00001d28       ??_C@_0CG@LKEBOLJI@Cannot?5access?5value?5of?5empty?5op@ 10096d28     libvcruntimed:undname.obj
 0002:00001d50       ??_C@_02DKCKIIND@?$CFs@    10096d50     libvcruntimed:undname.obj
 0002:00001d54       ??_C@_0CM@FHELMHAP@D?3?2a?2_work?21?2s?2binaries?2x86ret?2@ 10096d54     libvcruntimed:undname.obj
 0002:00001d80       ??_C@_1FI@MGKANLBL@?$AAD?$AA?3?$AA?2?$AAa?$AA?2?$AA_?$AAw?$AAo?$AAr?$AAk?$AA?2?$AA1?$AA?2?$AAs?$AA?2@ 10096d80     libvcruntimed:undname.obj
 0002:00001dd8       ??_C@_11LOCGONAA@@         10096dd8     libvcruntimed:undname.obj
 0002:00001de0       ??_C@_1FA@DPIDPJCB@?$AA?$CC?$AAC?$AAa?$AAn?$AAn?$AAo?$AAt?$AA?5?$AAa?$AAc?$AAc?$AAe?$AAs?$AAs?$AA?5@ 10096de0     libvcruntimed:undname.obj
 0002:00001e30       ??_C@_0EK@HNOIOKGA@D?3?2a?2_work?21?2s?2src?2vctools?2crt?2@ 10096e30     libvcruntimed:per_thread_data.obj
 0002:00001e88       ??_C@_1DM@KHCHBNEB@?$AAa?$AAp?$AAi?$AA?9?$AAm?$AAs?$AA?9?$AAw?$AAi?$AAn?$AA?9?$AAc?$AAo?$AAr?$AAe@ 10096e88     libvcruntimed:winapi_downlevel.obj
 0002:00001ec4       ??_C@_1DK@LPPGFMPP@?$AAa?$AAp?$AAi?$AA?9?$AAm?$AAs?$AA?9?$AAw?$AAi?$AAn?$AA?9?$AAc?$AAo?$AAr?$AAe@ 10096ec4     libvcruntimed:winapi_downlevel.obj
 0002:00001f00       ??_C@_1BC@GDMECMAK@?$AAk?$AAe?$AAr?$AAn?$AAe?$AAl?$AA3?$AA2@ 10096f00     libvcruntimed:winapi_downlevel.obj
 0002:00001f14       ??_C@_17CNPHIMPH@?$AA?$CF?$AAl?$AAs@ 10096f14     libvcruntimed:winapi_downlevel.obj
 0002:00001f1c       ??_C@_1BA@PFFKHIOG@?$AAa?$AAp?$AAi?$AA?9?$AAm?$AAs?$AA?9@ 10096f1c     libvcruntimed:winapi_downlevel.obj
 0002:00001f30       ??_C@_1EM@LBIFGLGH@?$AAc?$AAa?$AAc?$AAh?$AAe?$AAd?$AA_?$AAh?$AAa?$AAn?$AAd?$AAl?$AAe?$AA?5?$AA?$DN@ 10096f30     libvcruntimed:winapi_downlevel.obj
 0002:00001f80       ??_C@_1JG@EAIBPIGC@?$AAD?$AA?3?$AA?2?$AAa?$AA?2?$AA_?$AAw?$AAo?$AAr?$AAk?$AA?2?$AA1?$AA?2?$AAs?$AA?2@ 10096f80     libvcruntimed:winapi_downlevel.obj
 0002:00002018       ??_C@_1DI@MAHEDLDB@?$AAc?$AAa?$AAc?$AAh?$AAe?$AAd?$AA_?$AAh?$AAa?$AAn?$AAd?$AAl?$AAe?$AA?5?$AA?$DN@ 10097018     libvcruntimed:winapi_downlevel.obj
 0002:00002050       ??_C@_1FC@IBNCGNKL@?$AAc?$AAa?$AAc?$AAh?$AAe?$AAd?$AA_?$AAf?$AAp?$AA?5?$AA?$DN?$AA?$DN?$AA?5?$AAi?$AAn@ 10097050     libvcruntimed:winapi_downlevel.obj
 0002:000020a4       ??_C@_1CI@GDJBAGLP@?$AAc?$AAa?$AAc?$AAh?$AAe?$AAd?$AA_?$AAf?$AAp?$AA?5?$AA?$DN?$AA?$DN?$AA?5?$AAn?$AAe@ 100970a4     libvcruntimed:winapi_downlevel.obj
 0002:000020d4       ??_C@_08KNHFBNJ@FlsAlloc@  100970d4     libvcruntimed:winapi_downlevel.obj
 0002:000020e8       ??_C@_07PEJMOBNF@FlsFree@  100970e8     libvcruntimed:winapi_downlevel.obj
 0002:000020f8       ??_C@_0M@GDNOONDI@FlsGetValue@ 100970f8     libvcruntimed:winapi_downlevel.obj
 0002:0000210c       ??_C@_0M@JCPCPOEF@FlsSetValue@ 1009710c     libvcruntimed:winapi_downlevel.obj
 0002:00002120       ??_C@_0BM@HCFOFFN@InitializeCriticalSectionEx@ 10097120     libvcruntimed:winapi_downlevel.obj
 0002:00002140       ??_7exception@std@@6B@     10097140     libvcruntimed:frame.obj
 0002:00002148       ??_C@_0BC@EOODALEL@Unknown?5exception@ 10097148     libvcruntimed:frame.obj
 0002:00002160       ??_7bad_exception@std@@6B@ 10097160     libvcruntimed:frame.obj
 0002:00002168       ??_C@_0O@DPKOEFFH@bad?5exception@ 10097168     libvcruntimed:frame.obj
 0002:00002178       ??_C@_1FK@OACNEHHA@?$AAt?$AAo?$AA?9?$AA?$DO?$AA_?$AAW?$AAh?$AAa?$AAt?$AA?5?$AA?$DN?$AA?$DN?$AA?5?$AAn?$AAu@ 10097178     libvcruntimed:std_exception.obj
 0002:000021d8       ??_C@_1IE@BLOAAGCK@?$AAD?$AA?3?$AA?2?$AAa?$AA?2?$AA_?$AAw?$AAo?$AAr?$AAk?$AA?2?$AA1?$AA?2?$AAs?$AA?2@ 100971d8     libvcruntimed:std_exception.obj
 0002:0000225c       ??_C@_0CK@CFPGFGGO@Assertion?5failed?3?5?$CFTs?0?5file?5?$CFTs@ 1009725c     libucrtd:assert.obj
 0002:00002288       ??_C@_1FE@LHBLIKM@?$AAA?$AAs?$AAs?$AAe?$AAr?$AAt?$AAi?$AAo?$AAn?$AA?5?$AAf?$AAa?$AAi?$AAl?$AAe@ 10097288     libucrtd:assert.obj
 0002:000022dc       ??_C@_0CF@GOGNBNAK@Microsoft?5Visual?5C?$CL?$CL?5Runtime?5Li@ 100972dc     libucrtd:assert.obj
 0002:00002308       ??_C@_1EK@MBDPDCGA@?$AAM?$AAi?$AAc?$AAr?$AAo?$AAs?$AAo?$AAf?$AAt?$AA?5?$AAV?$AAi?$AAs?$AAu?$AAa@ 10097308     libucrtd:assert.obj
 0002:00002354       ??_C@_0BC@LAIDCHCH@Assertion?5failed?$CB@ 10097354     libucrtd:assert.obj
 0002:00002368       ??_C@_1CE@OJBNHDMO@?$AAA?$AAs?$AAs?$AAe?$AAr?$AAt?$AAi?$AAo?$AAn?$AA?5?$AAf?$AAa?$AAi?$AAl?$AAe@ 10097368     libucrtd:assert.obj
 0002:0000238c       ??_C@_09KLGCKDOD@Program?3?5@ 1009738c     libucrtd:assert.obj
 0002:00002398       ??_C@_1BE@PHKBBGE@?$AAP?$AAr?$AAo?$AAg?$AAr?$AAa?$AAm?$AA?3?$AA?5@ 10097398     libucrtd:assert.obj
 0002:000023ac       ??_C@_06IGPBOHMJ@File?3?5@ 100973ac     libucrtd:assert.obj
 0002:000023b4       ??_C@_1O@HEMHKNDC@?$AAF?$AAi?$AAl?$AAe?$AA?3?$AA?5@ 100973b4     libucrtd:assert.obj
 0002:000023c4       ??_C@_06FIEBOLOH@Line?3?5@ 100973c4     libucrtd:assert.obj
 0002:000023cc       ??_C@_1O@KCAFKHJE@?$AAL?$AAi?$AAn?$AAe?$AA?3?$AA?5@ 100973cc     libucrtd:assert.obj
 0002:000023dc       ??_C@_0N@MEECIJGN@Expression?3?5@ 100973dc     libucrtd:assert.obj
 0002:000023ec       ??_C@_1BK@PEDCIPMA@?$AAE?$AAx?$AAp?$AAr?$AAe?$AAs?$AAs?$AAi?$AAo?$AAn?$AA?3?$AA?5@ 100973ec     libucrtd:assert.obj
 0002:00002408       ??_C@_0HA@OJHAGA@For?5information?5on?5how?5your?5pro@ 10097408     libucrtd:assert.obj
 0002:00002478       ??_C@_1OA@EGMLFBHJ@?$AAF?$AAo?$AAr?$AA?5?$AAi?$AAn?$AAf?$AAo?$AAr?$AAm?$AAa?$AAt?$AAi?$AAo?$AAn@ 10097478     libucrtd:assert.obj
 0002:00002558       ??_C@_0DN@EBBNMLME@?$CIPress?5Retry?5to?5debug?5the?5appli@ 10097558     libucrtd:assert.obj
 0002:00002598       ??_C@_1HK@POCJMFGK@?$AA?$CI?$AAP?$AAr?$AAe?$AAs?$AAs?$AA?5?$AAR?$AAe?$AAt?$AAr?$AAy?$AA?5?$AAt?$AAo@ 10097598     libucrtd:assert.obj
 0002:00002614       ??_C@_17LGKOMLJ@?$AA?4?$AA?4?$AA?4@ 10097614     libucrtd:assert.obj
 0002:0000261c       ??_C@_13LBAGMAIH@?$AA?6@   1009761c     libucrtd:assert.obj
 0002:00002620       ??_C@_02PHMGELLB@?6?6@     10097620     libucrtd:assert.obj
 0002:00002624       ??_C@_15IABLJNFO@?$AA?6?$AA?6@ 10097624     libucrtd:assert.obj
 0002:0000262c       ??_C@_0BH@DNAGHKFM@?$DMprogram?5name?5unknown?$DO@ 1009762c     libucrtd:assert.obj
 0002:00002644       ??_C@_1CO@EAEJAADC@?$AA?$DM?$AAp?$AAr?$AAo?$AAg?$AAr?$AAa?$AAm?$AA?5?$AAn?$AAa?$AAm?$AAe?$AA?5?$AAu@ 10097644     libucrtd:assert.obj
 0002:00002678       ??_C@_1GE@PMLOPPED@?$AAm?$AAi?$AAn?$AAk?$AAe?$AAr?$AAn?$AAe?$AAl?$AA?2?$AAc?$AAr?$AAt?$AAs?$AA?2@ 10097678     libucrtd:assert.obj
 0002:000026e0       ??_C@_1FE@LPBNNEBB@?$AAc?$AAo?$AAm?$AAm?$AAo?$AAn?$AA_?$AAa?$AAs?$AAs?$AAe?$AAr?$AAt?$AA_?$AAt@ 100976e0     libucrtd:assert.obj
 0002:00002738       ??_C@_1KC@PIMENJIN@?$AAt?$AAr?$AAa?$AAi?$AAt?$AAs?$AA?3?$AA?3?$AAt?$AAc?$AAs?$AAc?$AAp?$AAy?$AA_@ 10097738     libucrtd:assert.obj
 0002:000027e0       ??_C@_1KM@HGCBPADM@?$AAt?$AAr?$AAa?$AAi?$AAt?$AAs?$AA?3?$AA?3?$AAt?$AAc?$AAs?$AAc?$AAa?$AAt?$AA_@ 100977e0     libucrtd:assert.obj
 0002:00002890       ??_C@_1KK@KDENILFB@?$AAt?$AAr?$AAa?$AAi?$AAt?$AAs?$AA?3?$AA?3?$AAt?$AAc?$AAs?$AAc?$AAa?$AAt?$AA_@ 10097890     libucrtd:assert.obj
 0002:00002940       ??_C@_1PE@ECNALGCA@?$AAt?$AAr?$AAa?$AAi?$AAt?$AAs?$AA?3?$AA?3?$AAt?$AAc?$AAs?$AAc?$AAp?$AAy?$AA_@ 10097940     libucrtd:assert.obj
 0002:00002a38       ??_C@_1BCM@OLNPCNDL@?$AAm?$AAe?$AAm?$AAc?$AAp?$AAy?$AA_?$AAs?$AA?$CI?$AA?5?$AAp?$AAc?$AAh?$AAP?$AAr@ 10097a38     libucrtd:assert.obj
 0002:00002b68       ??_C@_1HM@LGKHMJCC@?$AAt?$AAr?$AAa?$AAi?$AAt?$AAs?$AA?3?$AA?3?$AAt?$AAc?$AAs?$AAc?$AAa?$AAt?$AA_@ 10097b68     libucrtd:assert.obj
 0002:00002be8       ??_C@_1JO@KJEGDHLC@?$AAt?$AAr?$AAa?$AAi?$AAt?$AAs?$AA?3?$AA?3?$AAt?$AAc?$AAs?$AAc?$AAa?$AAt?$AA_@ 10097be8     libucrtd:assert.obj
 0002:00002c88       ??_C@_1KE@NJCNOBGA@?$AAt?$AAr?$AAa?$AAi?$AAt?$AAs?$AA?3?$AA?3?$AAt?$AAc?$AAs?$AAc?$AAa?$AAt?$AA_@ 10097c88     libucrtd:assert.obj
 0002:00002d30       ??_C@_1LC@HKLLCKBM@?$AAt?$AAr?$AAa?$AAi?$AAt?$AAs?$AA?3?$AA?3?$AAt?$AAc?$AAs?$AAn?$AAc?$AAa?$AAt@ 10097d30     libucrtd:assert.obj
 0002:00002de8       ??_C@_1KI@JBNHIIKF@?$AAt?$AAr?$AAa?$AAi?$AAt?$AAs?$AA?3?$AA?3?$AAt?$AAc?$AAs?$AAc?$AAa?$AAt?$AA_@ 10097de8     libucrtd:assert.obj
 0002:00002e90       ??_C@_1IK@KKBPPOFO@?$AAt?$AAr?$AAa?$AAi?$AAt?$AAs?$AA?3?$AA?3?$AAt?$AAc?$AAs?$AAc?$AAa?$AAt?$AA_@ 10097e90     libucrtd:assert.obj
 0002:00002f20       ??_C@_1LO@BFIEBOKI@?$AAt?$AAr?$AAa?$AAi?$AAt?$AAs?$AA?3?$AA?3?$AAt?$AAc?$AAs?$AAn?$AAc?$AAa?$AAt@ 10097f20     libucrtd:assert.obj
 0002:00002fe0       ??_C@_1KE@OEANDPDB@?$AAt?$AAr?$AAa?$AAi?$AAt?$AAs?$AA?3?$AA?3?$AAt?$AAc?$AAs?$AAn?$AAc?$AAa?$AAt@ 10097fe0     libucrtd:assert.obj
 0002:00003088       ??_C@_1LG@LMABGFBP@?$AAt?$AAr?$AAa?$AAi?$AAt?$AAs?$AA?3?$AA?3?$AAt?$AAc?$AAs?$AAc?$AAa?$AAt?$AA_@ 10098088     libucrtd:assert.obj
 0002:00003140       ??_C@_1IA@JPAKIPAA@?$AAt?$AAr?$AAa?$AAi?$AAt?$AAs?$AA?3?$AA?3?$AAt?$AAc?$AAs?$AAc?$AAa?$AAt?$AA_@ 10098140     libucrtd:assert.obj
 0002:000031c0       ??_C@_1KE@PADDJOL@?$AAt?$AAr?$AAa?$AAi?$AAt?$AAs?$AA?3?$AA?3?$AAt?$AAc?$AAs?$AAc?$AAa?$AAt?$AA_@ 100981c0     libucrtd:assert.obj
 0002:00003268       ??_C@_1BAK@NPHNFBPH@?$AAt?$AAr?$AAa?$AAi?$AAt?$AAs?$AA?3?$AA?3?$AAi?$AAt?$AAo?$AAt?$AA_?$AAs?$AA?$CI@ 10098268     libucrtd:assert.obj
 0002:00003378       ??_C@_1LA@JOKMAPHG@?$AAt?$AAr?$AAa?$AAi?$AAt?$AAs?$AA?3?$AA?3?$AAt?$AAc?$AAs?$AAc?$AAa?$AAt?$AA_@ 10098378     libucrtd:assert.obj
 0002:00003428       ??_C@_1LA@IFFOJJCK@?$AAt?$AAr?$AAa?$AAi?$AAt?$AAs?$AA?3?$AA?3?$AAt?$AAc?$AAs?$AAn?$AAc?$AAa?$AAt@ 10098428     libucrtd:assert.obj
 0002:000034d8       ??_C@_1KG@MFCBNPOK@?$AAt?$AAr?$AAa?$AAi?$AAt?$AAs?$AA?3?$AA?3?$AAt?$AAc?$AAs?$AAc?$AAa?$AAt?$AA_@ 100984d8     libucrtd:assert.obj
 0002:00003580       ??_C@_1IC@EDHOAOJ@?$AAt?$AAr?$AAa?$AAi?$AAt?$AAs?$AA?3?$AA?3?$AAt?$AAc?$AAs?$AAc?$AAa?$AAt?$AA_@ 10098580     libucrtd:assert.obj
 0002:00003608       ??_C@_1KE@NALOKOIG@?$AAt?$AAr?$AAa?$AAi?$AAt?$AAs?$AA?3?$AA?3?$AAt?$AAc?$AAs?$AAc?$AAa?$AAt?$AA_@ 10098608     libucrtd:assert.obj
 0002:000036b0       ??_C@_1KE@GGOFBC@?$AAt?$AAr?$AAa?$AAi?$AAt?$AAs?$AA?3?$AA?3?$AAt?$AAc?$AAs?$AAc?$AAa?$AAt?$AA_@ 100986b0     libucrtd:assert.obj
 0002:000038c0       ??_C@_1CE@JMFACANE@?$AAr?$AAe?$AAs?$AAu?$AAl?$AAt?$AA?5?$AA?$CB?$AA?$DN?$AA?5?$AAn?$AAu?$AAl?$AAl?$AAp@ 100988c0     libucrtd:errno.obj
 0002:000038e8       ??_C@_1FM@MJJGEFKM@?$AAm?$AAi?$AAn?$AAk?$AAe?$AAr?$AAn?$AAe?$AAl?$AA?2?$AAc?$AAr?$AAt?$AAs?$AA?2@ 100988e8     libucrtd:errno.obj
 0002:00003944       ??_C@_1BG@KCMPBBDK@?$AA_?$AAg?$AAe?$AAt?$AA_?$AAe?$AAr?$AAr?$AAn?$AAo@ 10098944     libucrtd:errno.obj
 0002:0000395c       ??_C@_1BM@INIPHHDD@?$AA_?$AAg?$AAe?$AAt?$AA_?$AAd?$AAo?$AAs?$AAe?$AAr?$AAr?$AAn?$AAo@ 1009895c     libucrtd:errno.obj
 0002:00003978       ??_C@_0CP@GDJHIDC@minkernel?2crts?2ucrt?2src?2appcrt?2@ 10098978     libucrtd:_file.obj
 0002:000039a8       ??_C@_1DC@OGOLMDEL@?$AAp?$AAu?$AAb?$AAl?$AAi?$AAc?$AA_?$AAs?$AAt?$AAr?$AAe?$AAa?$AAm?$AA?5?$AA?$CB@ 100989a8     libucrtd:_file.obj
 0002:000039e0       ??_C@_1FO@IEGKHABE@?$AAm?$AAi?$AAn?$AAk?$AAe?$AAr?$AAn?$AAe?$AAl?$AA?2?$AAc?$AAr?$AAt?$AAs?$AA?2@ 100989e0     libucrtd:_file.obj
 0002:00003a40       ??_C@_1DI@PJGMCDLC@?$AA_?$AAg?$AAe?$AAt?$AA_?$AAs?$AAt?$AAr?$AAe?$AAa?$AAm?$AA_?$AAb?$AAu?$AAf@ 10098a40     libucrtd:_file.obj
 0002:00003a78       __Fenv1                    10098a78     libucrtd:output.obj
 0002:00003a80       ?standard_lookup_table_spectre@__crt_stdio_output@@3V?$spectre_mitigated_lookup_table@Ustate_transition_pair@__crt_stdio_output@@$0IA@@1@B 10098a80     libucrtd:output.obj
 0002:00003b80       ?format_validation_lookup_table_spectre@__crt_stdio_output@@3V?$spectre_mitigated_lookup_table@Ustate_transition_pair@__crt_stdio_output@@$0IA@@1@B 10098b80     libucrtd:output.obj
 0002:00003c80       ??_C@_1BDG@MKBKGHOH@?$AA?$CI?$AA?5?$AA?$CI?$AA_?$AAS?$AAt?$AAr?$AAe?$AAa?$AAm?$AA?4?$AAi?$AAs?$AA_?$AAs@ 10098c80     libucrtd:output.obj
 0002:00003db8       ??_C@_1GC@LCDLABEA@?$AAm?$AAi?$AAn?$AAk?$AAe?$AAr?$AAn?$AAe?$AAl?$AA?2?$AAc?$AAr?$AAt?$AAs?$AA?2@ 10098db8     libucrtd:output.obj
 0002:00003e20       ??_C@_1II@DIIMCJOK@?$AA_?$AA_?$AAa?$AAc?$AAr?$AAt?$AA_?$AAs?$AAt?$AAd?$AAi?$AAo?$AA_?$AAc?$AAh@ 10098e20     libucrtd:output.obj
 0002:00003ea8       ??_C@_1GE@DPGDJKLM@?$AAm?$AAi?$AAn?$AAk?$AAe?$AAr?$AAn?$AAe?$AAl?$AA?2?$AAc?$AAr?$AAt?$AAs?$AA?2@ 10098ea8     libucrtd:output.obj
 0002:00003f0c       ??_C@_1CE@JLIJLEKO@?$AAs?$AAt?$AAr?$AAe?$AAa?$AAm?$AA?5?$AA?$CB?$AA?$DN?$AA?5?$AAn?$AAu?$AAl?$AAl?$AAp@ 10098f0c     libucrtd:output.obj
 0002:00003f30       ??_C@_1GA@MOBAPGIO@?$AAm?$AAi?$AAn?$AAk?$AAe?$AAr?$AAn?$AAe?$AAl?$AA?2?$AAc?$AAr?$AAt?$AAs?$AA?2@ 10098f30     libucrtd:output.obj
 0002:00003f90       ??_C@_1CA@GELIJBMC@?$AAc?$AAo?$AAm?$AAm?$AAo?$AAn?$AA_?$AAv?$AAf?$AAp?$AAr?$AAi?$AAn?$AAt?$AAf@ 10098f90     libucrtd:output.obj
 0002:00003fb0       ??_C@_1CE@EAKLPBKK@?$AAf?$AAo?$AAr?$AAm?$AAa?$AAt?$AA?5?$AA?$CB?$AA?$DN?$AA?5?$AAn?$AAu?$AAl?$AAl?$AAp@ 10098fb0     libucrtd:output.obj
 0002:00003fd4       ??_C@_1CA@PIMGHCEK@?$AAc?$AAo?$AAm?$AAm?$AAo?$AAn?$AA_?$AAv?$AAs?$AAp?$AAr?$AAi?$AAn?$AAt?$AAf@ 10098fd4     libucrtd:output.obj
 0002:00003ff8       ??_C@_1EO@EGEEFEFM@?$AAb?$AAu?$AAf?$AAf?$AAe?$AAr?$AA_?$AAc?$AAo?$AAu?$AAn?$AAt?$AA?5?$AA?$DN?$AA?$DN@ 10098ff8     libucrtd:output.obj
 0002:00004048       ??_C@_1CE@JEILLNB@?$AAc?$AAo?$AAm?$AAm?$AAo?$AAn?$AA_?$AAv?$AAs?$AAp?$AAr?$AAi?$AAn?$AAt?$AAf@ 10099048     libucrtd:output.obj
 0002:00004070       ??_C@_1EM@OAFHAOLH@?$AAb?$AAu?$AAf?$AAf?$AAe?$AAr?$AA?5?$AA?$CB?$AA?$DN?$AA?5?$AAn?$AAu?$AAl?$AAl?$AAp@ 10099070     libucrtd:output.obj
 0002:000040bc       ??_C@_1DA@HPBFKMEB@?$AA?$CI?$AA?$CC?$AAB?$AAu?$AAf?$AAf?$AAe?$AAr?$AA?5?$AAt?$AAo?$AAo?$AA?5?$AAs?$AAm@ 100990bc     libucrtd:output.obj
 0002:000040ec       ??_C@_1CG@LHFJHFBB@?$AAc?$AAo?$AAm?$AAm?$AAo?$AAn?$AA_?$AAv?$AAs?$AAn?$AAp?$AAr?$AAi?$AAn?$AAt@ 100990ec     libucrtd:output.obj
 0002:00004114       ??_C@_1CM@JOIJBMEM@?$AA_?$AAf?$AAo?$AAr?$AAm?$AAa?$AAt?$AA_?$AAi?$AAt?$AA?5?$AA?$CB?$AA?$DN?$AA?5?$AAn@ 10099114     libucrtd:output.obj
 0002:00004140       ??_C@_1HA@DMAAKIJP@?$AAm?$AAi?$AAn?$AAk?$AAe?$AAr?$AAn?$AAe?$AAl?$AA?2?$AAc?$AAr?$AAt?$AAs?$AA?2@ 10099140     libucrtd:output.obj
 0002:000041b0       ??_C@_1BNA@OIIAGHJI@?$AA_?$AA_?$AAc?$AAr?$AAt?$AA_?$AAs?$AAt?$AAd?$AAi?$AAo?$AA_?$AAo?$AAu?$AAt@ 100991b0     libucrtd:output.obj
 0002:00004380       ??_C@_1EE@DMAIGNBG@?$AA?$CI?$AA?$CC?$AAI?$AAn?$AAc?$AAo?$AAr?$AAr?$AAe?$AAc?$AAt?$AA?5?$AAf?$AAo?$AAr@ 10099380     libucrtd:output.obj
 0002:000043c8       ??_C@_1BLI@EGFICANE@?$AA_?$AA_?$AAc?$AAr?$AAt?$AA_?$AAs?$AAt?$AAd?$AAi?$AAo?$AA_?$AAo?$AAu?$AAt@ 100993c8     libucrtd:output.obj
 0002:00004580       ??_C@_1BLI@IKDKMDHI@?$AA_?$AA_?$AAc?$AAr?$AAt?$AA_?$AAs?$AAt?$AAd?$AAi?$AAo?$AA_?$AAo?$AAu?$AAt@ 10099580     libucrtd:output.obj
 0002:00004738       ??_C@_1BKA@DNADAJMC@?$AA_?$AA_?$AAc?$AAr?$AAt?$AA_?$AAs?$AAt?$AAd?$AAi?$AAo?$AA_?$AAo?$AAu?$AAt@ 10099738     libucrtd:output.obj
 0002:000048d8       ??_C@_1BNA@HGLCOOBP@?$AA_?$AA_?$AAc?$AAr?$AAt?$AA_?$AAs?$AAt?$AAd?$AAi?$AAo?$AA_?$AAo?$AAu?$AAt@ 100998d8     libucrtd:output.obj
 0002:00004aa8       ??_C@_1BLI@FOCNEPKJ@?$AA_?$AA_?$AAc?$AAr?$AAt?$AA_?$AAs?$AAt?$AAd?$AAi?$AAo?$AA_?$AAo?$AAu?$AAt@ 10099aa8     libucrtd:output.obj
 0002:00004c60       ??_C@_1BMK@CPBKHDIH@?$AA_?$AA_?$AAc?$AAr?$AAt?$AA_?$AAs?$AAt?$AAd?$AAi?$AAo?$AA_?$AAo?$AAu?$AAt@ 10099c60     libucrtd:output.obj
 0002:00004e30       ??_C@_1BLC@PMCLHHAE@?$AA_?$AA_?$AAc?$AAr?$AAt?$AA_?$AAs?$AAt?$AAd?$AAi?$AAo?$AA_?$AAo?$AAu?$AAt@ 10099e30     libucrtd:output.obj
 0002:00004fe8       ??_C@_1BLI@EEAAPJD@?$AA_?$AA_?$AAc?$AAr?$AAt?$AA_?$AAs?$AAt?$AAd?$AAi?$AAo?$AA_?$AAo?$AAu?$AAt@ 10099fe8     libucrtd:output.obj
 0002:000051a0       ??_C@_1BKA@IIAAOGBO@?$AA_?$AA_?$AAc?$AAr?$AAt?$AA_?$AAs?$AAt?$AAd?$AAi?$AAo?$AA_?$AAo?$AAu?$AAt@ 1009a1a0     libucrtd:output.obj
 0002:00005340       ??_C@_1FG@OBJBDPAC@?$AA?$CI?$AA?$CC?$AAN?$AA?5?$AAl?$AAe?$AAn?$AAg?$AAt?$AAh?$AA?5?$AAm?$AAo?$AAd?$AAi@ 1009a340     libucrtd:output.obj
 0002:00005398       ??_C@_1BOA@BMEGDMHF@?$AA_?$AA_?$AAc?$AAr?$AAt?$AA_?$AAs?$AAt?$AAd?$AAi?$AAo?$AA_?$AAo?$AAu?$AAt@ 1009a398     libucrtd:output.obj
 0002:00005578       ??_C@_1EC@GJPNJDCN@?$AA_?$AAl?$AAe?$AAn?$AAg?$AAt?$AAh?$AA?5?$AA?$DN?$AA?$DN?$AA?5?$AAl?$AAe?$AAn?$AAg@ 1009a578     libucrtd:output.obj
 0002:000055bc       ??_C@_1DG@CEJKFDMO@?$AAs?$AAt?$AAa?$AAt?$AAe?$AA_?$AAc?$AAa?$AAs?$AAe?$AA_?$AAn?$AAo?$AAr?$AAm@ 1009a5bc     libucrtd:output.obj
 0002:000055f8       ??_C@_1BOE@IPKNNOEE@?$AA_?$AA_?$AAc?$AAr?$AAt?$AA_?$AAs?$AAt?$AAd?$AAi?$AAo?$AA_?$AAo?$AAu?$AAt@ 1009a5f8     libucrtd:output.obj
 0002:000057e0       ??_C@_1IC@NLEOMCDL@?$AA_?$AAt?$AAy?$AAp?$AAe?$AA_?$AAi?$AAn?$AAd?$AAe?$AAx?$AA?5?$AA?$DO?$AA?$DN?$AA?5@ 1009a7e0     libucrtd:output.obj
 0002:00005868       ??_C@_1BFK@KNCMELHH@?$AA_?$AA_?$AAc?$AAr?$AAt?$AA_?$AAs?$AAt?$AAd?$AAi?$AAo?$AA_?$AAo?$AAu?$AAt@ 1009a868     libucrtd:output.obj
 0002:000059c8       ??_C@_1FK@BCPANIEK@?$AA?$CI?$AA?$CC?$AAM?$AAi?$AAs?$AAs?$AAi?$AAn?$AAg?$AA?5?$AAp?$AAo?$AAs?$AAi?$AAt@ 1009a9c8     libucrtd:output.obj
 0002:00005a28       ??_C@_1BEI@IHLBHMLJ@?$AA_?$AA_?$AAc?$AAr?$AAt?$AA_?$AAs?$AAt?$AAd?$AAi?$AAo?$AA_?$AAo?$AAu?$AAt@ 1009aa28     libucrtd:output.obj
 0002:00005b70       ??_C@_1BMI@LKDDDFDL@?$AA_?$AA_?$AAc?$AAr?$AAt?$AA_?$AAs?$AAt?$AAd?$AAi?$AAo?$AA_?$AAo?$AAu?$AAt@ 1009ab70     libucrtd:output.obj
 0002:00005d38       ??_C@_1BMM@JGEKEBKL@?$AA_?$AA_?$AAc?$AAr?$AAt?$AA_?$AAs?$AAt?$AAd?$AAi?$AAo?$AA_?$AAo?$AAu?$AAt@ 1009ad38     libucrtd:output.obj
 0002:00005f08       ??_C@_1BEO@ODGKIOAL@?$AA_?$AA_?$AAc?$AAr?$AAt?$AA_?$AAs?$AAt?$AAd?$AAi?$AAo?$AA_?$AAo?$AAu?$AAt@ 1009af08     libucrtd:output.obj
 0002:00006058       ??_C@_1BDM@GFCGMNL@?$AA_?$AA_?$AAc?$AAr?$AAt?$AA_?$AAs?$AAt?$AAd?$AAi?$AAo?$AA_?$AAo?$AAu?$AAt@ 1009b058     libucrtd:output.obj
 0002:00006198       ??_C@_1BMI@KBPJOJJI@?$AA_?$AA_?$AAc?$AAr?$AAt?$AA_?$AAs?$AAt?$AAd?$AAi?$AAo?$AA_?$AAo?$AAu?$AAt@ 1009b198     libucrtd:output.obj
 0002:00006360       ??_C@_1BMM@PGHHMNDM@?$AA_?$AA_?$AAc?$AAr?$AAt?$AA_?$AAs?$AAt?$AAd?$AAi?$AAo?$AA_?$AAo?$AAu?$AAt@ 1009b360     libucrtd:output.obj
 0002:0000652c       ??_C@_1CI@DDKMNCPP@?$AA_?$AAc?$AAo?$AAn?$AAt?$AAe?$AAx?$AAt?$AA?5?$AA?$CB?$AA?$DN?$AA?5?$AAn?$AAu?$AAl@ 1009b52c     libucrtd:output.obj
 0002:00006558       ??_C@_1HK@IIPGOADH@?$AA_?$AA_?$AAc?$AAr?$AAt?$AA_?$AAs?$AAt?$AAd?$AAi?$AAo?$AA_?$AAo?$AAu?$AAt@ 1009b558     libucrtd:output.obj
 0002:000065d8       ??_C@_1BLA@MEDMHIOH@?$AA_?$AA_?$AAc?$AAr?$AAt?$AA_?$AAs?$AAt?$AAd?$AAi?$AAo?$AA_?$AAo?$AAu?$AAt@ 1009b5d8     libucrtd:output.obj
 0002:00006788       ??_C@_1BLE@LCKPBJON@?$AA_?$AA_?$AAc?$AAr?$AAt?$AA_?$AAs?$AAt?$AAd?$AAi?$AAo?$AA_?$AAo?$AAu?$AAt@ 1009b788     libucrtd:output.obj
 0002:00006940       ??_C@_1HE@IACOMEJF@?$AA_?$AA_?$AAc?$AAr?$AAt?$AA_?$AAs?$AAt?$AAd?$AAi?$AAo?$AA_?$AAo?$AAu?$AAt@ 1009b940     libucrtd:output.obj
 0002:000069b8       ??_C@_1BOA@CBIEMBEE@?$AA_?$AA_?$AAc?$AAr?$AAt?$AA_?$AAs?$AAt?$AAd?$AAi?$AAo?$AA_?$AAo?$AAu?$AAt@ 1009b9b8     libucrtd:output.obj
 0002:00006b98       ??_C@_1BOE@NLICFINO@?$AA_?$AA_?$AAc?$AAr?$AAt?$AA_?$AAs?$AAt?$AAd?$AAi?$AAo?$AA_?$AAo?$AAu?$AAt@ 1009bb98     libucrtd:output.obj
 0002:00006d80       ??_C@_1BFK@IOIDDMPJ@?$AA_?$AA_?$AAc?$AAr?$AAt?$AA_?$AAs?$AAt?$AAd?$AAi?$AAo?$AA_?$AAo?$AAu?$AAt@ 1009bd80     libucrtd:output.obj
 0002:00006ee0       ??_C@_1BEI@JNJAFAD@?$AA_?$AA_?$AAc?$AAr?$AAt?$AA_?$AAs?$AAt?$AAd?$AAi?$AAo?$AA_?$AAo?$AAu?$AAt@ 1009bee0     libucrtd:output.obj
 0002:00007028       ??_C@_1BMI@PKGBOKJK@?$AA_?$AA_?$AAc?$AAr?$AAt?$AA_?$AAs?$AAt?$AAd?$AAi?$AAo?$AA_?$AAo?$AAu?$AAt@ 1009c028     libucrtd:output.obj
 0002:000071f0       ??_C@_1BMM@BLBJDDIA@?$AA_?$AA_?$AAc?$AAr?$AAt?$AA_?$AAs?$AAt?$AAd?$AAi?$AAo?$AA_?$AAo?$AAu?$AAt@ 1009c1f0     libucrtd:output.obj
 0002:000073c0       ??_C@_1BEO@JEHLMMKB@?$AA_?$AA_?$AAc?$AAr?$AAt?$AA_?$AAs?$AAt?$AAd?$AAi?$AAo?$AA_?$AAo?$AAu?$AAt@ 1009c3c0     libucrtd:output.obj
 0002:00007510       ??_C@_1BDM@FDOLKCHK@?$AA_?$AA_?$AAc?$AAr?$AAt?$AA_?$AAs?$AAt?$AAd?$AAi?$AAo?$AA_?$AAo?$AAu?$AAt@ 1009c510     libucrtd:output.obj
 0002:00007650       ??_C@_1BNK@ONPHCEAM@?$AA_?$AA_?$AAc?$AAr?$AAt?$AA_?$AAs?$AAt?$AAd?$AAi?$AAo?$AA_?$AAo?$AAu?$AAt@ 1009c650     libucrtd:output.obj
 0002:00007830       ??_C@_1BNO@LMMLJOOJ@?$AA_?$AA_?$AAc?$AAr?$AAt?$AA_?$AAs?$AAt?$AAd?$AAi?$AAo?$AA_?$AAo?$AAu?$AAt@ 1009c830     libucrtd:output.obj
 0002:00007a10       ??_C@_1GC@BNMHNGKM@?$AA_?$AAs?$AAt?$AAa?$AAt?$AAe?$AA?5?$AA?$DN?$AA?$DN?$AA?5?$AAs?$AAt?$AAa?$AAt?$AAe@ 1009ca10     libucrtd:output.obj
 0002:00007a78       ??_C@_1BEC@FNIGNBHI@?$AA_?$AA_?$AAc?$AAr?$AAt?$AA_?$AAs?$AAt?$AAd?$AAi?$AAo?$AA_?$AAo?$AAu?$AAt@ 1009ca78     libucrtd:output.obj
 0002:00007bc0       ??_C@_1BMC@DAENMDAD@?$AA_?$AA_?$AAc?$AAr?$AAt?$AA_?$AAs?$AAt?$AAd?$AAi?$AAo?$AA_?$AAo?$AAu?$AAt@ 1009cbc0     libucrtd:output.obj
 0002:00007d88       ??_C@_1BMG@KOENKAMB@?$AA_?$AA_?$AAc?$AAr?$AAt?$AA_?$AAs?$AAt?$AAd?$AAi?$AAo?$AA_?$AAo?$AAu?$AAt@ 1009cd88     libucrtd:output.obj
 0002:00007f50       ??_C@_1BDG@PLANJEFE@?$AA_?$AA_?$AAc?$AAr?$AAt?$AA_?$AAs?$AAt?$AAd?$AAi?$AAo?$AA_?$AAo?$AAu?$AAt@ 1009cf50     libucrtd:output.obj
 0002:00008088       ??_C@_1BMI@DNMDMAAN@?$AA_?$AA_?$AAc?$AAr?$AAt?$AA_?$AAs?$AAt?$AAd?$AAi?$AAo?$AA_?$AAo?$AAu?$AAt@ 1009d088     libucrtd:output.obj
 0002:00008250       ??_C@_1BMM@JHGFKAND@?$AA_?$AA_?$AAc?$AAr?$AAt?$AA_?$AAs?$AAt?$AAd?$AAi?$AAo?$AA_?$AAo?$AAu?$AAt@ 1009d250     libucrtd:output.obj
 0002:0000841c       ??_C@_1CA@ONEGMNAN@?$AA_?$AAs?$AAt?$AAr?$AAe?$AAa?$AAm?$AA?4?$AAv?$AAa?$AAl?$AAi?$AAd?$AA?$CI?$AA?$CJ@ 1009d41c     libucrtd:output.obj
 0002:00008440       ??_C@_1HK@MPBCDOK@?$AA_?$AA_?$AAc?$AAr?$AAt?$AA_?$AAs?$AAt?$AAd?$AAi?$AAo?$AA_?$AAo?$AAu?$AAt@ 1009d440     libucrtd:output.obj
 0002:000084c0       ??_C@_1BLA@GJNGKGIK@?$AA_?$AA_?$AAc?$AAr?$AAt?$AA_?$AAs?$AAt?$AAd?$AAi?$AAo?$AA_?$AAo?$AAu?$AAt@ 1009d4c0     libucrtd:output.obj
 0002:00008670       ??_C@_1BLE@PAACOKDK@?$AA_?$AA_?$AAc?$AAr?$AAt?$AA_?$AAs?$AAt?$AAd?$AAi?$AAo?$AA_?$AAo?$AAu?$AAt@ 1009d670     libucrtd:output.obj
 0002:00008828       ??_C@_1HE@FGKHNBNL@?$AA_?$AA_?$AAc?$AAr?$AAt?$AA_?$AAs?$AAt?$AAd?$AAi?$AAo?$AA_?$AAo?$AAu?$AAt@ 1009d828     libucrtd:output.obj
 0002:000088a0       ??_C@_1EK@PNGFDECN@?$AA?$CI?$AA?$CC?$AA?8?$AAn?$AA?8?$AA?5?$AAf?$AAo?$AAr?$AAm?$AAa?$AAt?$AA?5?$AAs?$AAp@ 1009d8a0     libucrtd:output.obj
 0002:000088f0       ??_C@_1BNI@OPBGCNOB@?$AA_?$AA_?$AAc?$AAr?$AAt?$AA_?$AAs?$AAt?$AAd?$AAi?$AAo?$AA_?$AAo?$AAu?$AAt@ 1009d8f0     libucrtd:output.obj
 0002:00008ac8       ??_C@_1EO@GHKFGFKL@?$AA?$CI?$AA?$CC?$AAI?$AAn?$AAv?$AAa?$AAl?$AAi?$AAd?$AA?5?$AAi?$AAn?$AAt?$AAe?$AAg@ 1009dac8     libucrtd:output.obj
 0002:00008b18       ??_C@_1JC@PMCLKCOC@?$AAp?$AAr?$AAe?$AAc?$AAi?$AAs?$AAi?$AAo?$AAn?$AA_?$AAi?$AAn?$AAd?$AAe?$AAx@ 1009db18     libucrtd:output.obj
 0002:00008bb0       ??_C@_1BAG@GKCGGKOF@?$AA_?$AA_?$AAc?$AAr?$AAt?$AA_?$AAs?$AAt?$AAd?$AAi?$AAo?$AA_?$AAo?$AAu?$AAt@ 1009dbb0     libucrtd:output.obj
 0002:00008cb8       ??_C@_1IC@KGDNLBNC@?$AAw?$AAi?$AAd?$AAt?$AAh?$AA_?$AAi?$AAn?$AAd?$AAe?$AAx?$AA?5?$AA?$DO?$AA?$DN?$AA?5@ 1009dcb8     libucrtd:output.obj
 0002:00008d40       ??_C@_1BAK@CDLANFGA@?$AA_?$AA_?$AAc?$AAr?$AAt?$AA_?$AAs?$AAt?$AAd?$AAi?$AAo?$AA_?$AAo?$AAu?$AAt@ 1009dd40     libucrtd:output.obj
 0002:00008e50       ??_C@_1BEC@NDOOKIMC@?$AA_?$AA_?$AAc?$AAr?$AAt?$AA_?$AAs?$AAt?$AAd?$AAi?$AAo?$AA_?$AAo?$AAu?$AAt@ 1009de50     libucrtd:output.obj
 0002:00008f98       ??_C@_1BMA@CBPCAOAB@?$AA_?$AA_?$AAc?$AAr?$AAt?$AA_?$AAs?$AAt?$AAd?$AAi?$AAo?$AA_?$AAo?$AAu?$AAt@ 1009df98     libucrtd:output.obj
 0002:00009158       ??_C@_1PK@KBJLALII@?$AA_?$AA_?$AAc?$AAr?$AAt?$AA_?$AAs?$AAt?$AAd?$AAi?$AAo?$AA_?$AAo?$AAu?$AAt@ 1009e158     libucrtd:output.obj
 0002:00009258       ??_C@_1PO@PODEJAGE@?$AA_?$AA_?$AAc?$AAr?$AAt?$AA_?$AAs?$AAt?$AAd?$AAi?$AAo?$AA_?$AAo?$AAu?$AAt@ 1009e258     libucrtd:output.obj
 0002:00009358       ??_C@_1BDG@KOLEFKPF@?$AA_?$AA_?$AAc?$AAr?$AAt?$AA_?$AAs?$AAt?$AAd?$AAi?$AAo?$AA_?$AAo?$AAu?$AAt@ 1009e358     libucrtd:output.obj
 0002:00009490       ??_C@_1BMA@IHIBOLMD@?$AA_?$AA_?$AAc?$AAr?$AAt?$AA_?$AAs?$AAt?$AAd?$AAi?$AAo?$AA_?$AAo?$AAu?$AAt@ 1009e490     libucrtd:output.obj
 0002:00009650       ??_C@_1BKI@CJEIGDAI@?$AA_?$AA_?$AAc?$AAr?$AAt?$AA_?$AAs?$AAt?$AAd?$AAi?$AAo?$AA_?$AAo?$AAu?$AAt@ 1009e650     libucrtd:output.obj
 0002:000097f8       ??_C@_1BNI@IMOCDBNE@?$AA_?$AA_?$AAc?$AAr?$AAt?$AA_?$AAs?$AAt?$AAd?$AAi?$AAo?$AA_?$AAo?$AAu?$AAt@ 1009e7f8     libucrtd:output.obj
 0002:000099d0       ??_C@_1BAG@DOFNHDMF@?$AA_?$AA_?$AAc?$AAr?$AAt?$AA_?$AAs?$AAt?$AAd?$AAi?$AAo?$AA_?$AAo?$AAu?$AAt@ 1009e9d0     libucrtd:output.obj
 0002:00009ad8       ??_C@_1BAK@DALINHHB@?$AA_?$AA_?$AAc?$AAr?$AAt?$AA_?$AAs?$AAt?$AAd?$AAi?$AAo?$AA_?$AAo?$AAu?$AAt@ 1009ead8     libucrtd:output.obj
 0002:00009be8       ??_C@_1BMA@GACGPGHN@?$AA_?$AA_?$AAc?$AAr?$AAt?$AA_?$AAs?$AAt?$AAd?$AAi?$AAo?$AA_?$AAo?$AAu?$AAt@ 1009ebe8     libucrtd:output.obj
 0002:00009da8       ??_C@_1PK@KBJECIEM@?$AA_?$AA_?$AAc?$AAr?$AAt?$AA_?$AAs?$AAt?$AAd?$AAi?$AAo?$AA_?$AAo?$AAu?$AAt@ 1009eda8     libucrtd:output.obj
 0002:00009ea8       ??_C@_1PO@LKIIANED@?$AA_?$AA_?$AAc?$AAr?$AAt?$AA_?$AAs?$AAt?$AAd?$AAi?$AAo?$AA_?$AAo?$AAu?$AAt@ 1009eea8     libucrtd:output.obj
 0002:00009fa8       ??_C@_1BNC@DONELHFF@?$AA_?$AA_?$AAc?$AAr?$AAt?$AA_?$AAs?$AAt?$AAd?$AAi?$AAo?$AA_?$AAo?$AAu?$AAt@ 1009efa8     libucrtd:output.obj
 0002:0000a180       ??_C@_1BLK@BGFMMAPO@?$AA_?$AA_?$AAc?$AAr?$AAt?$AA_?$AAs?$AAt?$AAd?$AAi?$AAo?$AA_?$AAo?$AAu?$AAt@ 1009f180     libucrtd:output.obj
 0002:0000a340       ??_C@_1BMA@PGOJAHFP@?$AA_?$AA_?$AAc?$AAr?$AAt?$AA_?$AAs?$AAt?$AAd?$AAi?$AAo?$AA_?$AAo?$AAu?$AAt@ 1009f340     libucrtd:output.obj
 0002:0000a500       ??_C@_1BKI@NDKBCDGP@?$AA_?$AA_?$AAc?$AAr?$AAt?$AA_?$AAs?$AAt?$AAd?$AAi?$AAo?$AA_?$AAo?$AAu?$AAt@ 1009f500     libucrtd:output.obj
 0002:0000a6a8       ??_C@_1O@CEDCILHN@?$AA?$CI?$AAn?$AAu?$AAl?$AAl?$AA?$CJ@ 1009f6a8     libucrtd:output.obj
 0002:0000a6b8       ??_C@_06OJHGLDPL@?$CInull?$CJ@ 1009f6b8     libucrtd:output.obj
 0002:0000a6c0       ??_C@_1LO@HECDHMMI@?$AAi?$AAs?$AA_?$AAp?$AAo?$AAs?$AAi?$AAt?$AAi?$AAo?$AAn?$AAa?$AAl?$AA_?$AAp@ 1009f6c0     libucrtd:output.obj
 0002:0000a780       ??_C@_1BCI@OBMMNJKK@?$AA_?$AA_?$AAc?$AAr?$AAt?$AA_?$AAs?$AAt?$AAd?$AAi?$AAo?$AA_?$AAo?$AAu?$AAt@ 1009f780     libucrtd:output.obj
 0002:0000a8a8       ??_C@_1FE@IAFJEKN@?$AA_?$AAt?$AAy?$AAp?$AAe?$AA_?$AAi?$AAn?$AAd?$AAe?$AAx?$AA?5?$AA?$DO?$AA?$DN?$AA?5@ 1009f8a8     libucrtd:output.obj
 0002:0000a900       ??_C@_1BCC@GJLKCHIG@?$AA_?$AA_?$AAc?$AAr?$AAt?$AA_?$AAs?$AAt?$AAd?$AAi?$AAo?$AA_?$AAo?$AAu?$AAt@ 1009f900     libucrtd:output.obj
 0002:0000aa24       ??_C@_1CK@LGDCECDH@?$AA_?$AAf?$AAo?$AAr?$AAm?$AAa?$AAt?$AA_?$AAc?$AAh?$AAa?$AAr?$AA?5?$AA?$CB?$AA?$DN@ 1009fa24     libucrtd:output.obj
 0002:0000aa50       ??_C@_1BNI@EDCGAPJB@?$AA_?$AA_?$AAc?$AAr?$AAt?$AA_?$AAs?$AAt?$AAd?$AAi?$AAo?$AA_?$AAo?$AAu?$AAt@ 1009fa50     libucrtd:output.obj
 0002:0000ac28       ??_C@_1BBM@CBBAFMPJ@?$AA_?$AA_?$AAc?$AAr?$AAt?$AA_?$AAs?$AAt?$AAd?$AAi?$AAo?$AA_?$AAo?$AAu?$AAt@ 1009fc28     libucrtd:output.obj
 0002:0000ad48       ??_C@_1BBG@KIHCHFIM@?$AA_?$AA_?$AAc?$AAr?$AAt?$AA_?$AAs?$AAt?$AAd?$AAi?$AAo?$AA_?$AAo?$AAu?$AAt@ 1009fd48     libucrtd:output.obj
 0002:0000ae60       ??_C@_1BMA@FANDDEHK@?$AA_?$AA_?$AAc?$AAr?$AAt?$AA_?$AAs?$AAt?$AAd?$AAi?$AAo?$AA_?$AAo?$AAu?$AAt@ 1009fe60     libucrtd:output.obj
 0002:0000b020       ??_C@_1BCI@ILAANKJG@?$AA_?$AA_?$AAc?$AAr?$AAt?$AA_?$AAs?$AAt?$AAd?$AAi?$AAo?$AA_?$AAo?$AAu?$AAt@ 100a0020     libucrtd:output.obj
 0002:0000b148       ??_C@_1BCC@PDNLFIHK@?$AA_?$AA_?$AAc?$AAr?$AAt?$AA_?$AAs?$AAt?$AAd?$AAi?$AAo?$AA_?$AAo?$AAu?$AAt@ 100a0148     libucrtd:output.obj
 0002:0000b270       ??_C@_1BNI@EJPCEBAG@?$AA_?$AA_?$AAc?$AAr?$AAt?$AA_?$AAs?$AAt?$AAd?$AAi?$AAo?$AA_?$AAo?$AAu?$AAt@ 100a0270     libucrtd:output.obj
 0002:0000b448       ??_C@_1BBM@LLHBCDAF@?$AA_?$AA_?$AAc?$AAr?$AAt?$AA_?$AAs?$AAt?$AAd?$AAi?$AAo?$AA_?$AAo?$AAu?$AAt@ 100a0448     libucrtd:output.obj
 0002:0000b568       ??_C@_1BBG@JLLDGFML@?$AA_?$AA_?$AAc?$AAr?$AAt?$AA_?$AAs?$AAt?$AAd?$AAi?$AAo?$AA_?$AAo?$AAu?$AAt@ 100a0568     libucrtd:output.obj
 0002:0000b680       ??_C@_1BNC@BAMNIOCM@?$AA_?$AA_?$AAc?$AAr?$AAt?$AA_?$AAs?$AAt?$AAd?$AAi?$AAo?$AA_?$AAo?$AAu?$AAt@ 100a0680     libucrtd:output.obj
 0002:0000b858       ??_C@_1BMA@MEBEEDJE@?$AA_?$AA_?$AAc?$AAr?$AAt?$AA_?$AAs?$AAt?$AAd?$AAi?$AAo?$AA_?$AAo?$AAu?$AAt@ 100a0858     libucrtd:output.obj
 0002:0000ba18       ??_C@_1BCA@HCPCJFGA@?$AA_?$AA_?$AAc?$AAr?$AAt?$AA_?$AAs?$AAt?$AAd?$AAi?$AAo?$AA_?$AAo?$AAu?$AAt@ 100a0a18     libucrtd:output.obj
 0002:0000bb38       ??_C@_1BOE@LIBLDKPN@?$AA_?$AA_?$AAc?$AAr?$AAt?$AA_?$AAs?$AAt?$AAd?$AAi?$AAo?$AA_?$AAo?$AAu?$AAt@ 100a0b38     libucrtd:output.obj
 0002:0000bd1c       ??_C@_0DI@KIFBHMNO@minkernel?2crts?2ucrt?2inc?2corecrt@ 100a0d1c     libucrtd:output.obj
 0002:0000bd58       ??_C@_1BBE@IBPNPIIM@?$AA_?$AA_?$AAc?$AAr?$AAt?$AA_?$AAs?$AAt?$AAd?$AAi?$AAo?$AA_?$AAo?$AAu?$AAt@ 100a0d58     libucrtd:output.obj
 0002:0000be70       ??_C@_1BMM@KBPMKFBC@?$AA_?$AA_?$AAc?$AAr?$AAt?$AA_?$AAs?$AAt?$AAd?$AAi?$AAo?$AA_?$AAo?$AAu?$AAt@ 100a0e70     libucrtd:output.obj
 0002:0000c040       ??_C@_1BMM@MBMBCJIF@?$AA_?$AA_?$AAc?$AAr?$AAt?$AA_?$AAs?$AAt?$AAd?$AAi?$AAo?$AA_?$AAo?$AAu?$AAt@ 100a1040     libucrtd:output.obj
 0002:0000c210       ??_C@_1BLE@IFBJPNFE@?$AA_?$AA_?$AAc?$AAr?$AAt?$AA_?$AAs?$AAt?$AAd?$AAi?$AAo?$AA_?$AAo?$AAu?$AAt@ 100a1210     libucrtd:output.obj
 0002:0000c3c8       ??_C@_1BCA@FCGNBIN@?$AA_?$AA_?$AAc?$AAr?$AAt?$AA_?$AAs?$AAt?$AAd?$AAi?$AAo?$AA_?$AAo?$AAu?$AAt@ 100a13c8     libucrtd:output.obj
 0002:0000c4e8       ??_C@_1BOE@OMDELMGH@?$AA_?$AA_?$AAc?$AAr?$AAt?$AA_?$AAs?$AAt?$AAd?$AAi?$AAo?$AA_?$AAo?$AAu?$AAt@ 100a14e8     libucrtd:output.obj
 0002:0000c6d0       ??_C@_1BBE@FLKADCDA@?$AA_?$AA_?$AAc?$AAr?$AAt?$AA_?$AAs?$AAt?$AAd?$AAi?$AAo?$AA_?$AAo?$AAu?$AAt@ 100a16d0     libucrtd:output.obj
 0002:0000c7e8       ??_C@_1BMM@CMKPNHDJ@?$AA_?$AA_?$AAc?$AAr?$AAt?$AA_?$AAs?$AAt?$AAd?$AAi?$AAo?$AA_?$AAo?$AAu?$AAt@ 100a17e8     libucrtd:output.obj
 0002:0000c9b8       ??_C@_1BNO@ILHNHKFA@?$AA_?$AA_?$AAc?$AAr?$AAt?$AA_?$AAs?$AAt?$AAd?$AAi?$AAo?$AA_?$AAo?$AAu?$AAt@ 100a19b8     libucrtd:output.obj
 0002:0000cb98       ??_C@_1BMG@JJPLEEHI@?$AA_?$AA_?$AAc?$AAr?$AAt?$AA_?$AAs?$AAt?$AAd?$AAi?$AAo?$AA_?$AAo?$AAu?$AAt@ 100a1b98     libucrtd:output.obj
 0002:0000cd60       ??_C@_1BMM@KANDEEGK@?$AA_?$AA_?$AAc?$AAr?$AAt?$AA_?$AAs?$AAt?$AAd?$AAi?$AAo?$AA_?$AAo?$AAu?$AAt@ 100a1d60     libucrtd:output.obj
 0002:0000cf30       ??_C@_1BLE@MHLEAOID@?$AA_?$AA_?$AAc?$AAr?$AAt?$AA_?$AAs?$AAt?$AAd?$AAi?$AAo?$AA_?$AAo?$AAu?$AAt@ 100a1f30     libucrtd:output.obj
 0002:0000d0e8       ??_C@_1BMK@JGIBNIA@?$AA_?$AA_?$AAc?$AAr?$AAt?$AA_?$AAs?$AAt?$AAd?$AAi?$AAo?$AA_?$AAo?$AAu?$AAt@ 100a20e8     libucrtd:output.obj
 0002:0000d2b8       ??_C@_1BLC@INKIGOCN@?$AA_?$AA_?$AAc?$AAr?$AAt?$AA_?$AAs?$AAt?$AAd?$AAi?$AAo?$AA_?$AAo?$AAu?$AAt@ 100a22b8     libucrtd:output.obj
 0002:0000d470       ??_C@_1BNK@KHNJGCCP@?$AA_?$AA_?$AAc?$AAr?$AAt?$AA_?$AAs?$AAt?$AAd?$AAi?$AAo?$AA_?$AAo?$AAu?$AAt@ 100a2470     libucrtd:output.obj
 0002:0000d650       ??_C@_1BNO@OHFFMOOJ@?$AA_?$AA_?$AAc?$AAr?$AAt?$AA_?$AAs?$AAt?$AAd?$AAi?$AAo?$AA_?$AAo?$AAu?$AAt@ 100a2650     libucrtd:output.obj
 0002:0000d830       ??_C@_1BMC@FAGJFBLI@?$AA_?$AA_?$AAc?$AAr?$AAt?$AA_?$AAs?$AAt?$AAd?$AAi?$AAo?$AA_?$AAo?$AAu?$AAt@ 100a2830     libucrtd:output.obj
 0002:0000d9f8       ??_C@_1BMG@CGPDIFDK@?$AA_?$AA_?$AAc?$AAr?$AAt?$AA_?$AAs?$AAt?$AAd?$AAi?$AAo?$AA_?$AAo?$AAu?$AAt@ 100a29f8     libucrtd:output.obj
 0002:0000dbc0       ??_C@_1BNC@OHPDPPJK@?$AA_?$AA_?$AAc?$AAr?$AAt?$AA_?$AAs?$AAt?$AAd?$AAi?$AAo?$AA_?$AAo?$AAu?$AAt@ 100a2bc0     libucrtd:output.obj
 0002:0000dd98       ??_C@_1BLK@FOLFMPJH@?$AA_?$AA_?$AAc?$AAr?$AAt?$AA_?$AAs?$AAt?$AAd?$AAi?$AAo?$AA_?$AAo?$AAu?$AAt@ 100a2d98     libucrtd:output.obj
 0002:0000df58       ??_C@_1BNC@JPKLPOHO@?$AA_?$AA_?$AAc?$AAr?$AAt?$AA_?$AAs?$AAt?$AAd?$AAi?$AAo?$AA_?$AAo?$AAu?$AAt@ 100a2f58     libucrtd:output.obj
 0002:0000e130       ??_C@_1EO@MLJCKPIB@?$AAb?$AAa?$AAs?$AAe?$AA?5?$AA?$DN?$AA?$DN?$AA?5?$AA0?$AA?5?$AA?$HM?$AA?$HM?$AA?5?$AA?$CI?$AA2@ 100a3130     libucrtd:output.obj
 0002:0000e180       ??_C@_1DI@BANODKFL@?$AA_?$AA_?$AAc?$AAr?$AAt?$AA_?$AAs?$AAt?$AAr?$AAt?$AAo?$AAx?$AA?3?$AA?3?$AAp@ 100a3180     libucrtd:output.obj
 0002:0000e1b8       ??_C@_1BNO@NAODCKFA@?$AA_?$AA_?$AAc?$AAr?$AAt?$AA_?$AAs?$AAt?$AAd?$AAi?$AAo?$AA_?$AAo?$AAu?$AAt@ 100a31b8     libucrtd:output.obj
 0002:0000e398       ??_C@_1BMG@BBEFGBID@?$AA_?$AA_?$AAc?$AAr?$AAt?$AA_?$AAs?$AAt?$AAd?$AAi?$AAo?$AA_?$AAo?$AAu?$AAt@ 100a3398     libucrtd:output.obj
 0002:0000e560       ??_C@_1CM@GJENOOEJ@?$AAc?$AA?5?$AA?$DN?$AA?$DN?$AA?5?$AA?8?$AA?2?$AA0?$AA?8?$AA?5?$AA?$HM?$AA?$HM?$AA?5?$AA?$CK?$AA_@ 100a3560     libucrtd:output.obj
 0002:0000e590       ??_C@_1GK@MNHIDABG@?$AA_?$AA_?$AAc?$AAr?$AAt?$AA_?$AAs?$AAt?$AAr?$AAt?$AAo?$AAx?$AA?3?$AA?3?$AAc@ 100a3590     libucrtd:output.obj
 0002:0000e5fc       ??_C@_1BM@PNEBBBDO@?$AA_?$AAp?$AA?5?$AA?$CB?$AA?$DN?$AA?5?$AAn?$AAu?$AAl?$AAl?$AAp?$AAt?$AAr@ 100a35fc     libucrtd:output.obj
 0002:0000e618       ??_C@_1HA@MKKIHBHP@?$AA_?$AA_?$AAc?$AAr?$AAt?$AA_?$AAs?$AAt?$AAr?$AAt?$AAo?$AAx?$AA?3?$AA?3?$AAc@ 100a3618     libucrtd:output.obj
 0002:0000e688       ??_C@_1HA@CONLANFI@?$AA_?$AA_?$AAc?$AAr?$AAt?$AA_?$AAs?$AAt?$AAr?$AAt?$AAo?$AAx?$AA?3?$AA?3?$AAc@ 100a3688     libucrtd:output.obj
 0002:0000e6f8       ??_C@_1HG@FCDBLOEG@?$AA_?$AA_?$AAc?$AAr?$AAt?$AA_?$AAs?$AAt?$AAr?$AAt?$AAo?$AAx?$AA?3?$AA?3?$AAc@ 100a36f8     libucrtd:output.obj
 0002:0000e770       ??_C@_1GI@BBAEIKL@?$AA?$CI?$AA?$CI?$AAd?$AAe?$AAs?$AAt?$AAi?$AAn?$AAa?$AAt?$AAi?$AAo?$AAn?$AA?$CJ?$AA?$CJ@ 100a3770     libucrtd:strcpy_s.obj
 0002:0000e7d8       ??_C@_1HI@PBJPCEBC@?$AAm?$AAi?$AAn?$AAk?$AAe?$AAr?$AAn?$AAe?$AAl?$AA?2?$AAc?$AAr?$AAt?$AAs?$AA?2@ 100a37d8     libucrtd:strcpy_s.obj
 0002:0000e850       ??_C@_1CA@FHIAGDFH@?$AAc?$AAo?$AAm?$AAm?$AAo?$AAn?$AA_?$AAt?$AAc?$AAs?$AAc?$AAp?$AAy?$AA_?$AAs@ 100a3850     libucrtd:strcpy_s.obj
 0002:0000e870       ??_C@_1CK@EIOKGPJL@?$AA?$CI?$AA?$CI?$AA?$CI?$AAs?$AAo?$AAu?$AAr?$AAc?$AAe?$AA?$CJ?$AA?$CJ?$AA?$CJ?$AA?5?$AA?$CB?$AA?$DN@ 100a3870     libucrtd:strcpy_s.obj
 0002:0000e89c       ??_C@_1CI@HCPHDDLE@?$AAB?$AAu?$AAf?$AAf?$AAe?$AAr?$AA?5?$AAi?$AAs?$AA?5?$AAt?$AAo?$AAo?$AA?5?$AAs@ 100a389c     libucrtd:strcpy_s.obj
 0002:0000e8c4       ??_C@_1DM@MADKGDLO@?$AA?$CI?$AAL?$AA?$CC?$AAB?$AAu?$AAf?$AAf?$AAe?$AAr?$AA?5?$AAi?$AAs?$AA?5?$AAt?$AAo@ 100a38c4     libucrtd:strcpy_s.obj
 0002:0000e900       ??_C@_02LMMGGCAJ@?3?5@     100a3900     libucrtd:perror.obj
 0002:0000e908       ??_C@_1GC@HKEHEHPJ@?$AAm?$AAi?$AAn?$AAk?$AAe?$AAr?$AAn?$AAe?$AAl?$AA?2?$AAc?$AAr?$AAt?$AAs?$AA?2@ 100a3908     libucrtd:strdup.obj
 0002:0000e96c       ??_C@_1BI@CBNECNIC@?$AA_?$AAs?$AAt?$AAr?$AAd?$AAu?$AAp?$AA_?$AAd?$AAb?$AAg@ 100a396c     libucrtd:strdup.obj
 0002:0000e984       ??_C@_1DO@MOGEFOMO@?$AAs?$AAt?$AAr?$AAc?$AAp?$AAy?$AA_?$AAs?$AA?$CI?$AAm?$AAe?$AAm?$AAo?$AAr?$AAy@ 100a3984     libucrtd:strdup.obj
 0002:0000e9c8       ??_C@_0EA@FCLIIPNN@Visual?5C?$CL?$CL?5CRT?3?5Not?5enough?5memo@ 100a39c8     libucrtd:strerror.obj
 0002:0000ea08       ??_C@_1IA@JENHHBGD@?$AAV?$AAi?$AAs?$AAu?$AAa?$AAl?$AA?5?$AAC?$AA?$CL?$AA?$CL?$AA?5?$AAC?$AAR?$AAT?$AA?3@ 100a3a08     libucrtd:strerror.obj
 0002:0000ea88       ??_C@_0DB@FFNMCFIE@minkernel?2crts?2ucrt?2src?2appcrt?2@ 100a3a88     libucrtd:strerror.obj
 0002:0000eac0       ??_C@_1GC@CECGBOJ@?$AAm?$AAi?$AAn?$AAk?$AAe?$AAr?$AAn?$AAe?$AAl?$AA?2?$AAc?$AAr?$AAt?$AAs?$AA?2@ 100a3ac0     libucrtd:strerror.obj
 0002:0000eb24       ??_C@_1CA@DKBLEHON@?$AAc?$AAo?$AAm?$AAm?$AAo?$AAn?$AA_?$AAs?$AAt?$AAr?$AAe?$AAr?$AAr?$AAo?$AAr@ 100a3b24     libucrtd:strerror.obj
 0002:0000eb48       ??_C@_1OE@ENJNOLJH@?$AAc?$AAo?$AAp?$AAy?$AA_?$AAs?$AAt?$AAr?$AAi?$AAn?$AAg?$AA_?$AAi?$AAn?$AAt@ 100a3b48     libucrtd:strerror.obj
 0002:0000ec2c       ??_C@_1CE@MCCHPLBM@?$AAb?$AAu?$AAf?$AAf?$AAe?$AAr?$AA?5?$AA?$CB?$AA?$DN?$AA?5?$AAn?$AAu?$AAl?$AAl?$AAp@ 100a3c2c     libucrtd:strerror.obj
 0002:0000ec50       ??_C@_1CE@LKKIKFNI@?$AAc?$AAo?$AAm?$AAm?$AAo?$AAn?$AA_?$AAs?$AAt?$AAr?$AAe?$AAr?$AAr?$AAo?$AAr@ 100a3c50     libucrtd:strerror.obj
 0002:0000ec74       ??_C@_1CC@ONIJBMJF@?$AAb?$AAu?$AAf?$AAf?$AAe?$AAr?$AA_?$AAc?$AAo?$AAu?$AAn?$AAt?$AA?5?$AA?$DO?$AA?5@ 100a3c74     libucrtd:strerror.obj
 0002:0000ec98       ??_C@_1LK@PPKCKKMM@?$AAc?$AAo?$AAp?$AAy?$AA_?$AAs?$AAt?$AAr?$AAi?$AAn?$AAg?$AA_?$AAi?$AAn?$AAt@ 100a3c98     libucrtd:strerror.obj
 0002:0000ed60       ??_C@_1BA@GLMCNLEM@?$AAW?$AAa?$AAr?$AAn?$AAi?$AAn?$AAg@ 100a3d60     libucrtd:dbgrpt.obj
 0002:0000ed70       ??_C@_1M@ILHOPKA@?$AAE?$AAr?$AAr?$AAo?$AAr@ 100a3d70     libucrtd:dbgrpt.obj
 0002:0000ed7c       ??_C@_1CC@CGHMNGDG@?$AAA?$AAs?$AAs?$AAe?$AAr?$AAt?$AAi?$AAo?$AAn?$AA?5?$AAF?$AAa?$AAi?$AAl?$AAe@ 100a3d7c     libucrtd:dbgrpt.obj
 0002:0000eda8       ??_C@_1OG@PMPPFHAF@?$AA?6?$AA?6?$AAF?$AAo?$AAr?$AA?5?$AAi?$AAn?$AAf?$AAo?$AAr?$AAm?$AAa?$AAt?$AAi@ 100a3da8     libucrtd:dbgrpt.obj
 0002:0000ee90       ??_C@_1MG@LJLILFFD@?$AAD?$AAe?$AAb?$AAu?$AAg?$AA?5?$AA?$CF?$AAl?$AAs?$AA?$CB?$AA?6?$AA?6?$AAP?$AAr?$AAo@ 100a3e90     libucrtd:dbgrpt.obj
 0002:0000ef58       ??_C@_1MG@OODCADGL@?$AAD?$AAe?$AAb?$AAu?$AAg?$AA?5?$AA?$CF?$AAl?$AAs?$AA?$CB?$AA?6?$AA?6?$AAP?$AAr?$AAo@ 100a3f58     libucrtd:dbgrpt.obj
 0002:0000f020       ??_C@_1FK@BNNDOGMN@?$AA?$CI?$AA?$CC?$AAT?$AAh?$AAe?$AA?5?$AAh?$AAo?$AAo?$AAk?$AA?5?$AAf?$AAu?$AAn?$AAc@ 100a4020     libucrtd:dbgrpt.obj
 0002:0000f080       ??_C@_1FO@GMJDLAJD@?$AAm?$AAi?$AAn?$AAk?$AAe?$AAr?$AAn?$AAe?$AAl?$AA?2?$AAc?$AAr?$AAt?$AAs?$AA?2@ 100a4080     libucrtd:dbgrpt.obj
 0002:0000f0e0       ??_C@_0CP@HDJNPEFB@minkernel?2crts?2ucrt?2src?2appcrt?2@ 100a40e0     libucrtd:dbgrpt.obj
 0002:0000f110       ??_C@_1HI@OFEHGPPC@?$AAm?$AAo?$AAd?$AAe?$AA?5?$AA?$DN?$AA?$DN?$AA?5?$AA_?$AAC?$AAR?$AAT?$AA_?$AAR?$AAP@ 100a4110     libucrtd:dbgrpt.obj
 0002:0000f188       ??_C@_1CO@FFNKOJOG@?$AAc?$AAo?$AAm?$AAm?$AAo?$AAn?$AA_?$AAs?$AAe?$AAt?$AA_?$AAr?$AAe?$AAp?$AAo@ 100a4188     libucrtd:dbgrpt.obj
 0002:0000f1b8       ??_C@_1CI@ONEHFNHD@?$AAn?$AAe?$AAw?$AA_?$AAh?$AAo?$AAo?$AAk?$AA?5?$AA?$CB?$AA?$DN?$AA?5?$AAn?$AAu?$AAl@ 100a41b8     libucrtd:dbgrpt.obj
 0002:0000f1e4       ??_C@_1CM@EHMOGBJJ@?$AAc?$AAo?$AAm?$AAm?$AAo?$AAn?$AA_?$AAm?$AAe?$AAs?$AAs?$AAa?$AAg?$AAe?$AA_@ 100a41e4     libucrtd:dbgrpt.obj
 0002:0000f210       ??_C@_1BA@GLLGCPCK@?$AA?6?$AAL?$AAi?$AAn?$AAe?$AA?3?$AA?5@ 100a4210     libucrtd:dbgrpt.obj
 0002:0000f220       ??_C@_1BA@LNHECFIM@?$AA?6?$AAF?$AAi?$AAl?$AAe?$AA?3?$AA?5@ 100a4220     libucrtd:dbgrpt.obj
 0002:0000f230       ??_C@_1BE@CGCJKGHI@?$AA?6?$AAM?$AAo?$AAd?$AAu?$AAl?$AAe?$AA?3?$AA?5@ 100a4230     libucrtd:dbgrpt.obj
 0002:0000f244       ??_C@_1BI@KALLJECN@?$AA?$CI?$AA?$CK?$AA_?$AAe?$AAr?$AAr?$AAn?$AAo?$AA?$CI?$AA?$CJ?$AA?$CJ@ 100a4244     libucrtd:dbgrpt.obj
 0002:0000f260       ??_C@_1JM@IBOIJEOO@?$AAw?$AAc?$AAs?$AAc?$AAp?$AAy?$AA_?$AAs?$AA?$CI?$AAm?$AAe?$AAs?$AAs?$AAa?$AAg@ 100a4260     libucrtd:dbgrpt.obj
 0002:0000f300       ??_C@_1FG@BBOLDHGF@?$AA_?$AAC?$AAr?$AAt?$AAD?$AAb?$AAg?$AAR?$AAe?$AAp?$AAo?$AAr?$AAt?$AA?3?$AA?5@ 100a4300     libucrtd:dbgrpt.obj
 0002:0000f360       ___acrt_exception_action_table 100a4360     libucrtd:exception_filter.obj
 0002:0000f3f0       ___acrt_signal_action_table_count 100a43f0     libucrtd:exception_filter.obj
 0002:0000f3f4       ___acrt_signal_action_table_size 100a43f4     libucrtd:exception_filter.obj
 0002:0000f3f8       ___acrt_signal_action_first_fpe_index 100a43f8     libucrtd:exception_filter.obj
 0002:0000f3fc       ___acrt_signal_action_fpe_count 100a43fc     libucrtd:exception_filter.obj
 0002:0000f400       ??_C@_1BI@BGOHAHKC@?$AAm?$AAs?$AAc?$AAo?$AAr?$AAe?$AAe?$AA?4?$AAd?$AAl?$AAl@ 100a4400     libucrtd:exit.obj
 0002:0000f418       ??_C@_0P@MIGLKIOC@CorExitProcess@ 100a4418     libucrtd:exit.obj
 0002:0000f428       ??_C@_0DI@KNDIGDEP@minkernel?2crts?2ucrt?2src?2appcrt?2@ 100a4428     libucrtd:argv_parsing.obj
 0002:0000f460       ??_C@_1JO@PGBIJBAM@?$AAm?$AAo?$AAd?$AAe?$AA?5?$AA?$DN?$AA?$DN?$AA?5?$AA_?$AAc?$AAr?$AAt?$AA_?$AAa?$AAr@ 100a4460     libucrtd:argv_parsing.obj
 0002:0000f500       ??_C@_1HA@JMLCANEE@?$AAm?$AAi?$AAn?$AAk?$AAe?$AAr?$AAn?$AAe?$AAl?$AA?2?$AAc?$AAr?$AAt?$AAs?$AA?2@ 100a4500     libucrtd:argv_parsing.obj
 0002:0000f570       ??_C@_1CM@LHOJELIC@?$AAc?$AAo?$AAm?$AAm?$AAo?$AAn?$AA_?$AAc?$AAo?$AAn?$AAf?$AAi?$AAg?$AAu?$AAr@ 100a4570     libucrtd:argv_parsing.obj
 0002:0000f5a0       ??_C@_0EG@LEHKHOEH@minkernel?2crts?2ucrt?2src?2desktop@ 100a45a0     libucrtd:environment_initialization.obj
 0002:0000f5e8       ??_C@_1IM@IMOFFPLG@?$AAm?$AAi?$AAn?$AAk?$AAe?$AAr?$AAn?$AAe?$AAl?$AA?2?$AAc?$AAr?$AAt?$AAs?$AA?2@ 100a45e8     libucrtd:environment_initialization.obj
 0002:0000f674       ??_C@_1CG@MNNNBNAK@?$AAc?$AAr?$AAe?$AAa?$AAt?$AAe?$AA_?$AAe?$AAn?$AAv?$AAi?$AAr?$AAo?$AAn?$AAm@ 100a4674     libucrtd:environment_initialization.obj
 0002:0000f6a0       ??_C@_1HI@OOPIFFGA@?$AAt?$AAr?$AAa?$AAi?$AAt?$AAs?$AA?3?$AA?3?$AAt?$AAc?$AAs?$AAc?$AAp?$AAy?$AA_@ 100a46a0     libucrtd:environment_initialization.obj
 0002:0000f718       ??_C@_0DC@NBHMIIKL@minkernel?2crts?2ucrt?2src?2appcrt?2@ 100a4718     libucrtd:onexit.obj
 0002:0000f7d0       ??_C@_1CA@EOJJMFA@?$AAc?$AAo?$AAm?$AAm?$AAo?$AAn?$AA_?$AAt?$AAc?$AAs?$AAc?$AAa?$AAt?$AA_?$AAs@ 100a47d0     libucrtd:strcat_s.obj
 0002:0000f7f0       ??_C@_1DM@FHLMIEG@?$AAS?$AAt?$AAr?$AAi?$AAn?$AAg?$AA?5?$AAi?$AAs?$AA?5?$AAn?$AAo?$AAt?$AA?5?$AAn@ 100a47f0     libucrtd:strcat_s.obj
 0002:0000f830       ??_C@_1FA@MJKDNFFB@?$AA?$CI?$AAL?$AA?$CC?$AAS?$AAt?$AAr?$AAi?$AAn?$AAg?$AA?5?$AAi?$AAs?$AA?5?$AAn?$AAo@ 100a4830     libucrtd:strcat_s.obj
 0002:0000f880       ??_C@_1GE@IHIGNC@?$AA?$CI?$AA?$CI?$AAr?$AAe?$AAs?$AAu?$AAl?$AAt?$AA_?$AAb?$AAu?$AAf?$AAf?$AAe?$AAr@ 100a4880     libucrtd:makepath.obj
 0002:0000f8e8       ??_C@_1GO@CPMBDHKK@?$AAm?$AAi?$AAn?$AAk?$AAe?$AAr?$AAn?$AAe?$AAl?$AA?2?$AAc?$AAr?$AAt?$AAs?$AA?2@ 100a48e8     libucrtd:makepath.obj
 0002:0000f958       ??_C@_1CE@GNNMAAIL@?$AAc?$AAo?$AAm?$AAm?$AAo?$AAn?$AA_?$AAm?$AAa?$AAk?$AAe?$AAp?$AAa?$AAt?$AAh@ 100a4958     libucrtd:makepath.obj
 0002:0000f97c       ??_C@_1CI@KGHCCPCN@?$AAc?$AAl?$AAe?$AAa?$AAn?$AAu?$AAp?$AA_?$AAa?$AAf?$AAt?$AAe?$AAr?$AA_?$AAe@ 100a497c     libucrtd:makepath.obj
 0002:0000f9a4       ??_C@_1M@HLGKFCJM@?$AAf?$AAa?$AAl?$AAs?$AAe@ 100a49a4     libucrtd:splitpath.obj
 0002:0000f9b0       ??_C@_1HA@BEJINBHO@?$AAm?$AAi?$AAn?$AAk?$AAe?$AAr?$AAn?$AAe?$AAl?$AA?2?$AAc?$AAr?$AAt?$AAs?$AA?2@ 100a49b0     libucrtd:splitpath.obj
 0002:0000fa20       ??_C@_1DE@EEECINKG@?$AAc?$AAo?$AAm?$AAm?$AAo?$AAn?$AA_?$AAs?$AAp?$AAl?$AAi?$AAt?$AAp?$AAa?$AAt@ 100a4a20     libucrtd:splitpath.obj
 0002:0000fa68       ??_C@_04HJMOFLDF@Free@     100a4a68     libucrtd:debug_heap.obj
 0002:0000fa70       ??_C@_06EFAGIKOH@Normal@   100a4a70     libucrtd:debug_heap.obj
 0002:0000fa78       ??_C@_03OGPFLFLO@CRT@      100a4a78     libucrtd:debug_heap.obj
 0002:0000fa7c       ??_C@_06KMEJCCGM@Ignore@   100a4a7c     libucrtd:debug_heap.obj
 0002:0000fa84       ??_C@_06PJIGMIJB@Client@   100a4a84     libucrtd:debug_heap.obj
 0002:0000fa8c       ??_C@_1CE@LJFEPPMP@?$AA_?$AAC?$AAr?$AAt?$AAC?$AAh?$AAe?$AAc?$AAk?$AAM?$AAe?$AAm?$AAo?$AAr?$AAy@ 100a4a8c     libucrtd:debug_heap.obj
 0002:0000fab0       ??_C@_1GG@OCLHPJPK@?$AAm?$AAi?$AAn?$AAk?$AAe?$AAr?$AAn?$AAe?$AAl?$AA?2?$AAc?$AAr?$AAt?$AAs?$AA?2@ 100a4ab0     libucrtd:debug_heap.obj
 0002:0000fb18       ??_C@_0DF@BBEGIFEK@Client?5hook?5allocation?5failure?5@ 100a4b18     libucrtd:debug_heap.obj
 0002:0000fb50       ??_C@_0CB@CCLOLAHO@Client?5hook?5allocation?5failure?4@ 100a4b50     libucrtd:debug_heap.obj
 0002:0000fb74       ??_C@_0DC@JEMAGEKG@Error?3?5memory?5allocation?3?5bad?5m@ 100a4b74     libucrtd:debug_heap.obj
 0002:0000fba8       ??_C@_0DI@KKJPDPGM@Client?5hook?5re?9allocation?5failu@ 100a4ba8     libucrtd:debug_heap.obj
 0002:0000fbe0       ??_C@_0CE@DOFMDOL@Client?5hook?5re?9allocation?5failu@ 100a4be0     libucrtd:debug_heap.obj
 0002:0000fc08       ??_C@_0FA@EFEIGJKG@Error?3?5memory?5allocation?3?5bad?5m@ 100a4c08     libucrtd:debug_heap.obj
 0002:0000fc58       ??_C@_0EM@LGFLMAGJ@The?5Block?5at?50x?$CFp?5was?5allocated@ 100a4c58     libucrtd:debug_heap.obj
 0002:0000fca4       ??_C@_1DM@DEDLGNML@?$AA_?$AAC?$AAr?$AAt?$AAI?$AAs?$AAV?$AAa?$AAl?$AAi?$AAd?$AAH?$AAe?$AAa?$AAp@ 100a4ca4     libucrtd:debug_heap.obj
 0002:0000fce0       ??_C@_1PC@MCGKJLN@?$AAo?$AAl?$AAd?$AA_?$AAh?$AAe?$AAa?$AAd?$AA?9?$AA?$DO?$AA_?$AAl?$AAi?$AAn?$AAe@ 100a4ce0     libucrtd:debug_heap.obj
 0002:0000fdd4       ??_C@_0DA@HFBKENN@Error?3?5possible?5heap?5corruption@ 100a4dd4     libucrtd:debug_heap.obj
